 NetBox

 Timestamp is 5b61e79b (Wed Aug 01 20:02:19 2018)

 Preferred load address is 0000000180000000

 Start         Length     Name                   Class
 0001:00000000 00270d7eH .text                   CODE
 0001:00270d80 00026a3bH .text$x                 CODE
 0001:002977bc 00000e30H .text$yc                CODE
 0001:002985ec 0000077aH .text$yd                CODE
 0002:00000000 00000858H .idata$5                DATA
 0002:00000858 00000008H .CRT$XCA                DATA
 0002:00000860 00000028H .CRT$XCC                DATA
 0002:00000888 00000010H .CRT$XCL                DATA
 0002:00000898 00000270H .CRT$XCU                DATA
 0002:00000b08 00000008H .CRT$XCZ                DATA
 0002:00000b10 00000008H .CRT$XIA                DATA
 0002:00000b18 00000018H .CRT$XIC                DATA
 0002:00000b30 00000008H .CRT$XID                DATA
 0002:00000b38 00000008H .CRT$XIZ                DATA
 0002:00000b40 00000008H .CRT$XPA                DATA
 0002:00000b48 00000008H .CRT$XPX                DATA
 0002:00000b50 00000008H .CRT$XPXA               DATA
 0002:00000b58 00000008H .CRT$XPZ                DATA
 0002:00000b60 00000008H .CRT$XTA                DATA
 0002:00000b68 00000008H .CRT$XTZ                DATA
 0002:00000b70 000893d0H .rdata                  DATA
 0002:00089f40 000007f4H .rdata$r                DATA
 0002:0008a738 00000008H .rtc$IAA                DATA
 0002:0008a740 00000008H .rtc$IZZ                DATA
 0002:0008a748 00000008H .rtc$TAA                DATA
 0002:0008a750 00000008H .rtc$TZZ                DATA
 0002:0008a758 00046418H .xdata                  DATA
 0002:000d0b70 00001054H .xdata$x                DATA
 0002:000d1bc8 00000000H ATL$__a                 DATA
 0002:000d1bc8 00000000H ATL$__z                 DATA
 0002:000d1bc8 000000c0H .didat$2                DATA
 0002:000d1c88 00000020H .didat$3                DATA
 0002:000d1ca8 00000200H .didat$4                DATA
 0002:000d1ea8 00000254H .didat$6                DATA
 0002:000d2100 00000200H .didat$7                DATA
 0002:000d2300 0000003cH .idata$2                DATA
 0002:000d233c 00000014H .idata$3                DATA
 0002:000d2350 00000858H .idata$4                DATA
 0002:000d2ba8 00001332H .idata$6                DATA
 0002:000d3ee0 00000bfaH .edata                  DATA
 0003:00000000 0000883bH .data                   DATA
 0003:00008840 00000200H .didat$5                DATA
 0003:00008a40 00006470H .bss                    DATA
 0004:00000000 0001f6b0H .pdata                  DATA
 0005:00000000 00000280H .rsrc$01                DATA
 0005:00000280 00001060H .rsrc$02                DATA

  Address         Publics by Value              Rva+Base               Lib:Object

 0000:00000000       ___safe_se_handler_table   0000000000000000     <absolute>
 0000:00000000       ___safe_se_handler_count   0000000000000000     <absolute>
 0000:00000000       __ImageBase                0000000180000000     <linker-defined>
 0001:00000000       ??1bad_alloc@std@@UEAA@XZ  0000000180001000 f i UnityBuildCore.cpp.obj
 0001:00000010       ??_Ebad_alloc@std@@UEAAPEAXI@Z 0000000180001010 f i UnityBuildCore.cpp.obj
 0001:00000010       ??_Gbad_alloc@std@@UEAAPEAXI@Z 0000000180001010 f i UnityBuildCore.cpp.obj
 0001:000000b4       nbcore_alloc               00000001800010b4 f   UnityBuildCore.cpp.obj
 0001:00000100       nbcore_realloc             0000000180001100 f   UnityBuildCore.cpp.obj
 0001:00000160       ??0CNilMStringData@@QEAA@XZ 0000000180001160 f   UnityBuildCore.cpp.obj
 0001:00000174       ?nbstr_allocate@@YAPEAUCMStringData@@HH@Z 0000000180001174 f   UnityBuildCore.cpp.obj
 0001:000001a8       ?nbstr_realloc@@YAPEAUCMStringData@@PEAU1@HH@Z 00000001800011a8 f   UnityBuildCore.cpp.obj
 0001:000001d0       ?StrLength@nb@@YA_JPEB_W@Z 00000001800011d0 f   UnityBuildCore.cpp.obj
 0001:000001fc       ?Upper@nb@@YA_W_W@Z        00000001800011fc f   UnityBuildCore.cpp.obj
 0001:00000220       ?FarStrCmpI@nb@@YA_JPEB_W0@Z 0000000180001220 f   UnityBuildCore.cpp.obj
 0001:0000024c       ?DetectUTF8Encoding@nb@@YA?AW4TEncodeType@1@PEBE_J@Z 000000018000124c f   UnityBuildCore.cpp.obj
 0001:00000320       ??0runtime_error@std@@QEAA@AEBV01@@Z 0000000180001320 f i UnityBuildCore.cpp.obj
 0001:00000344       ??1facet@locale@std@@UEAA@XZ 0000000180001344 f i UnityBuildCore.cpp.obj
 0001:00000350       ??_Gfacet@locale@std@@UEAAPEAXI@Z 0000000180001350 f i UnityBuildCore.cpp.obj
 0001:00000350       ??_Efacet@locale@std@@UEAAPEAXI@Z 0000000180001350 f i UnityBuildCore.cpp.obj
 0001:00000378       ?getloc@ios_base@std@@QEBA?AVlocale@2@XZ 0000000180001378 f i UnityBuildCore.cpp.obj
 0001:000003cc       ??_Gios_base@std@@UEAAPEAXI@Z 00000001800013cc f i UnityBuildCore.cpp.obj
 0001:000003cc       ??_Eios_base@std@@UEAAPEAXI@Z 00000001800013cc f i UnityBuildCore.cpp.obj
 0001:00000408       ?is@TObject@@UEBA_NW4TObjectClassId@@@Z 0000000180001408 f i UnityBuildCore.cpp.obj
 0001:00000410       ??_ETGlobalsIntf@@UEAAPEAXI@Z 0000000180001410 f i UnityBuildCore.cpp.obj
 0001:00000410       ??_GTGlobalsIntf@@UEAAPEAXI@Z 0000000180001410 f i UnityBuildCore.cpp.obj
 0001:00000438       ?GetGlobals@@YAPEAVTGlobals@@XZ 0000000180001438 f   UnityBuildCore.cpp.obj
 0001:00000440       ?SetGlobals@@YAXPEAVTGlobals@@@Z 0000000180001440 f   UnityBuildCore.cpp.obj
 0001:00000448       ??0TPersistent@@QEAA@W4TObjectClassId@@@Z 0000000180001448 f   UnityBuildCore.cpp.obj
 0001:0000045c       ?is@TPersistent@@UEBA_NW4TObjectClassId@@@Z 000000018000145c f i UnityBuildCore.cpp.obj
 0001:00000470       ?Notify@TObjectList@@UEAAXPEAXW4TListNotification@@@Z 0000000180001470 f   UnityBuildCore.cpp.obj
 0001:0000049c       ?BeginUpdate@TStrings@@UEAAXXZ 000000018000149c f   UnityBuildCore.cpp.obj
 0001:000004c4       ?EndUpdate@TStrings@@UEAAXXZ 00000001800014c4 f   UnityBuildCore.cpp.obj
 0001:000004e0       ?SetDuplicates@TStrings@@QEAAXW4TDuplicatesEnum@@@Z 00000001800014e0 f   UnityBuildCore.cpp.obj
 0001:000004e4       ?GetString@TStringList@@UEBAAEBVUnicodeString@@_J@Z 00000001800014e4 f   UnityBuildCore.cpp.obj
 0001:000004f0       ?SetCaseSensitive@TStringList@@UEAAX_N@Z 00000001800014f0 f   UnityBuildCore.cpp.obj
 0001:00000524       ?SetSorted@TStringList@@UEAAX_N@Z 0000000180001524 f   UnityBuildCore.cpp.obj
 0001:00000558       ?SetUpdateState@TStringList@@UEAAX_N@Z 0000000180001558 f   UnityBuildCore.cpp.obj
 0001:0000056c       ?SpanOfNowAndThen@@YA?AVTDateTime@@AEBV1@0@Z 000000018000156c f   UnityBuildCore.cpp.obj
 0001:000005b0       ?MilliSecondSpan@@YANAEBVTDateTime@@0@Z 00000001800015b0 f   UnityBuildCore.cpp.obj
 0001:000005d8       ?MilliSecondsBetween@@YA_JAEBVTDateTime@@0@Z 00000001800015d8 f   UnityBuildCore.cpp.obj
 0001:0000062c       ??0TStream@@QEAA@XZ        000000018000162c f   UnityBuildCore.cpp.obj
 0001:00000644       ??0THandleStream@@QEAA@PEAX@Z 0000000180001644 f   UnityBuildCore.cpp.obj
 0001:00000664       ??1THandleStream@@UEAA@XZ  0000000180001664 f   UnityBuildCore.cpp.obj
 0001:00000674       ?Seek@THandleStream@@UEAA_J_JW4TSeekOrigin@@@Z 0000000180001674 f   UnityBuildCore.cpp.obj
 0001:0000069c       ??0TSafeHandleStream@@QEAA@PEAX@Z 000000018000169c f   UnityBuildCore.cpp.obj
 0001:000006b8       ??0TMemoryStream@@QEAA@XZ  00000001800016b8 f   UnityBuildCore.cpp.obj
 0001:000006e8       ?Read@TMemoryStream@@UEAA_JPEAX_J@Z 00000001800016e8 f   UnityBuildCore.cpp.obj
 0001:00000744       ?Seek@TMemoryStream@@UEAA_J_JH@Z 0000000180001744 f   UnityBuildCore.cpp.obj
 0001:0000074c       ?Seek@TMemoryStream@@UEAA_J_JW4TSeekOrigin@@@Z 000000018000174c f   UnityBuildCore.cpp.obj
 0001:00000770       ne_207_set_propstat_handlers 0000000180001770 f   neon:ne_207.c.obj
 0001:00000770       ?SetPointer@TMemoryStream@@IEAAXPEAX_J@Z 0000000180001770 f   UnityBuildCore.cpp.obj
 0001:0000077c       ?DataTypeToRegData@@YA?AW4TRegDataType@@K@Z 000000018000177c f   UnityBuildCore.cpp.obj
 0001:000007a8       ?RegDataToDataType@@YAKW4TRegDataType@@@Z 00000001800017a8 f   UnityBuildCore.cpp.obj
 0001:000007d4       ?SetAccess@TRegistry@@QEAAXI@Z 00000001800017d4 f   UnityBuildCore.cpp.obj
 0001:000007d8       ?GetBaseKey@TRegistry@@AEBAPEAUHKEY__@@_N@Z 00000001800017d8 f   UnityBuildCore.cpp.obj
 0001:000007f4       ??0TShortCut@@QEAA@XZ      00000001800017f4 f   UnityBuildCore.cpp.obj
 0001:00000810       ??0TShortCut@@QEAA@_J@Z    0000000180001810 f   UnityBuildCore.cpp.obj
 0001:0000082c       ENGINE_get_RSA             000000018000182c f   libcrypto:tb_rsa.c.obj
 0001:0000082c       SSL_get_rbio               000000018000182c f   libssl:ssl_lib.c.obj
 0001:0000082c       CONF_imodule_get_value     000000018000182c f   libcrypto:conf_mod.c.obj
 0001:0000082c       ?GetSessionData@TTerminal@@UEBAPEAVTSessionData@@XZ 000000018000182c f   UnityBuildCore.cpp.obj
 0001:0000082c       EC_GROUP_get0_order        000000018000182c f   libcrypto:ec_lib.c.obj
 0001:0000082c       ne_propset_private         000000018000182c f   neon:ne_props.c.obj
 0001:0000082c       EVP_PKEY_CTX_get0_pkey     000000018000182c f   libcrypto:pmeth_lib.c.obj
 0001:0000082c       ?GetCurrentKey@TRegistry@@QEBAPEAUHKEY__@@XZ 000000018000182c f   UnityBuildCore.cpp.obj
 0001:0000082c       ??BTShortCut@@QEBA_JXZ     000000018000182c f   UnityBuildCore.cpp.obj
 0001:0000082c       ?name@_System_error_category@std@@UEBAPEBDXZ 000000018000182c f   libcpmt:syserror.obj
 0001:0000082c       ?GetSessionDataPrivate@TCustomCommandData@@AEBAPEAVTSessionData@@XZ 000000018000182c f   UnityBuildCore.cpp.obj
 0001:00000834       ??1TGlobals@@UEAA@XZ       0000000180001834 f   UnityBuildCore.cpp.obj
 0001:0000084c       ?InitPlatformId@TGlobals@@AEAAXXZ 000000018000184c f   UnityBuildCore.cpp.obj
 0001:00000b14       ?CmpName@Masks@@YAHPEB_W0_N@Z 0000000180001b14 f   UnityBuildCore.cpp.obj
 0001:00000b28       ?Randomize@@YAXXZ          0000000180001b28 f   UnityBuildCore.cpp.obj
 0001:00000b40       ?UpCase@Sysutils@@YA_W_W@Z 0000000180001b40 f   UnityBuildCore.cpp.obj
 0001:00000b48       ?LowCase@Sysutils@@YA_W_W@Z 0000000180001b48 f   UnityBuildCore.cpp.obj
 0001:00000b50       ?StringCmp@Sysutils@@YAHPEB_W0@Z 0000000180001b50 f   UnityBuildCore.cpp.obj
 0001:00000b7c       ?StringCmpI@Sysutils@@YAHPEB_W0@Z 0000000180001b7c f   UnityBuildCore.cpp.obj
 0001:00000ba8       ?IsZero@Sysutils@@YA_NN@Z  0000000180001ba8 f   UnityBuildCore.cpp.obj
 0001:00000bc4       ?FileSeek@Sysutils@@YA_JPEAX_JK@Z 0000000180001bc4 f   UnityBuildCore.cpp.obj
 0001:00000ca8       ?IncDay@Sysutils@@YA?AVTDateTime@@AEBV2@_J@Z 0000000180001ca8 f   UnityBuildCore.cpp.obj
 0001:00000cd8       ?IncHour@Sysutils@@YA?AVTDateTime@@AEBV2@_J@Z 0000000180001cd8 f   UnityBuildCore.cpp.obj
 0001:00000d30       ?IncMinute@Sysutils@@YA?AVTDateTime@@AEBV2@_J@Z 0000000180001d30 f   UnityBuildCore.cpp.obj
 0001:00000d88       ?IncSecond@Sysutils@@YA?AVTDateTime@@AEBV2@_J@Z 0000000180001d88 f   UnityBuildCore.cpp.obj
 0001:00000de0       ?IsLeapYear@Sysutils@@YA_NG@Z 0000000180001de0 f   UnityBuildCore.cpp.obj
 0001:00000e44       ?FindClose@base@@YAKAEAUTSearchRec@Sysutils@@@Z 0000000180001e44 f   UnityBuildCore.cpp.obj
 0001:00000e6c       ?Unload@TLibraryLoader@@QEAAXXZ 0000000180001e6c f   UnityBuildCore.cpp.obj
 0001:00000e90       ?IsLowerCaseLetter@@YA_N_W@Z 0000000180001e90 f   UnityBuildCore.cpp.obj
 0001:00000e9c       ?IsUpperCaseLetter@@YA_N_W@Z 0000000180001e9c f   UnityBuildCore.cpp.obj
 0001:00000ea8       ?IsLetter@@YA_N_W@Z        0000000180001ea8 f   UnityBuildCore.cpp.obj
 0001:00000ed4       ?IsDigit@@YA_N_W@Z         0000000180001ed4 f   UnityBuildCore.cpp.obj
 0001:00000ee0       ?IsHex@@YA_N_W@Z           0000000180001ee0 f   UnityBuildCore.cpp.obj
 0001:00000f18       ?Round@@YA_JN@Z            0000000180001f18 f   UnityBuildCore.cpp.obj
 0001:00000fbc       ?TimeToMSec@@YA_JAEBVTDateTime@@@Z 0000000180001fbc f   UnityBuildCore.cpp.obj
 0001:00000fe0       ?TimeToSeconds@@YA_JAEBVTDateTime@@@Z 0000000180001fe0 f   UnityBuildCore.cpp.obj
 0001:0000100c       ?TimeToMinutes@@YA_JAEBVTDateTime@@@Z 000000018000200c f   UnityBuildCore.cpp.obj
 0001:0000103c       ?CancelAnswer@@YA_K_K@Z    000000018000203c f   UnityBuildCore.cpp.obj
 0001:0000106c       ?AbortAnswer@@YA_K_K@Z     000000018000206c f   UnityBuildCore.cpp.obj
 0001:000010ac       ?IsWinVista@@YA_NXZ        00000001800020ac f   UnityBuildCore.cpp.obj
 0001:000010b8       ?IsWin7@@YA_NXZ            00000001800020b8 f   UnityBuildCore.cpp.obj
 0001:000010c8       ?IsWin8@@YA_NXZ            00000001800020c8 f   UnityBuildCore.cpp.obj
 0001:000010d8       ?GetDefaultLCID@@YAKXZ     00000001800020d8 f   UnityBuildCore.cpp.obj
 0001:00001120       ?LessDateTimePrecision@base@@YA?AW4TModificationFmt@@W42@0@Z 0000000180002120 f   UnityBuildCore.cpp.obj
 0001:00001128       ?EOLToStr@@YAPEADW4TEOLType@@@Z 0000000180002128 f   UnityBuildCore.cpp.obj
 0001:00001154       ??1TSynchronizeOptions@@UEAA@XZ 0000000180002154 f   UnityBuildCore.cpp.obj
 0001:00001154       ??1TFileBuffer@@UEAA@XZ    0000000180002154 f   UnityBuildCore.cpp.obj
 0001:000011a0       ?SetSize@TFileBuffer@@QEAAX_J@Z 00000001800021a0 f   UnityBuildCore.cpp.obj
 0001:000011bc       ?SetPosition@TFileBuffer@@QEAAX_J@Z 00000001800021bc f   UnityBuildCore.cpp.obj
 0001:000011cc       ?GetPosition@TFileBuffer@@QEBA_JXZ 00000001800021cc f   UnityBuildCore.cpp.obj
 0001:000011e0       ?Insert@TFileBuffer@@QEAAX_JPEBD0@Z 00000001800021e0 f   UnityBuildCore.cpp.obj
 0001:0000125c       ?Delete@TFileBuffer@@QEAAX_J0@Z 000000018000225c f   UnityBuildCore.cpp.obj
 0001:000012a8       ??0TCriticalSection@@QEAA@XZ 00000001800022a8 f   UnityBuildCore.cpp.obj
 0001:000012c8       _Mtxdst                    00000001800022c8 f   libcpmt:xmtx.obj
 0001:000012c8       ??1TCriticalSection@@QEAA@XZ 00000001800022c8 f   UnityBuildCore.cpp.obj
 0001:000012d0       ?Enter@TCriticalSection@@QEBAXXZ 00000001800022d0 f   UnityBuildCore.cpp.obj
 0001:000012ec       ?Leave@TCriticalSection@@QEBAXXZ 00000001800022ec f   UnityBuildCore.cpp.obj
 0001:000012f8       ?GetModification@TRemoteFile@@QEBA?AVTDateTime@@XZ 00000001800022f8 f i UnityBuildCore.cpp.obj
 0001:0000131c       ?GetTimestamp@TRemoteFileList@@QEBA?AVTDateTime@@XZ 000000018000231c f i UnityBuildCore.cpp.obj
 0001:00001340       ?GetTimeDifference@TSessionData@@QEBA?AVTDateTime@@XZ 0000000180002340 f i UnityBuildCore.cpp.obj
 0001:00001368       ?is@TSessionUI@@UEBA_NW4TObjectClassId@@@Z 0000000180002368 f i UnityBuildCore.cpp.obj
 0001:0000137c       ?GetStartTime@TFileOperationProgressType@@QEBA?AVTDateTime@@XZ 000000018000237c f i UnityBuildCore.cpp.obj
 0001:0000137c       ?GetLastAccess@TRemoteFile@@QEBA?AVTDateTime@@XZ 000000018000237c f i UnityBuildCore.cpp.obj
 0001:000013a4       ?Clear@TRemoteToken@@QEAAXXZ 00000001800023a4 f   UnityBuildCore.cpp.obj
 0001:000013b0       ?SetID@TRemoteToken@@QEAAX_J@Z 00000001800023b0 f   UnityBuildCore.cpp.obj
 0001:000013c0       ?SetIsHidden@TRemoteFile@@QEAAX_N@Z 00000001800023c0 f   UnityBuildCore.cpp.obj
 0001:000013d0       ?GetType@TRemoteFile@@QEBA_WXZ 00000001800023d0 f   UnityBuildCore.cpp.obj
 0001:000013fc       ?SetType@TRemoteFile@@QEAAX_W@Z 00000001800023fc f   UnityBuildCore.cpp.obj
 0001:00001428       ?GetLinkedFile@TRemoteFile@@QEBAPEAV1@XZ 0000000180002428 f   UnityBuildCore.cpp.obj
 0001:00001430       ?GetIsTimeShiftingApplicable@TRemoteFile@@SA_NW4TModificationFmt@@@Z 0000000180002430 f   UnityBuildCore.cpp.obj
 0001:00001444       ?ShiftTimeInSeconds@TRemoteFile@@SAXAEAVTDateTime@@W4TModificationFmt@@_J@Z 0000000180002444 f   UnityBuildCore.cpp.obj
 0001:00001478       ?SetTerminal@TRemoteFile@@QEAAXPEAVTTerminal@@@Z 0000000180002478 f   UnityBuildCore.cpp.obj
 0001:000014a4       ?ReleaseRelativeDirectories@TRemoteDirectory@@QEAAXXZ 00000001800024a4 f   UnityBuildCore.cpp.obj
 0001:000014fc       ?GetIsEmptyPrivate@TRemoteDirectoryChangesCache@@AEBA_NXZ 00000001800024fc f   UnityBuildCore.cpp.obj
 0001:00001514       ?RightToFlag@TRights@@SA?AW4TFlag@1@W4TRight@1@@Z 0000000180002514 f   UnityBuildCore.cpp.obj
 0001:00001528       ?SetAllowUndef@TRights@@QEAAX_N@Z 0000000180002528 f   UnityBuildCore.cpp.obj
 0001:0000153c       ?GetNumberDecadic@TRights@@QEBAIXZ 000000018000253c f   UnityBuildCore.cpp.obj
 0001:00001570       ?GetRightUndef@TRights@@QEBA?AW4TState@1@W4TRight@1@@Z 0000000180002570 f   UnityBuildCore.cpp.obj
 0001:000015a8       ?GetIsUndef@TRights@@QEBA_NXZ 00000001800025a8 f   UnityBuildCore.cpp.obj
 0001:000015bc       ?GetLastDataSent@TSecureShell@@QEBA?AVTDateTime@@XZ 00000001800025bc f i UnityBuildCore.cpp.obj
 0001:000015e4       ?is@TOverwriteFileParams@@UEBA_NW4TObjectClassId@@@Z 00000001800025e4 f i UnityBuildCore.cpp.obj
 0001:000015f8       ??1TOverwriteFileParams@@UEAA@XZ 00000001800025f8 f i UnityBuildCore.cpp.obj
 0001:0000160c       ??_ETFileSystemIntf@@UEAAPEAXI@Z 000000018000260c f i UnityBuildCore.cpp.obj
 0001:0000160c       ??_GTFileSystemIntf@@UEAAPEAXI@Z 000000018000260c f i UnityBuildCore.cpp.obj
 0001:00001634       ??0TCalculateSizeStats@@QEAA@XZ 0000000180002634 f   UnityBuildCore.cpp.obj
 0001:0000165c       ??0TSynchronizeOptions@@QEAA@XZ 000000018000265c f   UnityBuildCore.cpp.obj
 0001:00001678       ??0TSpaceAvailable@@QEAA@XZ 0000000180002678 f   UnityBuildCore.cpp.obj
 0001:00001694       ?Terminate@TTunnelThread@@UEAAXXZ 0000000180002694 f   UnityBuildCore.cpp.obj
 0001:0000169c       ??0TTunnelUI@@QEAA@PEAVTTerminal@@@Z 000000018000269c f   UnityBuildCore.cpp.obj
 0001:000016cc       ?HandleExtendedException@TTunnelUI@@UEAAXPEAVException@@@Z 00000001800026cc f   UnityBuildCore.cpp.obj
 0001:00001700       ??0TCallbackGuard@@QEAA@PEAVTTerminal@@@Z 0000000180002700 f   UnityBuildCore.cpp.obj
 0001:00001738       ??1TCallbackGuard@@UEAA@XZ 0000000180002738 f i UnityBuildCore.cpp.obj
 0001:00001794       ?Dismiss@TCallbackGuard@@QEAAXXZ 0000000180002794 f   UnityBuildCore.cpp.obj
 0001:0000179c       ??1TRobustOperationLoop@@UEAA@XZ 000000018000279c f   UnityBuildCore.cpp.obj
 0001:000017c4       ?ShouldRetry@TRobustOperationLoop@@QEBA_NXZ 00000001800027c4 f   UnityBuildCore.cpp.obj
 0001:000017c8       ?Retry@TRobustOperationLoop@@QEAA_NXZ 00000001800027c8 f   UnityBuildCore.cpp.obj
 0001:000017d0       ??0TRetryOperationLoop@@QEAA@PEAVTTerminal@@@Z 00000001800027d0 f   UnityBuildCore.cpp.obj
 0001:000017dc       ?Retry@TRetryOperationLoop@@QEAA_NXZ 00000001800027dc f   UnityBuildCore.cpp.obj
 0001:000017e4       ?IsInitialized@TParallelOperation@@QEBA_NXZ 00000001800027e4 f   UnityBuildCore.cpp.obj
 0001:000017f4       ?GetActive@TTerminal@@QEBA_NXZ 00000001800027f4 f   UnityBuildCore.cpp.obj
 0001:00001828       ?GetIsCapableProtected@TTerminal@@IEBA_NW4TFSCapability@@@Z 0000000180002828 f   UnityBuildCore.cpp.obj
 0001:0000183c       ?ClearCaches@TTerminal@@QEAAXXZ 000000018000283c f   UnityBuildCore.cpp.obj
 0001:0000187c       ?InTransaction@TTerminal@@QEBA_NXZ 000000018000287c f   UnityBuildCore.cpp.obj
 0001:00001890       ?BeginTransaction@TTerminal@@QEAAXXZ 0000000180002890 f   UnityBuildCore.cpp.obj
 0001:000018b8       ?EndTransaction@TTerminal@@QEAAXXZ 00000001800028b8 f   UnityBuildCore.cpp.obj
 0001:000018c0       ?GetExceptionOnFail@TTerminal@@QEBA_NXZ 00000001800028c0 f   UnityBuildCore.cpp.obj
 0001:000018cc       ??1TParams@TFileMasks@@UEAA@XZ 00000001800028cc f i UnityBuildCore.cpp.obj
 0001:000018dc       ?AnnounceFileListOperation@TTerminal@@IEAAXXZ 00000001800028dc f   UnityBuildCore.cpp.obj
 0001:000018ec       ?GetCommandSessionOpened@TTerminal@@QEBA_NXZ 00000001800028ec f   UnityBuildCore.cpp.obj
 0001:0000190c       ?GetSessionInfo@TTerminal@@QEBAAEBUTSessionInfo@@XZ 000000018000290c f   UnityBuildCore.cpp.obj
 0001:00001920       ?GetFileSystemInfo@TTerminal@@QEAAAEBUTFileSystemInfo@@_N@Z 0000000180002920 f   UnityBuildCore.cpp.obj
 0001:00001934       ?CanParallel@TTerminal@@IEBA_NPEBVTCopyParamType@@_JPEAVTParallelOperation@@@Z 0000000180002934 f   UnityBuildCore.cpp.obj
 0001:0000198c       ?CanRecurseToDirectory@TTerminal@@IEBA_NPEBVTRemoteFile@@@Z 000000018000298c f   UnityBuildCore.cpp.obj
 0001:000019b0       ?UpdateFromMain@TSecondaryTerminal@@QEAAXXZ 00000001800029b0 f   UnityBuildCore.cpp.obj
 0001:000019e8       ?DirectoryLoaded@TSecondaryTerminal@@MEAAXPEAVTRemoteFileList@@@Z 00000001800029e8 f   UnityBuildCore.cpp.obj
 0001:000019fc       ?Reset@TFileOperationProgressType@@QEAAXXZ 00000001800029fc f   UnityBuildCore.cpp.obj
 0001:00001a04       ?OperationProgress@TFileOperationProgressType@@IEBA_JXZ 0000000180002a04 f   UnityBuildCore.cpp.obj
 0001:00001a20       ?TransferProgress@TFileOperationProgressType@@QEBA_JXZ 0000000180002a20 f   UnityBuildCore.cpp.obj
 0001:00001a38       ?IsLocallyDone@TFileOperationProgressType@@QEBA_NXZ 0000000180002a38 f   UnityBuildCore.cpp.obj
 0001:00001a44       ?SetSpeedCounters@TFileOperationProgressType@@QEAAXXZ 0000000180002a44 f   UnityBuildCore.cpp.obj
 0001:00001a6c       ?SetTransferringFile@TFileOperationProgressType@@QEAAX_N@Z 0000000180002a6c f   UnityBuildCore.cpp.obj
 0001:00001a70       ?PassCancelToParent@TFileOperationProgressType@@KA_NW4TCancelStatus@@@Z 0000000180002a70 f   UnityBuildCore.cpp.obj
 0001:00001a7c       ?StaticBlockSize@TFileOperationProgressType@@SA_KXZ 0000000180002a7c f   UnityBuildCore.cpp.obj
 0001:00001a84       ?IsTransferDone@TFileOperationProgressType@@QEBA_NXZ 0000000180002a84 f   UnityBuildCore.cpp.obj
 0001:00001a90       ?LockUserSelections@TFileOperationProgressType@@QEAAXXZ 0000000180002a90 f   UnityBuildCore.cpp.obj
 0001:00001ab4       ?UnlockUserSelections@TFileOperationProgressType@@QEAAXXZ 0000000180002ab4 f   UnityBuildCore.cpp.obj
 0001:00001ad8       ??0TSimpleThread@@QEAA@W4TObjectClassId@@@Z 0000000180002ad8 f   UnityBuildCore.cpp.obj
 0001:00001af8       ?is@TSimpleThread@@UEBA_NW4TObjectClassId@@@Z 0000000180002af8 f i UnityBuildCore.cpp.obj
 0001:00001b0c       ?InitSimpleThread@TSimpleThread@@QEAAXXZ 0000000180002b0c f   UnityBuildCore.cpp.obj
 0001:00001b3c       ?Start@TSimpleThread@@UEAAXXZ 0000000180002b3c f   UnityBuildCore.cpp.obj
 0001:00001b60       ?InitSignalThread@TSignalThread@@QEAAX_N@Z 0000000180002b60 f   UnityBuildCore.cpp.obj
 0001:00001ba4       ?Start@TSignalThread@@UEAAXXZ 0000000180002ba4 f   UnityBuildCore.cpp.obj
 0001:00001bb0       ?TriggerEvent@TSignalThread@@QEBAXXZ 0000000180002bb0 f   UnityBuildCore.cpp.obj
 0001:00001bd0       ?WaitForEvent@TSignalThread@@IEBA_KI@Z 0000000180002bd0 f   UnityBuildCore.cpp.obj
 0001:00001c14       ?Execute@TSignalThread@@MEAAXXZ 0000000180002c14 f   UnityBuildCore.cpp.obj
 0001:00001c48       ?Terminate@TSignalThread@@UEAAXXZ 0000000180002c48 f   UnityBuildCore.cpp.obj
 0001:00001c54       ?GetParallelDurationThreshold@TTerminalQueue@@IEBA_JXZ 0000000180002c54 f   UnityBuildCore.cpp.obj
 0001:00001c64       ?WaitForEvent@TTerminalQueue@@MEAA_NXZ 0000000180002c64 f   UnityBuildCore.cpp.obj
 0001:00001c80       ?ProcessUserAction@TTerminalItem@@QEAA_NPEAX@Z 0000000180002c80 f   UnityBuildCore.cpp.obj
 0001:00001cbc       ?OverrideItemStatus@TTerminalItem@@IEBA_NAEAW4TStatus@TQueueItem@@@Z 0000000180002cbc f   UnityBuildCore.cpp.obj
 0001:00001ce0       ?IsUserActionStatus@TQueueItem@@SA_NW4TStatus@1@@Z 0000000180002ce0 f   UnityBuildCore.cpp.obj
 0001:00001cf8       ??1TQueueItemProxy@@EEAA@XZ 0000000180002cf8 f   UnityBuildCore.cpp.obj
 0001:00001d5c       ?is@TQueueItemProxy@@UEBA_NW4TObjectClassId@@@Z 0000000180002d5c f i UnityBuildCore.cpp.obj
 0001:00001d70       ?GetProgressData@TQueueItemProxy@@QEBAPEAVTFileOperationProgressType@@XZ 0000000180002d70 f   UnityBuildCore.cpp.obj
 0001:00001d80       ?ResetStats@TTerminalQueueStatus@@IEBAXXZ 0000000180002d80 f   UnityBuildCore.cpp.obj
 0001:00001d94       ?SetDoneCount@TTerminalQueueStatus@@QEAAX_J@Z 0000000180002d94 f   UnityBuildCore.cpp.obj
 0001:00001da0       ?DefaultCPSLimit@TTransferQueueItem@@MEBA_JXZ 0000000180002da0 f   UnityBuildCore.cpp.obj
 0001:00001db0       ?ResetSessionInfo@TSecureShell@@QEAAXXZ 0000000180002db0 f   UnityBuildCore.cpp.obj
 0001:00001dc8       ?Peek@TSecureShell@@QEBA_NAEAPEAE_J@Z 0000000180002dc8 f   UnityBuildCore.cpp.obj
 0001:00001de4       ?SendBuffer@TSecureShell@@QEAAXAEA_J@Z 0000000180002de4 f   UnityBuildCore.cpp.obj
 0001:00001e30       ?FreeBackend@TSecureShell@@QEAAXXZ 0000000180002e30 f   UnityBuildCore.cpp.obj
 0001:00001e60       ?Discard@TSecureShell@@QEAAXXZ 0000000180002e60 f   UnityBuildCore.cpp.obj
 0001:00001e88       ??1TPoolForDataEvent@@UEAA@XZ 0000000180002e88 f i UnityBuildCore.cpp.obj
 0001:00001e88       ??1TInteractiveCustomCommand@@UEAA@XZ 0000000180002e88 f i UnityBuildCore.cpp.obj
 0001:00001e88       ??1TCustomFarPanelItem@@MEAA@XZ 0000000180002e88 f i UnityBuildMain.cpp.obj
 0001:00001e88       ??1TUserAction@@UEAA@XZ    0000000180002e88 f i UnityBuildCore.cpp.obj
 0001:00001e88       ??1TCustomCommand@@UEAA@XZ 0000000180002e88 f i UnityBuildCore.cpp.obj
 0001:00001e88       ??1TObject@@UEAA@XZ        0000000180002e88 f i UnityBuildCore.cpp.obj
 0001:00001e88       ??1TPersistent@@UEAA@XZ    0000000180002e88 f i UnityBuildCore.cpp.obj
 0001:00001e88       ??1TDateTime@@UEAA@XZ      0000000180002e88 f i UnityBuildCore.cpp.obj
 0001:00001e88       ??1TSessionUI@@UEAA@XZ     0000000180002e88 f i UnityBuildCore.cpp.obj
 0001:00001e88       ??1TShortCut@@UEAA@XZ      0000000180002e88 f i UnityBuildCore.cpp.obj
 0001:00001e88       ??1TCalculateSizeStats@@UEAA@XZ 0000000180002e88 f i UnityBuildCore.cpp.obj
 0001:00001e88       ??1TFarInteractiveCustomCommand@@UEAA@XZ 0000000180002e88 f i UnityBuildMain.cpp.obj
 0001:00001e88       ??1TShowExtendedExceptionAction@@UEAA@XZ 0000000180002e88 f i UnityBuildCore.cpp.obj
 0001:00001e88       ??1TStream@@UEAA@XZ        0000000180002e88 f i UnityBuildCore.cpp.obj
 0001:00001e88       ??1TOutputProxy@@UEAA@XZ   0000000180002e88 f i UnityBuildCore.cpp.obj
 0001:00001e88       ??1TMakeLocalFileListParams@@UEAA@XZ 0000000180002e88 f i UnityBuildMain.cpp.obj
 0001:00001e88       ??1TFarMessageData@@UEAA@XZ 0000000180002e88 f i UnityBuildMain.cpp.obj
 0001:00001e94       ?SshFallbackCmd@TSecureShell@@QEBA_NXZ 0000000180002e94 f   UnityBuildCore.cpp.obj
 0001:00001eb0       ?FuncToSsh1Cipher@TSecureShell@@SA?AW4TCipher@@PEBX@Z 0000000180002eb0 f   UnityBuildCore.cpp.obj
 0001:00001f0c       ?FuncToSsh2Cipher@TSecureShell@@SA?AW4TCipher@@PEBX@Z 0000000180002f0c f   UnityBuildCore.cpp.obj
 0001:00001fc0       ?GetStoredCredentialsTried@TSecureShell@@QEBA_NXZ 0000000180002fc0 f   UnityBuildCore.cpp.obj
 0001:00001fe0       ?GetReady@TSecureShell@@QEBA_NXZ 0000000180002fe0 f   UnityBuildCore.cpp.obj
 0001:00001ffc       ?CanChangePassword@TSecureShell@@QEBA_NXZ 0000000180002ffc f   UnityBuildCore.cpp.obj
 0001:00002014       ?Restart@TSessionActionRecord@@QEAAXXZ 0000000180003014 f i UnityBuildCore.cpp.obj
 0001:0000208c       ?Restart@TSessionAction@@QEAAXXZ 000000018000308c f   UnityBuildCore.cpp.obj
 0001:000020a4       ?Recursive@TRmSessionAction@@QEAAXXZ 00000001800030a4 f   UnityBuildCore.cpp.obj
 0001:000020a4       ?Recursive@TChmodSessionAction@@QEAAXXZ 00000001800030a4 f   UnityBuildCore.cpp.obj
 0001:000020b4       ?IsAuthenticationPrompt@@YA_NW4TPromptKind@@@Z 00000001800030b4 f   UnityBuildCore.cpp.obj
 0001:000020e0       ?GetConfiguration@@YAPEAVTConfiguration@@XZ 00000001800030e0 f   UnityBuildCore.cpp.obj
 0001:00002104       ?DeleteConfiguration@@YAXXZ 0000000180003104 f   UnityBuildCore.cpp.obj
 0001:00002138       ?CoreSetResourceModule@@YAXPEAX@Z 0000000180003138 f   UnityBuildCore.cpp.obj
 0001:00002140       ??0TParams@TFileMasks@@QEAA@XZ 0000000180003140 f   UnityBuildCore.cpp.obj
 0001:00002170       ?DoInit@TFileMasks@@AEAAX_N@Z 0000000180003170 f   UnityBuildCore.cpp.obj
 0001:000021c8       ??0TCustomCommand@@QEAA@XZ 00000001800031c8 f   UnityBuildCore.cpp.obj
 0001:000021e0       ??0TInteractiveCustomCommand@@QEAA@PEAVTCustomCommand@@@Z 00000001800031e0 f   UnityBuildCore.cpp.obj
 0001:00002200       ?GetReplaceInvalidChars@TCopyParamType@@QEBA_NXZ 0000000180003200 f   UnityBuildCore.cpp.obj
 0001:00002210       ?SetReplaceInvalidChars@TCopyParamType@@QEAAX_N@Z 0000000180003210 f   UnityBuildCore.cpp.obj
 0001:00002230       ?AllowResume@TCopyParamType@@QEBA_N_J@Z 0000000180003230 f   UnityBuildCore.cpp.obj
 0001:00002288       ?Modify@TSessionData@@QEAAXXZ 0000000180003288 f   UnityBuildCore.cpp.obj
 0001:000022a8       ?SetPortNumber@TSessionData@@QEAAX_J@Z 00000001800032a8 f   UnityBuildCore.cpp.obj
 0001:000022c0       ?SetClearAliases@TSessionData@@QEAAX_N@Z 00000001800032c0 f   UnityBuildCore.cpp.obj
 0001:000022dc       ?SetIgnoreLsWarnings@TSessionData@@QEAAX_N@Z 00000001800032dc f   UnityBuildCore.cpp.obj
 0001:000022f8       ?SetUnsetNationalVars@TSessionData@@QEAAX_N@Z 00000001800032f8 f   UnityBuildCore.cpp.obj
 0001:00002314       ?SetChangePassword@TSessionData@@QEAAX_N@Z 0000000180003314 f   UnityBuildCore.cpp.obj
 0001:0000232c       ?SetPingInterval@TSessionData@@QEAAX_J@Z 000000018000332c f   UnityBuildCore.cpp.obj
 0001:00002344       ?SetTryAgent@TSessionData@@QEAAX_N@Z 0000000180003344 f   UnityBuildCore.cpp.obj
 0001:0000235c       ?SetAgentFwd@TSessionData@@QEAAX_N@Z 000000018000335c f   UnityBuildCore.cpp.obj
 0001:00002374       ?SetAuthTIS@TSessionData@@QEAAX_N@Z 0000000180003374 f   UnityBuildCore.cpp.obj
 0001:0000238c       ?SetAuthKI@TSessionData@@QEAAX_N@Z 000000018000338c f   UnityBuildCore.cpp.obj
 0001:000023a4       ?SetAuthKIPassword@TSessionData@@QEAAX_N@Z 00000001800033a4 f   UnityBuildCore.cpp.obj
 0001:000023bc       ?SetAuthGSSAPI@TSessionData@@QEAAX_N@Z 00000001800033bc f   UnityBuildCore.cpp.obj
 0001:000023d4       ?SetGSSAPIFwdTGT@TSessionData@@QEAAX_N@Z 00000001800033d4 f   UnityBuildCore.cpp.obj
 0001:000023ec       ?SetChangeUsername@TSessionData@@QEAAX_N@Z 00000001800033ec f   UnityBuildCore.cpp.obj
 0001:00002404       ?SetCompression@TSessionData@@QEAAX_N@Z 0000000180003404 f   UnityBuildCore.cpp.obj
 0001:0000241c       ?SetSshProt@TSessionData@@QEAAXW4TSshProt@@@Z 000000018000341c f   UnityBuildCore.cpp.obj
 0001:00002434       ?SetSsh2DES@TSessionData@@QEAAX_N@Z 0000000180003434 f   UnityBuildCore.cpp.obj
 0001:0000244c       ?SetSshNoUserAuth@TSessionData@@QEAAX_N@Z 000000018000344c f   UnityBuildCore.cpp.obj
 0001:00002464       ?SetCipher@TSessionData@@QEAAX_JW4TCipher@@@Z 0000000180003464 f   UnityBuildCore.cpp.obj
 0001:00002480       ?GetCipher@TSessionData@@QEBA?AW4TCipher@@_J@Z 0000000180003480 f   UnityBuildCore.cpp.obj
 0001:00002488       ?SetKex@TSessionData@@QEAAX_JW4TKex@@@Z 0000000180003488 f   UnityBuildCore.cpp.obj
 0001:000024a8       ?GetKex@TSessionData@@QEBA?AW4TKex@@_J@Z 00000001800034a8 f   UnityBuildCore.cpp.obj
 0001:000024b0       ?SetGssLib@TSessionData@@QEAAX_JW4TGssLib@@@Z 00000001800034b0 f   UnityBuildCore.cpp.obj
 0001:000024d0       ?GetGssLib@TSessionData@@QEBA?AW4TGssLib@@_J@Z 00000001800034d0 f   UnityBuildCore.cpp.obj
 0001:000024d8       ?SetLookupUserGroups@TSessionData@@QEAAXW4TAutoSwitch@@@Z 00000001800034d8 f   UnityBuildCore.cpp.obj
 0001:000024f4       ?SetEOLType@TSessionData@@QEAAXW4TEOLType@@@Z 00000001800034f4 f   UnityBuildCore.cpp.obj
 0001:00002510       ?SetTrimVMSVersions@TSessionData@@QEAAX_N@Z 0000000180003510 f   UnityBuildCore.cpp.obj
 0001:0000252c       ?GetTimeoutDT@TSessionData@@QEBA?AVTDateTime@@XZ 000000018000352c f   UnityBuildCore.cpp.obj
 0001:00002550       ?SetTimeout@TSessionData@@QEAAX_J@Z 0000000180003550 f   UnityBuildCore.cpp.obj
 0001:00002570       ?SetFSProtocol@TSessionData@@QEAAXW4TFSProtocol@@@Z 0000000180003570 f   UnityBuildCore.cpp.obj
 0001:0000258c       ?GetPingIntervalDT@TSessionData@@QEBA?AVTDateTime@@XZ 000000018000358c f   UnityBuildCore.cpp.obj
 0001:000025ac       ?SetPingType@TSessionData@@QEAAXW4TPingType@@@Z 00000001800035ac f   UnityBuildCore.cpp.obj
 0001:000025c4       ?SetAddressFamily@TSessionData@@QEAAXW4TAddressFamily@@@Z 00000001800035c4 f   UnityBuildCore.cpp.obj
 0001:000025e0       ?SetRekeyTime@TSessionData@@QEAAX_K@Z 00000001800035e0 f   UnityBuildCore.cpp.obj
 0001:00002600       ?SetTimeDifferenceAuto@TSessionData@@QEAAX_N@Z 0000000180003600 f   UnityBuildCore.cpp.obj
 0001:0000261c       ?SetSynchronizeBrowsing@TSessionData@@QEAAX_N@Z 000000018000361c f   UnityBuildCore.cpp.obj
 0001:00002638       ?SetUpdateDirectories@TSessionData@@QEAAX_N@Z 0000000180003638 f   UnityBuildCore.cpp.obj
 0001:00002654       ?SetCacheDirectories@TSessionData@@QEAAX_N@Z 0000000180003654 f   UnityBuildCore.cpp.obj
 0001:00002670       ?SetCacheDirectoryChanges@TSessionData@@QEAAX_N@Z 0000000180003670 f   UnityBuildCore.cpp.obj
 0001:0000268c       ?SetPreserveDirectoryChanges@TSessionData@@QEAAX_N@Z 000000018000368c f   UnityBuildCore.cpp.obj
 0001:000026a8       ?SetResolveSymlinks@TSessionData@@QEAAX_N@Z 00000001800036a8 f   UnityBuildCore.cpp.obj
 0001:000026c4       ?SetFollowDirectorySymlinks@TSessionData@@QEAAX_N@Z 00000001800036c4 f   UnityBuildCore.cpp.obj
 0001:000026e0       ?SetDSTMode@TSessionData@@QEAAXW4TDSTMode@@@Z 00000001800036e0 f   UnityBuildCore.cpp.obj
 0001:000026fc       ?SetDeleteToRecycleBin@TSessionData@@QEAAX_N@Z 00000001800036fc f   UnityBuildCore.cpp.obj
 0001:00002718       ?SetOverwrittenToRecycleBin@TSessionData@@QEAAX_N@Z 0000000180003718 f   UnityBuildCore.cpp.obj
 0001:00002734       ?SetLockInHome@TSessionData@@QEAAX_N@Z 0000000180003734 f   UnityBuildCore.cpp.obj
 0001:00002750       ?SetSpecial@TSessionData@@QEAAX_N@Z 0000000180003750 f   UnityBuildCore.cpp.obj
 0001:0000276c       ?SetScp1Compatibility@TSessionData@@QEAAX_N@Z 000000018000376c f   UnityBuildCore.cpp.obj
 0001:00002788       ?SetTcpNoDelay@TSessionData@@QEAAX_N@Z 0000000180003788 f   UnityBuildCore.cpp.obj
 0001:000027a4       ?SetSendBuf@TSessionData@@QEAAX_J@Z 00000001800037a4 f   UnityBuildCore.cpp.obj
 0001:000027c4       ?SetSshSimple@TSessionData@@QEAAX_N@Z 00000001800037c4 f   UnityBuildCore.cpp.obj
 0001:000027e0       ?SetProxyMethod@TSessionData@@QEAAXW4TProxyMethod@@@Z 00000001800037e0 f   UnityBuildCore.cpp.obj
 0001:000027fc       ?SetProxyPort@TSessionData@@QEAAX_J@Z 00000001800037fc f   UnityBuildCore.cpp.obj
 0001:00002858       ?SetProxyDNS@TSessionData@@QEAAXW4TAutoSwitch@@@Z 0000000180003858 f   UnityBuildCore.cpp.obj
 0001:00002874       ?SetProxyLocalhost@TSessionData@@QEAAX_N@Z 0000000180003874 f   UnityBuildCore.cpp.obj
 0001:00002890       ?SetFtpProxyLogonType@TSessionData@@QEAAX_J@Z 0000000180003890 f   UnityBuildCore.cpp.obj
 0001:000028b0       ?SetBug@TSessionData@@QEAAXW4TSshBug@@W4TAutoSwitch@@@Z 00000001800038b0 f   UnityBuildCore.cpp.obj
 0001:000028d4       ?GetBug@TSessionData@@QEBA?AW4TAutoSwitch@@W4TSshBug@@@Z 00000001800038d4 f   UnityBuildCore.cpp.obj
 0001:000028e0       ?SetSFTPDownloadQueue@TSessionData@@QEAAX_J@Z 00000001800038e0 f   UnityBuildCore.cpp.obj
 0001:00002900       ?SetSFTPUploadQueue@TSessionData@@QEAAX_J@Z 0000000180003900 f   UnityBuildCore.cpp.obj
 0001:00002920       ?SetSFTPListingQueue@TSessionData@@QEAAX_J@Z 0000000180003920 f   UnityBuildCore.cpp.obj
 0001:00002940       ?SetSFTPMaxVersion@TSessionData@@QEAAX_J@Z 0000000180003940 f   UnityBuildCore.cpp.obj
 0001:00002960       ?SetSFTPMaxPacketSize@TSessionData@@QEAAX_J@Z 0000000180003960 f   UnityBuildCore.cpp.obj
 0001:00002980       ?SetSFTPBug@TSessionData@@QEAAXW4TSftpBug@@W4TAutoSwitch@@@Z 0000000180003980 f   UnityBuildCore.cpp.obj
 0001:000029a4       ?GetSFTPBug@TSessionData@@QEBA?AW4TAutoSwitch@@W4TSftpBug@@@Z 00000001800039a4 f   UnityBuildCore.cpp.obj
 0001:000029b0       ?SetSCPLsFullTime@TSessionData@@QEAAXW4TAutoSwitch@@@Z 00000001800039b0 f   UnityBuildCore.cpp.obj
 0001:000029cc       ?SetColor@TSessionData@@QEAAX_J@Z 00000001800039cc f   UnityBuildCore.cpp.obj
 0001:000029ec       ?SetTunnel@TSessionData@@QEAAX_N@Z 00000001800039ec f   UnityBuildCore.cpp.obj
 0001:00002a08       ?SetTunnelPortNumber@TSessionData@@QEAAX_J@Z 0000000180003a08 f   UnityBuildCore.cpp.obj
 0001:00002a28       ?SetTunnelLocalPortNumber@TSessionData@@QEAAX_J@Z 0000000180003a28 f   UnityBuildCore.cpp.obj
 0001:00002a48       ?GetTunnelAutoassignLocalPortNumber@TSessionData@@QEBA_NXZ 0000000180003a48 f   UnityBuildCore.cpp.obj
 0001:00002a58       ?SetFtpPasvMode@TSessionData@@QEAAX_N@Z 0000000180003a58 f   UnityBuildCore.cpp.obj
 0001:00002a74       ?SetFtpForcePasvIp@TSessionData@@QEAAXW4TAutoSwitch@@@Z 0000000180003a74 f   UnityBuildCore.cpp.obj
 0001:00002a90       ?SetFtpUseMlsd@TSessionData@@QEAAXW4TAutoSwitch@@@Z 0000000180003a90 f   UnityBuildCore.cpp.obj
 0001:00002aac       ?SetFtpPingInterval@TSessionData@@QEAAX_J@Z 0000000180003aac f   UnityBuildCore.cpp.obj
 0001:00002acc       ?GetFtpPingIntervalDT@TSessionData@@QEBA?AVTDateTime@@XZ 0000000180003acc f   UnityBuildCore.cpp.obj
 0001:00002af0       ?SetFtpPingType@TSessionData@@QEAAXW4TPingType@@@Z 0000000180003af0 f   UnityBuildCore.cpp.obj
 0001:00002b0c       ?SetFtpTransferActiveImmediately@TSessionData@@QEAAXW4TAutoSwitch@@@Z 0000000180003b0c f   UnityBuildCore.cpp.obj
 0001:00002b28       ?SetFtps@TSessionData@@QEAAXW4TFtps@@@Z 0000000180003b28 f   UnityBuildCore.cpp.obj
 0001:00002b44       ?SetMinTlsVersion@TSessionData@@QEAAXW4TTlsVersion@@@Z 0000000180003b44 f   UnityBuildCore.cpp.obj
 0001:00002b60       ?SetMaxTlsVersion@TSessionData@@QEAAXW4TTlsVersion@@@Z 0000000180003b60 f   UnityBuildCore.cpp.obj
 0001:00002b7c       ?SetFtpListAll@TSessionData@@QEAAXW4TAutoSwitch@@@Z 0000000180003b7c f   UnityBuildCore.cpp.obj
 0001:00002b98       ?SetFtpHost@TSessionData@@QEAAXW4TAutoSwitch@@@Z 0000000180003b98 f   UnityBuildCore.cpp.obj
 0001:00002bb4       ?SetFtpDeleteFromCwd@TSessionData@@QEAAXW4TAutoSwitch@@@Z 0000000180003bb4 f   UnityBuildCore.cpp.obj
 0001:00002bd0       ?SetSslSessionReuse@TSessionData@@QEAAX_N@Z 0000000180003bd0 f   UnityBuildCore.cpp.obj
 0001:00002bec       ?SetNotUtf@TSessionData@@QEAAXW4TAutoSwitch@@@Z 0000000180003bec f   UnityBuildCore.cpp.obj
 0001:00002c08       ?SetSFTPMinPacketSize@TSessionData@@QEAAX_J@Z 0000000180003c08 f   UnityBuildCore.cpp.obj
 0001:00002c28       ?SetFtpAllowEmptyPassword@TSessionData@@QEAAX_N@Z 0000000180003c28 f   UnityBuildCore.cpp.obj
 0001:00002c44       ?SetFtpDupFF@TSessionData@@QEAAX_N@Z 0000000180003c44 f   UnityBuildCore.cpp.obj
 0001:00002c60       ?SetFtpUndupFF@TSessionData@@QEAAX_N@Z 0000000180003c60 f   UnityBuildCore.cpp.obj
 0001:00002c7c       ?TranslateFSProtocolNumber@TSessionData@@AEAA?AW4TFSProtocol@@_J@Z 0000000180003c7c f   UnityBuildCore.cpp.obj
 0001:00002cd4       ?TranslateFtpEncryptionNumber@TSessionData@@AEBA?AW4TFtps@@_J@Z 0000000180003cd4 f   UnityBuildCore.cpp.obj
 0001:00002d1c       ?GetIsSshProtocol@@YA_NW4TFSProtocol@@@Z 0000000180003d1c f   UnityBuildCore.cpp.obj
 0001:00002d34       ?GetDefaultPort@@YA_JW4TFSProtocol@@W4TFtps@@@Z 0000000180003d34 f   UnityBuildCore.cpp.obj
 0001:00002d80       ?GetCodePageInfo@@YA_NIAEAU_cpinfoexW@@@Z 0000000180003d80 f   UnityBuildCore.cpp.obj
 0001:00002dd4       ?CreateConfigStorage@TConfiguration@@UEAAPEAVTHierarchicalStorage@@XZ 0000000180003dd4 f   UnityBuildCore.cpp.obj
 0001:00002df0       ?Save@TConfiguration@@QEAAXXZ 0000000180003df0 f   UnityBuildCore.cpp.obj
 0001:00002dfc       ?BeginUpdate@TConfiguration@@QEAAXXZ 0000000180003dfc f   UnityBuildCore.cpp.obj
 0001:00002e2c       ?EndUpdate@TConfiguration@@QEAAXXZ 0000000180003e2c f   UnityBuildCore.cpp.obj
 0001:00002e5c       ?SetTryFtpWhenSshFails@TConfiguration@@QEAAX_N@Z 0000000180003e5c f   UnityBuildCore.cpp.obj
 0001:00002e7c       ?SetParallelDurationThreshold@TConfiguration@@QEAAX_J@Z 0000000180003e7c f   UnityBuildCore.cpp.obj
 0001:00002e9c       ?UpdateActualLogProtocol@TConfiguration@@QEAAXXZ 0000000180003e9c f   UnityBuildCore.cpp.obj
 0001:00002eb4       ?SetLogFileAppend@TConfiguration@@QEAAX_N@Z 0000000180003eb4 f   UnityBuildCore.cpp.obj
 0001:00002ecc       ?SetLogSensitive@TConfiguration@@QEAAX_N@Z 0000000180003ecc f   UnityBuildCore.cpp.obj
 0001:00002ee8       ?SetSessionReopenAuto@TConfiguration@@QEAAX_J@Z 0000000180003ee8 f   UnityBuildCore.cpp.obj
 0001:00002f08       ?SetSessionReopenBackground@TConfiguration@@QEAAX_J@Z 0000000180003f08 f   UnityBuildCore.cpp.obj
 0001:00002f28       ?SetSessionReopenTimeout@TConfiguration@@QEAAX_J@Z 0000000180003f28 f   UnityBuildCore.cpp.obj
 0001:00002f48       ?SetSessionReopenAutoStall@TConfiguration@@QEAAX_J@Z 0000000180003f48 f   UnityBuildCore.cpp.obj
 0001:00002f68       ?SetTunnelLocalPortNumberLow@TConfiguration@@QEAAX_J@Z 0000000180003f68 f   UnityBuildCore.cpp.obj
 0001:00002f88       ?SetTunnelLocalPortNumberHigh@TConfiguration@@QEAAX_J@Z 0000000180003f88 f   UnityBuildCore.cpp.obj
 0001:00002fa8       ?SetCacheDirectoryChangesMaxSize@TConfiguration@@QEAAX_J@Z 0000000180003fa8 f   UnityBuildCore.cpp.obj
 0001:00002fc8       ?SetShowFtpWelcomeMessage@TConfiguration@@QEAAX_N@Z 0000000180003fc8 f   UnityBuildCore.cpp.obj
 0001:00002fe8       ?GetPersistent@TConfiguration@@QEBA_NXZ 0000000180003fe8 f   UnityBuildCore.cpp.obj
 0001:00003000       ?SetSessionReopenAutoMaximumNumberOfRetries@TConfiguration@@QEAAX_J@Z 0000000180004000 f   UnityBuildCore.cpp.obj
 0001:00003020       ??0TCustomFileSystem@@IEAA@W4TObjectClassId@@PEAVTTerminal@@@Z 0000000180004020 f   UnityBuildCore.cpp.obj
 0001:00003040       ?is@TCustomFileSystem@@UEBA_NW4TObjectClassId@@@Z 0000000180004040 f i UnityBuildCore.cpp.obj
 0001:00003054       ??1TCustomFileSystem@@UEAA@XZ 0000000180004054 f   UnityBuildCore.cpp.obj
 0001:00003094       ?Default@TCommandSet@@QEAAXXZ 0000000180004094 f   UnityBuildCore.cpp.obj
 0001:000030ac       ?GetMaxLines@TCommandSet@@QEBAHW4TFSCommand@@@Z 00000001800040ac f   UnityBuildCore.cpp.obj
 0001:000030b8       ?GetMinLines@TCommandSet@@QEBAHW4TFSCommand@@@Z 00000001800040b8 f   UnityBuildCore.cpp.obj
 0001:000030c4       ?GetInteractiveCommand@TCommandSet@@QEBA_NW4TFSCommand@@@Z 00000001800040c4 f   UnityBuildCore.cpp.obj
 0001:000030d0       ?IsCapable@TSCPFileSystem@@UEBA_N_J@Z 00000001800040d0 f   UnityBuildCore.cpp.obj
 0001:00003174       ??0TFileZillaImpl@@QEAA@PEAVTFTPFileSystem@@@Z 0000000180004174 f   UnityBuildCore.cpp.obj
 0001:000031a8       ??1TFTPFileListHelper@@UEAA@XZ 00000001800041a8 f i UnityBuildCore.cpp.obj
 0001:000031d0       ?GetActive@TFTPFileSystem@@UEBA_NXZ 00000001800041d0 f   UnityBuildCore.cpp.obj
 0001:000031d8       ?ResetCaches@TFTPFileSystem@@IEAAXXZ 00000001800041d8 f   UnityBuildCore.cpp.obj
 0001:00003204       ?AnnounceFileListOperation@TFTPFileSystem@@UEAAXXZ 0000000180004204 f   UnityBuildCore.cpp.obj
 0001:0000320c       ?ResetFileTransfer@TFTPFileSystem@@IEAAXXZ 000000018000420c f   UnityBuildCore.cpp.obj
 0001:00003224       ?CanTransferSkipList@TFTPFileSystem@@IEBA_N_J_KPEBVTCopyParamType@@@Z 0000000180004224 f   UnityBuildCore.cpp.obj
 0001:00003248       ?SupportsReadingFile@TFTPFileSystem@@IEBA_NXZ 0000000180004248 f   UnityBuildCore.cpp.obj
 0001:000032a0       ?GetSessionInfo@TFTPFileSystem@@UEBAAEBUTSessionInfo@@XZ 00000001800042a0 f   UnityBuildCore.cpp.obj
 0001:000032a8       ?GetStoredCredentialsTried@TFTPFileSystem@@UEBA_NXZ 00000001800042a8 f   UnityBuildCore.cpp.obj
 0001:000032b0       ?KeepWaitingForReply@TFTPFileSystem@@IEBA_NAEA_K_N@Z 00000001800042b0 f   UnityBuildCore.cpp.obj
 0001:000032e0       ?ResetReply@TFTPFileSystem@@IEAAXXZ 00000001800042e0 f   UnityBuildCore.cpp.obj
 0001:00003328       ?SetLastCode@TFTPFileSystem@@IEAAX_J@Z 0000000180004328 f   UnityBuildCore.cpp.obj
 0001:00003358       ?GetActive@TSFTPFileSystem@@UEBA_NXZ 0000000180004358 f   UnityBuildCore.cpp.obj
 0001:00003358       ?GetActive@TSCPFileSystem@@UEBA_NXZ 0000000180004358 f   UnityBuildCore.cpp.obj
 0001:00003360       ?GetStoredCredentialsTried@TSFTPFileSystem@@UEBA_NXZ 0000000180004360 f   UnityBuildCore.cpp.obj
 0001:00003360       ?GetStoredCredentialsTried@TSCPFileSystem@@UEBA_NXZ 0000000180004360 f   UnityBuildCore.cpp.obj
 0001:0000336c       ?GetSessionData@TSFTPFileSystem@@AEBAPEBVTSessionData@@XZ 000000018000436c f   UnityBuildCore.cpp.obj
 0001:0000337c       ?GetIconIndex@TRemoteFile@@QEBA_JXZ 000000018000437c f   UnityBuildCore.cpp.obj
 0001:0000337c       ?GetFixedPaths@TSFTPFileSystem@@UEBAPEAVTStrings@@XZ 000000018000437c f   UnityBuildCore.cpp.obj
 0001:00003384       ?NeonInitialize@@YAXXZ     0000000180004384 f   UnityBuildCore.cpp.obj
 0001:000033bc       ?NeonFinalize@@YAXXZ       00000001800043bc f   UnityBuildCore.cpp.obj
 0001:000033dc       ?GetActive@TWebDAVFileSystem@@UEBA_NXZ 00000001800043dc f   UnityBuildCore.cpp.obj
 0001:000033e4       ?GetSessionInfo@TWebDAVFileSystem@@UEBAAEBUTSessionInfo@@XZ 00000001800043e4 f   UnityBuildCore.cpp.obj
 0001:000033ec       ?GetFileSystemInfo@TWebDAVFileSystem@@UEAAAEBUTFileSystemInfo@@_N@Z 00000001800043ec f   UnityBuildCore.cpp.obj
 0001:000033f4       ?GetStoredCredentialsTried@TWebDAVFileSystem@@UEBA_NXZ 00000001800043f4 f   UnityBuildCore.cpp.obj
 0001:000033fc       ?IsCapable@TWebDAVFileSystem@@UEBA_N_J@Z 00000001800043fc f   UnityBuildCore.cpp.obj
 0001:00003468       ?ClearNeonError@TWebDAVFileSystem@@IEAAXXZ 0000000180004468 f   UnityBuildCore.cpp.obj
 0001:0000348c       ?GetNeonProp@TWebDAVFileSystem@@KAPEBDPEBUne_prop_result_set_s@@PEBD1@Z 000000018000448c f   UnityBuildCore.cpp.obj
 0001:000034b8       ?InitSslSessionImpl@TWebDAVFileSystem@@IEBAXPEAUssl_st@@@Z 00000001800044b8 f   UnityBuildCore.cpp.obj
 0001:0000354c       ?RequireLockStore@TWebDAVFileSystem@@IEAAXXZ 000000018000454c f   UnityBuildCore.cpp.obj
 0001:00003580       ?GetFtps@TWebDAVFileSystem@@AEBA?AW4TFtps@@XZ 0000000180004580 f   UnityBuildCore.cpp.obj
 0001:0000359c       ?PuttyFinalize@@YAXXZ      000000018000459c f   UnityBuildCore.cpp.obj
 0001:000035dc       schedule_timer             00000001800045dc f   UnityBuildCore.cpp.obj
 0001:000035f4       get_remote_username        00000001800045f4 f   UnityBuildCore.cpp.obj
 0001:00003618       reg_close_winscp_key       0000000180004618 f   UnityBuildCore.cpp.obj
 0001:00003644       ?FreeKey@@YAXPEAUTPrivateKey@@@Z 0000000180004644 f   UnityBuildCore.cpp.obj
 0001:00003664       ?AtObject@TNamedObjectList@@UEBAPEBVTNamedObject@@_J@Z 0000000180004664 f   UnityBuildCore.cpp.obj
 0001:0000366c       ?CloseSubKey@THierarchicalStorage@@UEAAXXZ 000000018000466c f   UnityBuildCore.cpp.obj
 0001:000036b4       ?SetAccessMode@TRegistryStorage@@UEAAXW4TStorageAccessMode@@@Z 00000001800046b4 f   UnityBuildCore.cpp.obj
 0001:000036e4       ?GetCount@TBookmarkList@@QEBA_JXZ 00000001800046e4 f   UnityBuildCore.cpp.obj
 0001:000036e4       ?HandleException@TCustomFarFileSystem@@MEAAXPEAVException@@_K@Z 00000001800046e4 f   UnityBuildMain.cpp.obj
 0001:000036f4       ?CreateNeonSession@@YAPEAUne_session_s@@AEBUne_uri@@@Z 00000001800046f4 f   UnityBuildCore.cpp.obj
 0001:00003704       ne_init_ssl_session        0000000180004704 f   UnityBuildCore.cpp.obj
 0001:0000373c       ?GetIgnoreCancelBeforeFinish@TGUIConfiguration@@QEBA?AVTDateTime@@XZ 000000018000473c f i UnityBuildCore.cpp.obj
 0001:00003764       ?GetBeepOnFinishAfter@TGUIConfiguration@@QEBA?AVTDateTime@@XZ 0000000180004764 f i UnityBuildCore.cpp.obj
 0001:0000378c       ?GUIAssign@TGUICopyParamType@@IEAAXPEBV1@@Z 000000018000478c f   UnityBuildCore.cpp.obj
 0001:000037b4       ??4TCopyParamType@@QEAAAEAV0@AEBV0@@Z 00000001800047b4 f   UnityBuildCore.cpp.obj
 0001:000037b4       ??4TGUICopyParamType@@QEAAAEAV0@AEBV0@@Z 00000001800047b4 f   UnityBuildCore.cpp.obj
 0001:000037cc       ?Reset@TCopyParamList@@AEAAXXZ 00000001800047cc f   UnityBuildCore.cpp.obj
 0001:000037f8       ?Modify@TCopyParamList@@AEAAXXZ 00000001800047f8 f   UnityBuildCore.cpp.obj
 0001:00003824       ?Saved@TGUIConfiguration@@UEAAXXZ 0000000180004824 f   UnityBuildCore.cpp.obj
 0001:00003830       ?GetLocale@TGUIConfiguration@@UEAAKXZ 0000000180004830 f   UnityBuildCore.cpp.obj
 0001:00003838       ?GetResourceModuleCompleteness@TGUIConfiguration@@UEAAHPEAUHINSTANCE__@@@Z 0000000180004838 f   UnityBuildCore.cpp.obj
 0001:00003840       ?SetDefaultCopyParam@TGUIConfiguration@@QEAAXAEBVTGUICopyParamType@@@Z 0000000180004840 f   UnityBuildCore.cpp.obj
 0001:00003868       ?SetQueueTransfersLimit@TGUIConfiguration@@QEAAX_J@Z 0000000180004868 f   UnityBuildCore.cpp.obj
 0001:00003888       ?SetQueueKeepDoneItems@TGUIConfiguration@@QEAAX_N@Z 0000000180004888 f   UnityBuildCore.cpp.obj
 0001:000038a8       ?SetQueueKeepDoneItemsFor@TGUIConfiguration@@QEAAX_J@Z 00000001800048a8 f   UnityBuildCore.cpp.obj
 0001:000038c8       ?WinInitialize@@YAXXZ      00000001800048c8 f   UnityBuildCore.cpp.obj
 0001:000038e8       ??1?$basic_ios@_WU?$char_traits@_W@std@@@std@@UEAA@XZ 00000001800048e8 f i UnityBuildCore.cpp.obj
 0001:000038f8       ??1?$scope_guard@V<lambda1>@?A0xe9eda812@@@detail@Sysutils@@QEAA@XZ 00000001800048f8 f i UnityBuildCore.cpp.obj
 0001:00003918       ??1?$scope_guard@V<lambda2>@?A0xe9eda812@@@detail@Sysutils@@QEAA@XZ 0000000180004918 f i UnityBuildCore.cpp.obj
 0001:00003918       ??1?$scope_guard@V<lambda4>@?A0xe9eda812@@@detail@Sysutils@@QEAA@XZ 0000000180004918 f i UnityBuildCore.cpp.obj
 0001:00003918       ??1?$scope_guard@V<lambda0>@?A0xe9eda812@@@detail@Sysutils@@QEAA@XZ 0000000180004918 f i UnityBuildCore.cpp.obj
 0001:00003918       ??1?$scope_guard@V<lambda5>@?A0xe9eda812@@@detail@Sysutils@@QEAA@XZ 0000000180004918 f i UnityBuildCore.cpp.obj
 0001:00003918       ??1?$scope_guard@V<lambda3>@?A0xe9eda812@@@detail@Sysutils@@QEAA@XZ 0000000180004918 f i UnityBuildCore.cpp.obj
 0001:00003928       ??1?$scope_guard@V<lambda6>@?A0xe9eda812@@@detail@Sysutils@@QEAA@XZ 0000000180004928 f i UnityBuildCore.cpp.obj
 0001:00003938       ??1?$scope_guard@V<lambda7>@?A0xe9eda812@@@detail@Sysutils@@QEAA@XZ 0000000180004938 f i UnityBuildCore.cpp.obj
 0001:00003954       ??1?$scope_guard@V<lambda8>@?A0xe9eda812@@@detail@Sysutils@@QEAA@XZ 0000000180004954 f i UnityBuildCore.cpp.obj
 0001:00003964       ??1?$scope_guard@V<lambda11>@?A0xe9eda812@@@detail@Sysutils@@QEAA@XZ 0000000180004964 f i UnityBuildCore.cpp.obj
 0001:000039b4       ??1?$scope_guard@V<lambda25>@?A0xe9eda812@@@detail@Sysutils@@QEAA@XZ 00000001800049b4 f i UnityBuildCore.cpp.obj
 0001:000039e0       ??1?$scope_guard@V<lambda27>@?A0xe9eda812@@@detail@Sysutils@@QEAA@XZ 00000001800049e0 f i UnityBuildCore.cpp.obj
 0001:000039ec       ??1?$scope_guard@V<lambda34>@?A0xe9eda812@@@detail@Sysutils@@QEAA@XZ 00000001800049ec f i UnityBuildCore.cpp.obj
 0001:00003a04       ??1?$scope_guard@V<lambda47>@?A0xe9eda812@@@detail@Sysutils@@QEAA@XZ 0000000180004a04 f i UnityBuildCore.cpp.obj
 0001:00003a18       ??1?$scope_guard@V<lambda57>@?A0xe9eda812@@@detail@Sysutils@@QEAA@XZ 0000000180004a18 f i UnityBuildCore.cpp.obj
 0001:00003a34       ??1?$scope_guard@V<lambda10>@?A0xe9eda812@@@detail@Sysutils@@QEAA@XZ 0000000180004a34 f i UnityBuildCore.cpp.obj
 0001:00003a34       ??1?$scope_guard@V<lambda192>@?A0xe9eda812@@@detail@Sysutils@@QEAA@XZ 0000000180004a34 f i UnityBuildCore.cpp.obj
 0001:00003a34       ??1?$scope_guard@V<lambda226>@?A0xe9eda812@@@detail@Sysutils@@QEAA@XZ 0000000180004a34 f i UnityBuildCore.cpp.obj
 0001:00003a34       ??1?$scope_guard@V<lambda77>@?A0xe9eda812@@@detail@Sysutils@@QEAA@XZ 0000000180004a34 f i UnityBuildCore.cpp.obj
 0001:00003a34       ??1?$scope_guard@V<lambda315>@?A0xe9eda812@@@detail@Sysutils@@QEAA@XZ 0000000180004a34 f i UnityBuildCore.cpp.obj
 0001:00003a34       ??1?$scope_guard@V<lambda9>@?A0xe9eda812@@@detail@Sysutils@@QEAA@XZ 0000000180004a34 f i UnityBuildCore.cpp.obj
 0001:00003a34       ??1?$scope_guard@V<lambda283>@?A0xe9eda812@@@detail@Sysutils@@QEAA@XZ 0000000180004a34 f i UnityBuildCore.cpp.obj
 0001:00003a3c       ??1?$scope_guard@V<lambda83>@?A0xe9eda812@@@detail@Sysutils@@QEAA@XZ 0000000180004a3c f i UnityBuildCore.cpp.obj
 0001:00003a3c       ??1?$scope_guard@V<lambda100>@?A0xe9eda812@@@detail@Sysutils@@QEAA@XZ 0000000180004a3c f i UnityBuildCore.cpp.obj
 0001:00003a44       ??1?$scope_guard@V<lambda110>@?A0xe9eda812@@@detail@Sysutils@@QEAA@XZ 0000000180004a44 f i UnityBuildCore.cpp.obj
 0001:00003a70       ??1?$scope_guard@V<lambda116>@?A0xe9eda812@@@detail@Sysutils@@QEAA@XZ 0000000180004a70 f i UnityBuildCore.cpp.obj
 0001:00003a78       ??1?$scope_guard@V<lambda118>@?A0xe9eda812@@@detail@Sysutils@@QEAA@XZ 0000000180004a78 f i UnityBuildCore.cpp.obj
 0001:00003a84       ??1?$scope_guard@V<lambda128>@?A0xe9eda812@@@detail@Sysutils@@QEAA@XZ 0000000180004a84 f i UnityBuildCore.cpp.obj
 0001:00003a90       ??1?$scope_guard@V<lambda130>@?A0xe9eda812@@@detail@Sysutils@@QEAA@XZ 0000000180004a90 f i UnityBuildCore.cpp.obj
 0001:00003a9c       ??1?$scope_guard@V<lambda132>@?A0xe9eda812@@@detail@Sysutils@@QEAA@XZ 0000000180004a9c f i UnityBuildCore.cpp.obj
 0001:00003aa8       ??1?$scope_guard@V<lambda134>@?A0xe9eda812@@@detail@Sysutils@@QEAA@XZ 0000000180004aa8 f i UnityBuildCore.cpp.obj
 0001:00003ab4       ??1?$scope_guard@V<lambda136>@?A0xe9eda812@@@detail@Sysutils@@QEAA@XZ 0000000180004ab4 f i UnityBuildCore.cpp.obj
 0001:00003ac0       ??1?$scope_guard@V<lambda72>@?A0x3bbb5945@@@detail@Sysutils@@QEAA@XZ 0000000180004ac0 f i UnityBuildMain.cpp.obj
 0001:00003ac0       ??1?$scope_guard@V<lambda159>@?A0xe9eda812@@@detail@Sysutils@@QEAA@XZ 0000000180004ac0 f i UnityBuildCore.cpp.obj
 0001:00003ac0       ??1?$scope_guard@V<lambda156>@?A0xe9eda812@@@detail@Sysutils@@QEAA@XZ 0000000180004ac0 f i UnityBuildCore.cpp.obj
 0001:00003ac0       ??1?$scope_guard@V<lambda360>@?A0xe9eda812@@@detail@Sysutils@@QEAA@XZ 0000000180004ac0 f i UnityBuildCore.cpp.obj
 0001:00003ac0       ??1?$scope_guard@V<lambda157>@?A0xe9eda812@@@detail@Sysutils@@QEAA@XZ 0000000180004ac0 f i UnityBuildCore.cpp.obj
 0001:00003ac0       ??1?$scope_guard@V<lambda71>@?A0x3bbb5945@@@detail@Sysutils@@QEAA@XZ 0000000180004ac0 f i UnityBuildMain.cpp.obj
 0001:00003ac0       ??1?$scope_guard@V<lambda362>@?A0xe9eda812@@@detail@Sysutils@@QEAA@XZ 0000000180004ac0 f i UnityBuildCore.cpp.obj
 0001:00003ac0       ??1?$scope_guard@V<lambda353>@?A0xe9eda812@@@detail@Sysutils@@QEAA@XZ 0000000180004ac0 f i UnityBuildCore.cpp.obj
 0001:00003ac0       ??1?$scope_guard@V<lambda363>@?A0xe9eda812@@@detail@Sysutils@@QEAA@XZ 0000000180004ac0 f i UnityBuildCore.cpp.obj
 0001:00003ac0       ??1?$scope_guard@V<lambda358>@?A0xe9eda812@@@detail@Sysutils@@QEAA@XZ 0000000180004ac0 f i UnityBuildCore.cpp.obj
 0001:00003ac0       ??1?$scope_guard@V<lambda355>@?A0xe9eda812@@@detail@Sysutils@@QEAA@XZ 0000000180004ac0 f i UnityBuildCore.cpp.obj
 0001:00003ac0       ??1?$scope_guard@V<lambda357>@?A0xe9eda812@@@detail@Sysutils@@QEAA@XZ 0000000180004ac0 f i UnityBuildCore.cpp.obj
 0001:00003ac0       ??1?$scope_guard@V<lambda140>@?A0xe9eda812@@@detail@Sysutils@@QEAA@XZ 0000000180004ac0 f i UnityBuildCore.cpp.obj
 0001:00003ac0       ??1?$scope_guard@V<lambda365>@?A0xe9eda812@@@detail@Sysutils@@QEAA@XZ 0000000180004ac0 f i UnityBuildCore.cpp.obj
 0001:00003ac0       ??1?$scope_guard@V<lambda160>@?A0xe9eda812@@@detail@Sysutils@@QEAA@XZ 0000000180004ac0 f i UnityBuildCore.cpp.obj
 0001:00003ad0       ??1?$scope_guard@V<lambda161>@?A0xe9eda812@@@detail@Sysutils@@QEAA@XZ 0000000180004ad0 f i UnityBuildCore.cpp.obj
 0001:00003aec       ??1?$scope_guard@V<lambda176>@?A0xe9eda812@@@detail@Sysutils@@QEAA@XZ 0000000180004aec f i UnityBuildCore.cpp.obj
 0001:00003af8       ??1?$scope_guard@V<lambda184>@?A0xe9eda812@@@detail@Sysutils@@QEAA@XZ 0000000180004af8 f i UnityBuildCore.cpp.obj
 0001:00003b24       ??1?$scope_guard@V<lambda235>@?A0xe9eda812@@@detail@Sysutils@@QEAA@XZ 0000000180004b24 f i UnityBuildCore.cpp.obj
 0001:00003b24       ??1?$scope_guard@V<lambda237>@?A0xe9eda812@@@detail@Sysutils@@QEAA@XZ 0000000180004b24 f i UnityBuildCore.cpp.obj
 0001:00003b44       ??1?$scope_guard@V<lambda239>@?A0xe9eda812@@@detail@Sysutils@@QEAA@XZ 0000000180004b44 f i UnityBuildCore.cpp.obj
 0001:00003b4c       ??1?$scope_guard@V<lambda249>@?A0xe9eda812@@@detail@Sysutils@@QEAA@XZ 0000000180004b4c f i UnityBuildCore.cpp.obj
 0001:00003b78       ??1?$scope_guard@V<lambda270>@?A0xe9eda812@@@detail@Sysutils@@QEAA@XZ 0000000180004b78 f i UnityBuildCore.cpp.obj
 0001:00003b78       ??1?$scope_guard@V<lambda109>@?A0xe9eda812@@@detail@Sysutils@@QEAA@XZ 0000000180004b78 f i UnityBuildCore.cpp.obj
 0001:00003ba4       ??1?$scope_guard@V<lambda298>@?A0xe9eda812@@@detail@Sysutils@@QEAA@XZ 0000000180004ba4 f i UnityBuildCore.cpp.obj
 0001:00003ba4       ??1?$scope_guard@V<lambda260>@?A0xe9eda812@@@detail@Sysutils@@QEAA@XZ 0000000180004ba4 f i UnityBuildCore.cpp.obj
 0001:00003ba4       ??1?$scope_guard@V<lambda272>@?A0xe9eda812@@@detail@Sysutils@@QEAA@XZ 0000000180004ba4 f i UnityBuildCore.cpp.obj
 0001:00003bd4       ??1?$scope_guard@V<lambda309>@?A0xe9eda812@@@detail@Sysutils@@QEAA@XZ 0000000180004bd4 f i UnityBuildCore.cpp.obj
 0001:00003c14       ??1?$scope_guard@V<lambda329>@?A0xe9eda812@@@detail@Sysutils@@QEAA@XZ 0000000180004c14 f i UnityBuildCore.cpp.obj
 0001:00003c30       ??1?$scope_guard@V<lambda331>@?A0xe9eda812@@@detail@Sysutils@@QEAA@XZ 0000000180004c30 f i UnityBuildCore.cpp.obj
 0001:00003c3c       ??1?$scope_guard@V<lambda334>@?A0xe9eda812@@@detail@Sysutils@@QEAA@XZ 0000000180004c3c f i UnityBuildCore.cpp.obj
 0001:00003c64       ??1?$scope_guard@V<lambda341>@?A0xe9eda812@@@detail@Sysutils@@QEAA@XZ 0000000180004c64 f i UnityBuildCore.cpp.obj
 0001:00003c84       ??1?$scope_guard@V<lambda351>@?A0xe9eda812@@@detail@Sysutils@@QEAA@XZ 0000000180004c84 f i UnityBuildCore.cpp.obj
 0001:00003cd8       ??1?$scope_guard@V<lambda371>@?A0xe9eda812@@@detail@Sysutils@@QEAA@XZ 0000000180004cd8 f i UnityBuildCore.cpp.obj
 0001:00003ce4       ??_G?$Buffer@_W@fmt@@UEAAPEAXI@Z 0000000180004ce4 f i UnityBuildCore.cpp.obj
 0001:00003ce4       ??_E?$Buffer@_W@fmt@@UEAAPEAXI@Z 0000000180004ce4 f i UnityBuildCore.cpp.obj
 0001:00003ce4       ??_G?$Buffer@D@fmt@@UEAAPEAXI@Z 0000000180004ce4 f i UnityBuildCore.cpp.obj
 0001:00003ce4       ??_E?$Buffer@D@fmt@@UEAAPEAXI@Z 0000000180004ce4 f i UnityBuildCore.cpp.obj
 0001:00003d0c       ??_E?$BasicWriter@D@fmt@@UEAAPEAXI@Z 0000000180004d0c f i UnityBuildCore.cpp.obj
 0001:00003d0c       ??_G?$BasicWriter@D@fmt@@UEAAPEAXI@Z 0000000180004d0c f i UnityBuildCore.cpp.obj
 0001:00003d0c       ??_G?$BasicWriter@_W@fmt@@UEAAPEAXI@Z 0000000180004d0c f i UnityBuildCore.cpp.obj
 0001:00003d0c       ??_E?$BasicWriter@_W@fmt@@UEAAPEAXI@Z 0000000180004d0c f i UnityBuildCore.cpp.obj
 0001:00003d34       ??_D?$basic_ostream@_WU?$char_traits@_W@std@@@std@@QEAAXXZ 0000000180004d34 f i UnityBuildCore.cpp.obj
 0001:00003d5c       ??1_Sentry_base@?$basic_ostream@_WU?$char_traits@_W@std@@@std@@QEAA@XZ 0000000180004d5c f i UnityBuildCore.cpp.obj
 0001:00003d80       ?StringLength@?$CMSimpleStringT@_W@@SAHPEB_W@Z 0000000180004d80 f i UnityBuildCore.cpp.obj
 0001:00003d80       ?StringLength@?$CMSimpleStringT@D@@SAHPEB_W@Z 0000000180004d80 f i UnityBuildCore.cpp.obj
 0001:00003da8       ?StringLength@?$CMSimpleStringT@_W@@SAHPEBD@Z 0000000180004da8 f i UnityBuildCore.cpp.obj
 0001:00003da8       ?StringLength@?$CMSimpleStringT@E@@SAHPEBD@Z 0000000180004da8 f i UnityBuildCore.cpp.obj
 0001:00003da8       ?StringLength@?$CMSimpleStringT@D@@SAHPEBD@Z 0000000180004da8 f i UnityBuildCore.cpp.obj
 0001:00003dd0       ??$copy@_K@internal@rde@@YAXPEB_K0PEA_KU?$int_to_type@$0A@@1@@Z 0000000180004dd0 f i UnityBuildCore.cpp.obj
 0001:00003dd0       ??$copy@_J@internal@rde@@YAXPEB_J0PEA_JU?$int_to_type@$0A@@1@@Z 0000000180004dd0 f i UnityBuildCore.cpp.obj
 0001:00003dec       ??0bad_alloc@std@@QEAA@AEBV01@@Z 0000000180004dec f i UnityBuildCore.cpp.obj
 0001:00003e10       ?CopyChars@?$CMSimpleStringT@_W@@SAXPEA_W_KPEB_WH@Z 0000000180004e10 f i UnityBuildCore.cpp.obj
 0001:00003e20       ?Attach@?$CMSimpleStringT@D@@AEAAXPEAUCMStringData@@@Z 0000000180004e20 f i UnityBuildCore.cpp.obj
 0001:00003e20       ?Attach@?$CMSimpleStringT@_W@@AEAAXPEAUCMStringData@@@Z 0000000180004e20 f i UnityBuildCore.cpp.obj
 0001:00003e20       ?Attach@?$CMSimpleStringT@E@@AEAAXPEAUCMStringData@@@Z 0000000180004e20 f i UnityBuildCore.cpp.obj
 0001:00003e28       ?SetLength@?$CMSimpleStringT@_W@@AEAAXH@Z 0000000180004e28 f i UnityBuildCore.cpp.obj
 0001:00003e3c       ?CopyChars@?$CMSimpleStringT@D@@SAXPEAD_KPEBDH@Z 0000000180004e3c f i UnityBuildCore.cpp.obj
 0001:00003e3c       ?CopyChars@?$CMSimpleStringT@E@@SAXPEAD_KPEBDH@Z 0000000180004e3c f i UnityBuildCore.cpp.obj
 0001:00003e44       ?SetLength@?$CMSimpleStringT@E@@AEAAXH@Z 0000000180004e44 f i UnityBuildCore.cpp.obj
 0001:00003e44       ?SetLength@?$CMSimpleStringT@D@@AEAAXH@Z 0000000180004e44 f i UnityBuildCore.cpp.obj
 0001:00003e58       ??$destruct_n@VTRemoteToken@@@internal@rde@@YAXPEAVTRemoteToken@@_KU?$int_to_type@$0A@@1@@Z 0000000180004e58 f i UnityBuildCore.cpp.obj
 0001:00003e58       ??$destruct_n@UTOption@TOptions@@@internal@rde@@YAXPEAUTOption@TOptions@@_KU?$int_to_type@$0A@@1@@Z 0000000180004e58 f i UnityBuildCore.cpp.obj
 0001:00003e8c       ??$destruct_n@UTMask@TFileMasks@@@internal@rde@@YAXPEAUTMask@TFileMasks@@_KU?$int_to_type@$0A@@1@@Z 0000000180004e8c f i UnityBuildCore.cpp.obj
 0001:00003ec4       ??$copy_construct_n@_K@internal@rde@@YAXPEB_K_KPEA_KU?$int_to_type@$0A@@1@@Z 0000000180004ec4 f i UnityBuildCore.cpp.obj
 0001:00003ec4       ??$copy_construct_n@_J@internal@rde@@YAXPEB_J_KPEA_JU?$int_to_type@$0A@@1@@Z 0000000180004ec4 f i UnityBuildCore.cpp.obj
 0001:00003ee4       ??$copy_n@_K@internal@rde@@YAXPEB_K_KPEA_KU?$int_to_type@$0A@@1@@Z 0000000180004ee4 f i UnityBuildCore.cpp.obj
 0001:00003f40       ??$copy_construct_n@_N@internal@rde@@YAXPEB_N_KPEA_NU?$int_to_type@$00@1@@Z 0000000180004f40 f i UnityBuildCore.cpp.obj
 0001:00003f40       ??$copy_construct_n@D@internal@rde@@YAXPEBD_KPEADU?$int_to_type@$00@1@@Z 0000000180004f40 f i UnityBuildCore.cpp.obj
 0001:00003f40       ??$copy_n@D@internal@rde@@YAXPEBD_KPEADU?$int_to_type@$00@1@@Z 0000000180004f40 f i UnityBuildCore.cpp.obj
 0001:00003f40       ??$copy_n@_N@internal@rde@@YAXPEB_N_KPEA_NU?$int_to_type@$00@1@@Z 0000000180004f40 f i UnityBuildCore.cpp.obj
 0001:00003f40       ??$copy_construct_n@E@internal@rde@@YAXPEBE_KPEAEU?$int_to_type@$00@1@@Z 0000000180004f40 f i UnityBuildCore.cpp.obj
 0001:00003f40       ??$copy_n@E@internal@rde@@YAXPEBE_KPEAEU?$int_to_type@$00@1@@Z 0000000180004f40 f i UnityBuildCore.cpp.obj
 0001:00003f54       ?CloneData@?$CMSimpleStringT@E@@CAPEAUCMStringData@@PEAU2@@Z 0000000180004f54 f i UnityBuildCore.cpp.obj
 0001:00003f54       ?CloneData@?$CMSimpleStringT@D@@CAPEAUCMStringData@@PEAU2@@Z 0000000180004f54 f i UnityBuildCore.cpp.obj
 0001:00003f54       ?CloneData@?$CMSimpleStringT@_W@@CAPEAUCMStringData@@PEAU2@@Z 0000000180004f54 f i UnityBuildCore.cpp.obj
 0001:00003f64       ?parse_flags@?$PrintfFormatter@_WV?$PrintfArgFormatter@_W@fmt@@@fmt@@AEAAXAEAUFormatSpec@2@AEAPEB_W@Z 0000000180004f64 f i UnityBuildCore.cpp.obj
 0001:00003fbc       ??$construct@W4TKex@@@internal@rde@@YAXPEAW4TKex@@U?$int_to_type@$0A@@1@@Z 0000000180004fbc f i UnityBuildCore.cpp.obj
 0001:00003fbc       ??$construct@W4TGssLib@@@internal@rde@@YAXPEAW4TGssLib@@U?$int_to_type@$0A@@1@@Z 0000000180004fbc f i UnityBuildCore.cpp.obj
 0001:00003fbc       ??$construct@W4TCipher@@@internal@rde@@YAXPEAW4TCipher@@U?$int_to_type@$0A@@1@@Z 0000000180004fbc f i UnityBuildCore.cpp.obj
 0001:00003fc8       ??$copy_construct_n@W4TGssLib@@@internal@rde@@YAXPEBW4TGssLib@@_KPEAW42@U?$int_to_type@$0A@@1@@Z 0000000180004fc8 f i UnityBuildCore.cpp.obj
 0001:00003fc8       ??$copy_construct_n@W4TKex@@@internal@rde@@YAXPEBW4TKex@@_KPEAW42@U?$int_to_type@$0A@@1@@Z 0000000180004fc8 f i UnityBuildCore.cpp.obj
 0001:00003fc8       ??$copy_construct_n@W4TCipher@@@internal@rde@@YAXPEBW4TCipher@@_KPEAW42@U?$int_to_type@$0A@@1@@Z 0000000180004fc8 f i UnityBuildCore.cpp.obj
 0001:00003fe8       ??$copy_n@W4TCipher@@@internal@rde@@YAXPEBW4TCipher@@_KPEAW42@U?$int_to_type@$0A@@1@@Z 0000000180004fe8 f i UnityBuildCore.cpp.obj
 0001:00003fe8       ??$copy_n@W4TKex@@@internal@rde@@YAXPEBW4TKex@@_KPEAW42@U?$int_to_type@$0A@@1@@Z 0000000180004fe8 f i UnityBuildCore.cpp.obj
 0001:00003fe8       ??$copy_n@W4TGssLib@@@internal@rde@@YAXPEBW4TGssLib@@_KPEAW42@U?$int_to_type@$0A@@1@@Z 0000000180004fe8 f i UnityBuildCore.cpp.obj
 0001:00004040       ?CopyCharsOverlapped@?$CMSimpleStringT@_W@@SAXPEA_W_KPEB_WH@Z 0000000180005040 f i UnityBuildCore.cpp.obj
 0001:00004050       ?Reallocate@?$CMSimpleStringT@_W@@AEAAXH@Z 0000000180005050 f i UnityBuildCore.cpp.obj
 0001:0000408c       ?CopyCharsOverlapped@?$CMSimpleStringT@E@@SAXPEAD_KPEBDH@Z 000000018000508c f i UnityBuildCore.cpp.obj
 0001:0000408c       ?CopyCharsOverlapped@?$CMSimpleStringT@D@@SAXPEAD_KPEBDH@Z 000000018000508c f i UnityBuildCore.cpp.obj
 0001:00004094       ?Reallocate@?$CMSimpleStringT@D@@AEAAXH@Z 0000000180005094 f i UnityBuildCore.cpp.obj
 0001:00004094       ?Reallocate@?$CMSimpleStringT@E@@AEAAXH@Z 0000000180005094 f i UnityBuildCore.cpp.obj
 0001:000040d0       ??_ETCustomFileSystem@@WBA@EAAPEAXI@Z 00000001800050d0 f i UnityBuildCore.cpp.obj
 0001:000040dc       nbcore_free                00000001800050dc f   UnityBuildCore.cpp.obj
 0001:00004110       ?nbstr_free@@YAXPEAUCMStringData@@@Z 0000000180005110 f   UnityBuildCore.cpp.obj
 0001:00004118       ?nbstr_getNil@@YAPEAUCMStringData@@XZ 0000000180005118 f   UnityBuildCore.cpp.obj
 0001:00004158       ?nbstr_release@@YAXPEAUCMStringData@@@Z 0000000180005158 f   UnityBuildCore.cpp.obj
 0001:00004174       ?StrCmpNNI@nb@@YA_JPEB_W_J01@Z 0000000180005174 f   UnityBuildCore.cpp.obj
 0001:000041a0       ?StrLIComp@nb@@YA_JPEB_W0_J@Z 00000001800051a0 f   UnityBuildCore.cpp.obj
 0001:000041b4       ?isnegative@?$numeric_limits@UDummyInt@internal@fmt@@@std@@SA_NN@Z 00000001800051b4 f i UnityBuildCore.cpp.obj
 0001:00004224       ?do_is@?$ctype@_W@std@@MEBA_NF_W@Z 0000000180005224 f i UnityBuildCore.cpp.obj
 0001:00004248       ?do_is@?$ctype@_W@std@@MEBAPEB_WPEB_W0PEAF@Z 0000000180005248 f i UnityBuildCore.cpp.obj
 0001:00004264       ?do_scan_is@?$ctype@_W@std@@MEBAPEB_WFPEB_W0@Z 0000000180005264 f i UnityBuildCore.cpp.obj
 0001:000042c0       ?do_scan_not@?$ctype@_W@std@@MEBAPEB_WFPEB_W0@Z 00000001800052c0 f i UnityBuildCore.cpp.obj
 0001:0000431c       ?do_tolower@?$ctype@_W@std@@MEBA_W_W@Z 000000018000531c f i UnityBuildCore.cpp.obj
 0001:0000432c       ?do_tolower@?$ctype@_W@std@@MEBAPEB_WPEA_WPEB_W@Z 000000018000532c f i UnityBuildCore.cpp.obj
 0001:00004374       ?do_toupper@?$ctype@_W@std@@MEBA_W_W@Z 0000000180005374 f i UnityBuildCore.cpp.obj
 0001:00004384       ?do_toupper@?$ctype@_W@std@@MEBAPEB_WPEA_WPEB_W@Z 0000000180005384 f i UnityBuildCore.cpp.obj
 0001:000043cc       ?do_widen@?$ctype@_W@std@@MEBA_WD@Z 00000001800053cc f i UnityBuildCore.cpp.obj
 0001:00004414       ?do_widen@?$ctype@_W@std@@MEBAPEBDPEBD0PEA_W@Z 0000000180005414 f i UnityBuildCore.cpp.obj
 0001:0000448c       ?do_narrow@?$ctype@_W@std@@MEBAD_WD@Z 000000018000548c f i UnityBuildCore.cpp.obj
 0001:000044c4       ?do_narrow@?$ctype@_W@std@@MEBAPEB_WPEB_W0DPEAD@Z 00000001800054c4 f i UnityBuildCore.cpp.obj
 0001:0000453c       ??_G?$ctype@_W@std@@MEAAPEAXI@Z 000000018000553c f i UnityBuildCore.cpp.obj
 0001:0000453c       ??_E?$ctype@_W@std@@MEAAPEAXI@Z 000000018000553c f i UnityBuildCore.cpp.obj
 0001:0000458c       ?clear@ios_base@std@@QEAAXH_N@Z 000000018000558c f i UnityBuildCore.cpp.obj
 0001:0000469c       ??0system_error@std@@QEAA@AEBV01@@Z 000000018000569c f i UnityBuildCore.cpp.obj
 0001:000046d4       ?_Init@ios_base@std@@IEAAXXZ 00000001800056d4 f i UnityBuildCore.cpp.obj
 0001:00004778       ??0failure@ios_base@std@@QEAA@AEBV012@@Z 0000000180005778 f i UnityBuildCore.cpp.obj
 0001:000047b8       ??0FormatError@fmt@@QEAA@AEBV01@@Z 00000001800057b8 f i UnityBuildCore.cpp.obj
 0001:000047dc       ??_ETSafeHandleStream@@UEAAPEAXI@Z 00000001800057dc f i UnityBuildCore.cpp.obj
 0001:000047dc       ??_GTSafeHandleStream@@UEAAPEAXI@Z 00000001800057dc f i UnityBuildCore.cpp.obj
 0001:00004808       ?GetCount@TList@@QEBA_JXZ  0000000180005808 f   UnityBuildCore.cpp.obj
 0001:00004818       ?GetCount@TStringList@@UEBA_JXZ 0000000180005818 f   UnityBuildCore.cpp.obj
 0001:00004828       ??8TDateTime@@QEBA_NAEBV0@@Z 0000000180005828 f   UnityBuildCore.cpp.obj
 0001:00004838       ??_ETStream@@UEAAPEAXI@Z   0000000180005838 f i UnityBuildCore.cpp.obj
 0001:00004838       ??_GTPersistent@@UEAAPEAXI@Z 0000000180005838 f i UnityBuildCore.cpp.obj
 0001:00004838       ??_GTStream@@UEAAPEAXI@Z   0000000180005838 f i UnityBuildCore.cpp.obj
 0001:00004838       ??_ETPersistent@@UEAAPEAXI@Z 0000000180005838 f i UnityBuildCore.cpp.obj
 0001:0000485c       ??_ETHandleStream@@UEAAPEAXI@Z 000000018000585c f i UnityBuildCore.cpp.obj
 0001:0000485c       ??_GTHandleStream@@UEAAPEAXI@Z 000000018000585c f i UnityBuildCore.cpp.obj
 0001:00004880       ?Seek@THandleStream@@UEAA_J_JH@Z 0000000180005880 f   UnityBuildCore.cpp.obj
 0001:0000488c       ?SetCapacity@TMemoryStream@@AEAAX_J@Z 000000018000588c f   UnityBuildCore.cpp.obj
 0001:000048c4       ?Write@TMemoryStream@@UEAA_JPEBX_J@Z 00000001800058c4 f   UnityBuildCore.cpp.obj
 0001:00004944       ?GetKeyInfo@TRegistry@@AEBA_NAEAUTRegKeyInfo@@@Z 0000000180005944 f   UnityBuildCore.cpp.obj
 0001:000049cc       ??0TGlobals@@QEAA@XZ       00000001800059cc f   UnityBuildCore.cpp.obj
 0001:00004a00       ??_ETGlobals@@W7EAAPEAXI@Z 0000000180005a00 f i UnityBuildCore.cpp.obj
 0001:00004a0c       ??_ETGlobals@@UEAAPEAXI@Z  0000000180005a0c f i UnityBuildCore.cpp.obj
 0001:00004a0c       ??_GTGlobals@@UEAAPEAXI@Z  0000000180005a0c f i UnityBuildCore.cpp.obj
 0001:00004a30       ?random@@YAHH@Z            0000000180005a30 f   UnityBuildCore.cpp.obj
 0001:00004a68       ?DateTimeToTimeStamp@Sysutils@@YA?AUTTimeStamp@@AEBVTDateTime@@@Z 0000000180005a68 f   UnityBuildCore.cpp.obj
 0001:00004ab4       ?FileRead@Sysutils@@YA_JPEAX0_J@Z 0000000180005ab4 f   UnityBuildCore.cpp.obj
 0001:00004ae4       ?FileWrite@Sysutils@@YA_JPEAXPEBX_J@Z 0000000180005ae4 f   UnityBuildCore.cpp.obj
 0001:00004ccc       ?DecodeDate@Sysutils@@YAXAEBVTDateTime@@AEAG11@Z 0000000180005ccc f   UnityBuildCore.cpp.obj
 0001:00004ce4       ?DecodeTime@Sysutils@@YAXAEBVTDateTime@@AEAG111@Z 0000000180005ce4 f   UnityBuildCore.cpp.obj
 0001:00004eac       ?DayOfWeek@Sysutils@@YAIAEBVTDateTime@@@Z 0000000180005eac f   UnityBuildCore.cpp.obj
 0001:00004f98       ??1TLibraryLoader@@UEAA@XZ 0000000180005f98 f   UnityBuildCore.cpp.obj
 0001:00004fe4       ??0TFileBuffer@@QEAA@XZ    0000000180005fe4 f   UnityBuildCore.cpp.obj
 0001:00005024       ??_ETFileBuffer@@UEAAPEAXI@Z 0000000180006024 f i UnityBuildCore.cpp.obj
 0001:00005024       ??_ETSynchronizeOptions@@UEAAPEAXI@Z 0000000180006024 f i UnityBuildCore.cpp.obj
 0001:00005024       ??_GTFileBuffer@@UEAAPEAXI@Z 0000000180006024 f i UnityBuildCore.cpp.obj
 0001:00005024       ??_GTSynchronizeOptions@@UEAAPEAXI@Z 0000000180006024 f i UnityBuildCore.cpp.obj
 0001:00005054       ??0TGuard@@QEAA@AEBVTCriticalSection@@@Z 0000000180006054 f   UnityBuildCore.cpp.obj
 0001:00005074       ??1TGuard@@QEAA@XZ         0000000180006074 f   UnityBuildCore.cpp.obj
 0001:0000507c       ??0TUnguard@@QEAA@AEAVTCriticalSection@@@Z 000000018000607c f   UnityBuildCore.cpp.obj
 0001:0000509c       ??1TUnguard@@QEAA@XZ       000000018000609c f   UnityBuildCore.cpp.obj
 0001:000050a4       ??_UTinyLog@tinylog@@SAPEAX_K@Z 00000001800060a4 f i tinylog:TinyLog.cpp.obj
 0001:000050a4       ??2TinyLog@tinylog@@SAPEAX_K@Z 00000001800060a4 f i UnityBuildCore.cpp.obj
 0001:000050b4       ?GetCount@TRemoteTokenList@@QEBA_JXZ 00000001800060b4 f   UnityBuildCore.cpp.obj
 0001:000050dc       ?GetIsDirectory@TRemoteFile@@QEBA_NXZ 00000001800060dc f   UnityBuildCore.cpp.obj
 0001:000050fc       ?GetIsParentDirectory@TRemoteFile@@QEBA_NXZ 00000001800060fc f   UnityBuildCore.cpp.obj
 0001:00005128       ?GetIsThisDirectory@TRemoteFile@@QEBA_NXZ 0000000180006128 f   UnityBuildCore.cpp.obj
 0001:00005154       ?GetIsTimeShiftingApplicable@TRemoteFile@@QEBA_NXZ 0000000180006154 f   UnityBuildCore.cpp.obj
 0001:0000515c       ?ShiftTimeInSeconds@TRemoteFile@@QEAAX_J@Z 000000018000615c f   UnityBuildCore.cpp.obj
 0001:00005184       ?GetIsEmptyPrivate@TRemoteDirectoryCache@@AEBA_NXZ 0000000180006184 f   UnityBuildCore.cpp.obj
 0001:000051cc       ?GetNumber@TRights@@QEBAGXZ 00000001800061cc f   UnityBuildCore.cpp.obj
 0001:000051d4       ?GetRight@TRights@@QEBA_NW4TRight@1@@Z 00000001800061d4 f   UnityBuildCore.cpp.obj
 0001:000051e8       ?GetReadOnly@TRights@@QEBA_NXZ 00000001800061e8 f   UnityBuildCore.cpp.obj
 0001:00005230       ??BTRights@@QEBAGXZ        0000000180006230 f   UnityBuildCore.cpp.obj
 0001:00005238       ??_GTOverwriteFileParams@@UEAAPEAXI@Z 0000000180006238 f i UnityBuildCore.cpp.obj
 0001:00005238       ??_ETOverwriteFileParams@@UEAAPEAXI@Z 0000000180006238 f i UnityBuildCore.cpp.obj
 0001:00005268       ??_GTCustomFileSystem@@UEAAPEAXI@Z 0000000180006268 f i UnityBuildCore.cpp.obj
 0001:00005268       ??_ETCustomFileSystem@@UEAAPEAXI@Z 0000000180006268 f i UnityBuildCore.cpp.obj
 0001:00005298       ?GetCount@TSynchronizeChecklist@@QEBA_JXZ 0000000180006298 f   UnityBuildCore.cpp.obj
 0001:000052a4       ?InitTunnelThread@TTunnelThread@@UEAAXXZ 00000001800062a4 f   UnityBuildCore.cpp.obj
 0001:000052c4       ??_GTCallbackGuard@@UEAAPEAXI@Z 00000001800062c4 f i UnityBuildCore.cpp.obj
 0001:000052c4       ??_ETCallbackGuard@@UEAAPEAXI@Z 00000001800062c4 f i UnityBuildCore.cpp.obj
 0001:0000533c       ??_GTRobustOperationLoop@@UEAAPEAXI@Z 000000018000633c f i UnityBuildCore.cpp.obj
 0001:0000533c       ??_ETRobustOperationLoop@@UEAAPEAXI@Z 000000018000633c f i UnityBuildCore.cpp.obj
 0001:00005364       ?GetCount@TCollectedFileList@@QEBA_JXZ 0000000180006364 f   UnityBuildCore.cpp.obj
 0001:0000538c       ?AddClient@TParallelOperation@@QEAAXXZ 000000018000638c f   UnityBuildCore.cpp.obj
 0001:000053c0       ?RemoveClient@TParallelOperation@@QEAAXXZ 00000001800063c0 f   UnityBuildCore.cpp.obj
 0001:000053f4       ?IsListenerFree@TTerminal@@IEBA_N_K@Z 00000001800063f4 f   UnityBuildCore.cpp.obj
 0001:00005498       ?SaveCapabilities@TTerminal@@QEAAXAEAUTFileSystemInfo@@@Z 0000000180006498 f   UnityBuildCore.cpp.obj
 0001:000054d8       ?GetResolvingSymlinks@TTerminal@@QEBA_NXZ 00000001800064d8 f   UnityBuildCore.cpp.obj
 0001:0000551c       ?UsableCopyParamAttrs@TTerminal@@QEBA?AUTUsableCopyParamAttrs@@_J@Z 000000018000651c f   UnityBuildCore.cpp.obj
 0001:00005694       ?GetStoredCredentialsTried@TTerminal@@QEBA_NXZ 0000000180006694 f   UnityBuildCore.cpp.obj
 0001:000056d0       ?Init@TFileOperationProgressType@@IEAAXXZ 00000001800066d0 f   UnityBuildCore.cpp.obj
 0001:00005734       ?SetCancel@TFileOperationProgressType@@QEAAXW4TCancelStatus@@@Z 0000000180006734 f   UnityBuildCore.cpp.obj
 0001:0000579c       ?SetCancelAtLeast@TFileOperationProgressType@@QEAAXW4TCancelStatus@@@Z 000000018000679c f   UnityBuildCore.cpp.obj
 0001:00005808       ?GetCancel@TFileOperationProgressType@@QEBA?AW4TCancelStatus@@XZ 0000000180006808 f   UnityBuildCore.cpp.obj
 0001:00005868       ?ClearCancelFile@TFileOperationProgressType@@QEAA_NXZ 0000000180006868 f   UnityBuildCore.cpp.obj
 0001:000058c4       ?GetCPSLimit@TFileOperationProgressType@@QEBA_JXZ 00000001800068c4 f   UnityBuildCore.cpp.obj
 0001:00005910       ?SetCPSLimit@TFileOperationProgressType@@QEAAX_J@Z 0000000180006910 f   UnityBuildCore.cpp.obj
 0001:00005968       ?GetBatchOverwrite@TFileOperationProgressType@@QEBA?AW4TBatchOverwrite@@XZ 0000000180006968 f   UnityBuildCore.cpp.obj
 0001:000059b0       ?SetBatchOverwrite@TFileOperationProgressType@@QEAAXW4TBatchOverwrite@@@Z 00000001800069b0 f   UnityBuildCore.cpp.obj
 0001:00005a04       ?GetSkipToAll@TFileOperationProgressType@@QEBA_NXZ 0000000180006a04 f   UnityBuildCore.cpp.obj
 0001:00005a4c       ?SetSkipToAll@TFileOperationProgressType@@QEAAXXZ 0000000180006a4c f   UnityBuildCore.cpp.obj
 0001:00005a98       ?AddTotalSize@TFileOperationProgressType@@IEAAX_J@Z 0000000180006a98 f   UnityBuildCore.cpp.obj
 0001:00005afc       ?AddSkipped@TFileOperationProgressType@@IEAAX_J@Z 0000000180006afc f   UnityBuildCore.cpp.obj
 0001:00005b5c       ?GetTotalTransferred@TFileOperationProgressType@@QEBA_JXZ 0000000180006b5c f   UnityBuildCore.cpp.obj
 0001:00005b90       ?GetTotalSize@TFileOperationProgressType@@QEBA_JXZ 0000000180006b90 f   UnityBuildCore.cpp.obj
 0001:00005bc4       ?WaitFor@TSimpleThread@@QEBAX_K@Z 0000000180006bc4 f   UnityBuildCore.cpp.obj
 0001:00005bd0       ?WaitForEvent@TSignalThread@@MEAA_NXZ 0000000180006bd0 f   UnityBuildCore.cpp.obj
 0001:00005be8       ?SetTransfersLimit@TTerminalQueue@@QEAAX_J@Z 0000000180006be8 f   UnityBuildCore.cpp.obj
 0001:00005c5c       ?GetIsEmpty@TTerminalQueue@@QEBA_NXZ 0000000180006c5c f   UnityBuildCore.cpp.obj
 0001:00005c9c       ?ContinueParallelOperation@TTerminalQueue@@QEBA_NXZ 0000000180006c9c f   UnityBuildCore.cpp.obj
 0001:00005ce0       ?DoQueryReopen@TBackgroundTerminal@@MEAA_NPEAVException@@@Z 0000000180006ce0 f   UnityBuildCore.cpp.obj
 0001:00005d14       ?Process@TTerminalItem@@QEAAXPEAVTQueueItem@@@Z 0000000180006d14 f   UnityBuildCore.cpp.obj
 0001:00005d54       ?Complete@TQueueItem@@QEAA_NXZ 0000000180006d54 f   UnityBuildCore.cpp.obj
 0001:00005d9c       ?GetStatus@TQueueItem@@QEBA?AW4TStatus@1@XZ 0000000180006d9c f   UnityBuildCore.cpp.obj
 0001:00005dc8       ??_ETQueueItemProxy@@EEAAPEAXI@Z 0000000180006dc8 f i UnityBuildCore.cpp.obj
 0001:00005dc8       ??_GTQueueItemProxy@@EEAAPEAXI@Z 0000000180006dc8 f i UnityBuildCore.cpp.obj
 0001:00005df8       ?GetCount@TTerminalQueueStatus@@QEBA_JXZ 0000000180006df8 f   UnityBuildCore.cpp.obj
 0001:00005e04       ??_GTTunnelUI@@UEAAPEAXI@Z 0000000180006e04 f i UnityBuildCore.cpp.obj
 0001:00005e04       ??_GTShortCut@@UEAAPEAXI@Z 0000000180006e04 f i UnityBuildCore.cpp.obj
 0001:00005e04       ??_ETPoolForDataEvent@@UEAAPEAXI@Z 0000000180006e04 f i UnityBuildCore.cpp.obj
 0001:00005e04       ??_GTCalculateSizeStats@@UEAAPEAXI@Z 0000000180006e04 f i UnityBuildCore.cpp.obj
 0001:00005e04       ??_GTMaskMask@TFileMasks@@UEAAPEAXI@Z 0000000180006e04 f i UnityBuildCore.cpp.obj
 0001:00005e04       ??_ETDateTime@@UEAAPEAXI@Z 0000000180006e04 f i UnityBuildCore.cpp.obj
 0001:00005e04       ??_ETCustomCommand@@UEAAPEAXI@Z 0000000180006e04 f i UnityBuildCore.cpp.obj
 0001:00005e04       ??_GTCustomCommand@@UEAAPEAXI@Z 0000000180006e04 f i UnityBuildCore.cpp.obj
 0001:00005e04       ??_ETMaskMask@TFileMasks@@UEAAPEAXI@Z 0000000180006e04 f i UnityBuildCore.cpp.obj
 0001:00005e04       ??_GTConsoleTitleParam@@UEAAPEAXI@Z 0000000180006e04 f i UnityBuildMain.cpp.obj
 0001:00005e04       ??_GTDateTime@@UEAAPEAXI@Z 0000000180006e04 f i UnityBuildCore.cpp.obj
 0001:00005e04       ??_ETFarMessageData@@UEAAPEAXI@Z 0000000180006e04 f i UnityBuildMain.cpp.obj
 0001:00005e04       ??_GTPoolForDataEvent@@UEAAPEAXI@Z 0000000180006e04 f i UnityBuildCore.cpp.obj
 0001:00005e04       ??_ETInteractiveCustomCommand@@UEAAPEAXI@Z 0000000180006e04 f i UnityBuildCore.cpp.obj
 0001:00005e04       ??_ETMakeLocalFileListParams@@UEAAPEAXI@Z 0000000180006e04 f i UnityBuildMain.cpp.obj
 0001:00005e04       ??_GTRemoteFilePanelItem@@UEAAPEAXI@Z 0000000180006e04 f i UnityBuildMain.cpp.obj
 0001:00005e04       ??_GTFarMessageData@@UEAAPEAXI@Z 0000000180006e04 f i UnityBuildMain.cpp.obj
 0001:00005e04       ??_GTShowExtendedExceptionAction@@UEAAPEAXI@Z 0000000180006e04 f i UnityBuildCore.cpp.obj
 0001:00005e04       ??_ETOutputProxy@@UEAAPEAXI@Z 0000000180006e04 f i UnityBuildCore.cpp.obj
 0001:00005e04       ??_GTFarInteractiveCustomCommand@@UEAAPEAXI@Z 0000000180006e04 f i UnityBuildMain.cpp.obj
 0001:00005e04       ??_ETFarInteractiveCustomCommand@@UEAAPEAXI@Z 0000000180006e04 f i UnityBuildMain.cpp.obj
 0001:00005e04       ??_GTObject@@UEAAPEAXI@Z   0000000180006e04 f i UnityBuildCore.cpp.obj
 0001:00005e04       ??_ETConsoleTitleParam@@UEAAPEAXI@Z 0000000180006e04 f i UnityBuildMain.cpp.obj
 0001:00005e04       ??_ETRemoteFilePanelItem@@UEAAPEAXI@Z 0000000180006e04 f i UnityBuildMain.cpp.obj
 0001:00005e04       ??_ETTunnelUI@@UEAAPEAXI@Z 0000000180006e04 f i UnityBuildCore.cpp.obj
 0001:00005e04       ??_ETCalculateSizeStats@@UEAAPEAXI@Z 0000000180006e04 f i UnityBuildCore.cpp.obj
 0001:00005e04       ??_GTMakeLocalFileListParams@@UEAAPEAXI@Z 0000000180006e04 f i UnityBuildMain.cpp.obj
 0001:00005e04       ??_GTInteractiveCustomCommand@@UEAAPEAXI@Z 0000000180006e04 f i UnityBuildCore.cpp.obj
 0001:00005e04       ??_ETShowExtendedExceptionAction@@UEAAPEAXI@Z 0000000180006e04 f i UnityBuildCore.cpp.obj
 0001:00005e04       ??_ETShortCut@@UEAAPEAXI@Z 0000000180006e04 f i UnityBuildCore.cpp.obj
 0001:00005e04       ??_ETObject@@UEAAPEAXI@Z   0000000180006e04 f i UnityBuildCore.cpp.obj
 0001:00005e04       ??_GTOutputProxy@@UEAAPEAXI@Z 0000000180006e04 f i UnityBuildCore.cpp.obj
 0001:00005e2c       ??0TOperationVisualizer@@QEAA@_N@Z 0000000180006e2c f   UnityBuildCore.cpp.obj
 0001:00005e4c       ??_GTParams@TFileMasks@@UEAAPEAXI@Z 0000000180006e4c f i UnityBuildCore.cpp.obj
 0001:00005e4c       ??_ETParams@TFileMasks@@UEAAPEAXI@Z 0000000180006e4c f i UnityBuildCore.cpp.obj
 0001:00005e78       ?LocalFileAttrs@TCopyParamType@@QEBAKAEBVTRights@@@Z 0000000180006e78 f   UnityBuildCore.cpp.obj
 0001:00005eac       ?GetTransferSkipList@TCopyParamType@@QEBAPEAVTStrings@@XZ 0000000180006eac f   UnityBuildCore.cpp.obj
 0001:00005eb4       ?NonPersistant@TSessionData@@QEAAXXZ 0000000180006eb4 f   UnityBuildCore.cpp.obj
 0001:00005ecc       ?GetUsesSsh@TSessionData@@QEBA_NXZ 0000000180006ecc f   UnityBuildCore.cpp.obj
 0001:00005ed8       ?GetStorage@TConfiguration@@UEBA?AW4TStorage@@XZ 0000000180006ed8 f   UnityBuildCore.cpp.obj
 0001:00005f20       ?GetLogging@TConfiguration@@QEBA_NXZ 0000000180006f20 f   UnityBuildCore.cpp.obj
 0001:00005f50       ?SetLogProtocol@TConfiguration@@QEAAX_J@Z 0000000180006f50 f   UnityBuildCore.cpp.obj
 0001:00005fbc       ?GetLogActions@TConfiguration@@QEBA_NXZ 0000000180006fbc f   UnityBuildCore.cpp.obj
 0001:00005ff0       ?GetLogMaxSize@TConfiguration@@QEBA_JXZ 0000000180006ff0 f   UnityBuildCore.cpp.obj
 0001:00006024       ?GetLogMaxCount@TConfiguration@@QEBA_JXZ 0000000180007024 f   UnityBuildCore.cpp.obj
 0001:00006058       ?SetConfirmOverwriting@TConfiguration@@UEAAX_N@Z 0000000180007058 f   UnityBuildCore.cpp.obj
 0001:000060b8       ?GetConfirmOverwriting@TConfiguration@@UEBA_NXZ 00000001800070b8 f   UnityBuildCore.cpp.obj
 0001:000060ec       ?GetConfirmResume@TConfiguration@@QEBA_NXZ 00000001800070ec f   UnityBuildCore.cpp.obj
 0001:00006120       ?GetAutoReadDirectoryAfterOp@TConfiguration@@QEBA_NXZ 0000000180007120 f   UnityBuildCore.cpp.obj
 0001:00006154       ??_ETFileZillaImpl@@UEAAPEAXI@Z 0000000180007154 f i UnityBuildCore.cpp.obj
 0001:00006154       ??_GTFileZillaImpl@@UEAAPEAXI@Z 0000000180007154 f i UnityBuildCore.cpp.obj
 0001:00006190       ??_ETFTPFileListHelper@@UEAAPEAXI@Z 0000000180007190 f i UnityBuildCore.cpp.obj
 0001:00006190       ??_GTFTPFileListHelper@@UEAAPEAXI@Z 0000000180007190 f i UnityBuildCore.cpp.obj
 0001:000061d4       ?SetCPSLimit@TFTPFileSystem@@IEAAXPEAVTFileOperationProgressType@@@Z 00000001800071d4 f   UnityBuildCore.cpp.obj
 0001:00006208       ?FileTransferProgress@TFTPFileSystem@@MEAAX_J0@Z 0000000180007208 f   UnityBuildCore.cpp.obj
 0001:00006268       ?is@TSFTPPacket@@UEBA_NW4TObjectClassId@@@Z 0000000180007268 f i UnityBuildCore.cpp.obj
 0001:0000627c       ?SetCapacity@TSFTPPacket@@QEAAX_K@Z 000000018000727c f i UnityBuildCore.cpp.obj
 0001:00006314       ?RegisterForDebug@TWebDAVFileSystem@@AEAAXXZ 0000000180007314 f   UnityBuildCore.cpp.obj
 0001:00006314       ?UnregisterFromDebug@TWebDAVFileSystem@@AEAAXXZ 0000000180007314 f   UnityBuildCore.cpp.obj
 0001:00006338       ?CancelTransfer@TWebDAVFileSystem@@IEAA_NXZ 0000000180007338 f   UnityBuildCore.cpp.obj
 0001:000063a8       ?InitSslSession@TWebDAVFileSystem@@KAXPEAUssl_st@@PEAUne_session_s@@@Z 00000001800073a8 f   UnityBuildCore.cpp.obj
 0001:000063d4       ?CryptographyInitialize@@YAXXZ 00000001800073d4 f   UnityBuildCore.cpp.obj
 0001:00006440       ?CryptographyFinalize@@YAXXZ 0000000180007440 f   UnityBuildCore.cpp.obj
 0001:00006468       ?GetCount@TNamedObjectList@@QEBA_JXZ 0000000180007468 f   UnityBuildCore.cpp.obj
 0001:0000647c       ?GetCountIncludingHidden@TNamedObjectList@@QEBA_JXZ 000000018000747c f   UnityBuildCore.cpp.obj
 0001:00006484       ?FreeFileInfo@@YAXPEAX@Z   0000000180007484 f   UnityBuildCore.cpp.obj
 0001:00006498       ?SetNeonTlsInit@@YAXPEAUne_session_s@@P6AXPEAUssl_st@@0@Z@Z 0000000180007498 f   UnityBuildCore.cpp.obj
 0001:000064a8       ?GetCount@TCopyParamList@@QEBA_JXZ 00000001800074a8 f   UnityBuildCore.cpp.obj
 0001:000064c4       ??1?$_Yarn@D@std@@QEAA@XZ  00000001800074c4 f i UnityBuildCore.cpp.obj
 0001:000064e4       ?_Lock@?$basic_streambuf@_WU?$char_traits@_W@std@@@std@@UEAAXXZ 00000001800074e4 f i UnityBuildCore.cpp.obj
 0001:000064f0       ?_Unlock@?$basic_streambuf@_WU?$char_traits@_W@std@@@std@@UEAAXXZ 00000001800074f0 f i UnityBuildCore.cpp.obj
 0001:000064fc       ?overflow@?$basic_streambuf@_WU?$char_traits@_W@std@@@std@@MEAAGG@Z 00000001800074fc f i UnityBuildCore.cpp.obj
 0001:000064fc       ?underflow@?$basic_streambuf@_WU?$char_traits@_W@std@@@std@@MEAAGXZ 00000001800074fc f i UnityBuildCore.cpp.obj
 0001:000064fc       ?pbackfail@?$basic_streambuf@_WU?$char_traits@_W@std@@@std@@MEAAGG@Z 00000001800074fc f i UnityBuildCore.cpp.obj
 0001:00006504       ?uflow@?$basic_streambuf@_WU?$char_traits@_W@std@@@std@@MEAAGXZ 0000000180007504 f i UnityBuildCore.cpp.obj
 0001:00006540       ?xsgetn@?$basic_streambuf@_WU?$char_traits@_W@std@@@std@@MEAA_JPEA_W_J@Z 0000000180007540 f i UnityBuildCore.cpp.obj
 0001:00006600       ?xsputn@?$basic_streambuf@_WU?$char_traits@_W@std@@@std@@MEAA_JPEB_W_J@Z 0000000180007600 f i UnityBuildCore.cpp.obj
 0001:000066c0       ?seekoff@?$basic_streambuf@_WU?$char_traits@_W@std@@@std@@MEAA?AV?$fpos@H@2@_JHH@Z 00000001800076c0 f i UnityBuildCore.cpp.obj
 0001:000066c0       ?seekpos@?$basic_streambuf@_WU?$char_traits@_W@std@@@std@@MEAA?AV?$fpos@H@2@V32@H@Z 00000001800076c0 f i UnityBuildCore.cpp.obj
 0001:000066d8       ??1TAutoFlag@@QEAA@XZ      00000001800076d8 f i UnityBuildCore.cpp.obj
 0001:000066d8       ??1?$TValueRestorer@_N@@QEAA@XZ 00000001800076d8 f i UnityBuildCore.cpp.obj
 0001:000066ec       ??1?$scope_guard@V<lambda64>@?A0xe9eda812@@@detail@Sysutils@@QEAA@XZ 00000001800076ec f i UnityBuildCore.cpp.obj
 0001:000066ec       ??1?$scope_guard@V<lambda37>@?A0xe9eda812@@@detail@Sysutils@@QEAA@XZ 00000001800076ec f i UnityBuildCore.cpp.obj
 0001:000066ec       ??1?$scope_guard@V<lambda268>@?A0xe9eda812@@@detail@Sysutils@@QEAA@XZ 00000001800076ec f i UnityBuildCore.cpp.obj
 0001:000066ec       ??1?$scope_guard@V<lambda39>@?A0xe9eda812@@@detail@Sysutils@@QEAA@XZ 00000001800076ec f i UnityBuildCore.cpp.obj
 0001:000066f8       ??1?$scope_guard@V<lambda247>@?A0xe9eda812@@@detail@Sysutils@@QEAA@XZ 00000001800076f8 f i UnityBuildCore.cpp.obj
 0001:00006724       ??1?$TValueRestorer@W4TIgnoreAuthenticationFailure@TWebDAVFileSystem@@@@QEAA@XZ 0000000180007724 f i UnityBuildCore.cpp.obj
 0001:00006738       ??_E?$basic_ostream@_WU?$char_traits@_W@std@@@std@@UEAAPEAXI@Z 0000000180007738 f i UnityBuildCore.cpp.obj
 0001:00006738       ??_G?$basic_ostream@_WU?$char_traits@_W@std@@@std@@UEAAPEAXI@Z 0000000180007738 f i UnityBuildCore.cpp.obj
 0001:0000678c       ??_E?$basic_streambuf@_WU?$char_traits@_W@std@@@std@@UEAAPEAXI@Z 000000018000778c f i UnityBuildCore.cpp.obj
 0001:0000678c       ??_E?$FormatBuf@_W@internal@fmt@@UEAAPEAXI@Z 000000018000778c f i UnityBuildCore.cpp.obj
 0001:0000678c       ??_G?$basic_streambuf@_WU?$char_traits@_W@std@@@std@@UEAAPEAXI@Z 000000018000778c f i UnityBuildCore.cpp.obj
 0001:0000678c       ??_G?$FormatBuf@_W@internal@fmt@@UEAAPEAXI@Z 000000018000778c f i UnityBuildCore.cpp.obj
 0001:000067f0       ?free_node@?$rb_tree_base@U?$map_traits@_J_K@?$map@_J_KVallocator@rde@@@rde@@Vallocator@3@@rde@@QEAAXPEAUnode@12@_N@Z 00000001800077f0 f i UnityBuildCore.cpp.obj
 0001:000067f0       ?free_node@?$rb_tree_base@U?$map_traits@HH@?$map@HHVallocator@rde@@@rde@@Vallocator@3@@rde@@QEAAXPEAUnode@12@_N@Z 00000001800077f0 f i UnityBuildFilezilla.cpp.obj
 0001:000067f0       ?free_node@?$rb_tree_base@U?$map_traits@H_K@?$map@H_KVallocator@rde@@@rde@@Vallocator@3@@rde@@QEAAXPEAUnode@12@_N@Z 00000001800077f0 f i UnityBuildCore.cpp.obj
 0001:000067f0       ?free_node@?$rb_tree_base@U?$map_traits@KPEAVTStrings@@@?$map@KPEAVTStrings@@Vallocator@rde@@@rde@@Vallocator@3@@rde@@QEAAXPEAUnode@12@_N@Z 00000001800077f0 f i UnityBuildCore.cpp.obj
 0001:000067f0       ?free_node@?$rb_tree_base@U?$map_traits@PEAUssl_ctx_st@@H@?$map@PEAUssl_ctx_st@@HVallocator@rde@@@rde@@Vallocator@3@@rde@@QEAAXPEAUnode@12@_N@Z 00000001800077f0 f i UnityBuildFilezilla.cpp.obj
 0001:000067f0       ?free_node@?$rb_tree_base@U?$map_traits@PEAXPEAX@?$map@PEAXPEAXVallocator@rde@@@rde@@Vallocator@3@@rde@@QEAAXPEAUnode@12@_N@Z 00000001800077f0 f i UnityBuildMain.cpp.obj
 0001:00006854       ?erase@?$basic_string@DU?$char_traits@D@std@@V?$allocator@D@2@@std@@QEAAAEAV12@_K0@Z 0000000180007854 f i UnityBuildCore.cpp.obj
 0001:000068e4       ?rebalance_after_erase@?$rb_tree_base@U?$map_traits@VUnicodeString@@UTDirectoryData@TParallelOperation@@@?$map@VUnicodeString@@UTDirectoryData@TParallelOperation@@Vallocator@rde@@@rde@@Vallocator@3@@rde@@QEAAXPEAUnode@12@@Z 00000001800078e4 f i UnityBuildCore.cpp.obj
 0001:00006b8c       ?rebalance_after_erase@?$rb_tree_base@U?$map_traits@VUnicodeString@@VTDateTime@@@?$map@VUnicodeString@@VTDateTime@@Vallocator@rde@@@rde@@Vallocator@3@@rde@@QEAAXPEAUnode@12@@Z 0000000180007b8c f i UnityBuildCore.cpp.obj
 0001:00006e34       ?Compare@?$CMStringT@_WV?$NBChTraitsCRT@_W@@@@QEBAHPEB_W@Z 0000000180007e34 f i UnityBuildCore.cpp.obj
 0001:00006e58       ?Find@?$CMStringT@_WV?$NBChTraitsCRT@_W@@@@QEBAHPEB_WH@Z 0000000180007e58 f i UnityBuildCore.cpp.obj
 0001:00006e98       ?Find@?$CMStringT@_WV?$NBChTraitsCRT@_W@@@@QEBAH_WH@Z 0000000180007e98 f i UnityBuildCore.cpp.obj
 0001:00006ed4       ?FindOneOf@?$CMStringT@_WV?$NBChTraitsCRT@_W@@@@QEBAHPEB_W@Z 0000000180007ed4 f i UnityBuildCore.cpp.obj
 0001:00006efc       ?ReverseFind@?$CMStringT@_WV?$NBChTraitsCRT@_W@@@@QEBAH_W@Z 0000000180007efc f i UnityBuildCore.cpp.obj
 0001:00006f24       ?Compare@?$CMStringT@EV?$NBChTraitsCRT@E@@@@QEBAHPEBD@Z 0000000180007f24 f i UnityBuildCore.cpp.obj
 0001:00006f24       ?Compare@?$CMStringT@DV?$NBChTraitsCRT@D@@@@QEBAHPEBD@Z 0000000180007f24 f i UnityBuildCore.cpp.obj
 0001:00006f2c       ?Find@?$CMStringT@EV?$NBChTraitsCRT@E@@@@QEBAHPEBDH@Z 0000000180007f2c f i UnityBuildCore.cpp.obj
 0001:00006f68       ?Find@?$CMStringT@EV?$NBChTraitsCRT@E@@@@QEBAHDH@Z 0000000180007f68 f i UnityBuildCore.cpp.obj
 0001:00006fa0       ??$move_n@PEAX@rde@@YAXPEBQEAX_KPEAPEAX@Z 0000000180007fa0 f i UnityBuildCore.cpp.obj
 0001:00006fd4       ??$destruct_n@VTRemoteToken@@@rde@@YAXPEAVTRemoteToken@@_K@Z 0000000180007fd4 f i UnityBuildCore.cpp.obj
 0001:00006fd4       ??$destruct_n@UTOption@TOptions@@@rde@@YAXPEAUTOption@TOptions@@_K@Z 0000000180007fd4 f i UnityBuildCore.cpp.obj
 0001:00006fe0       ??$destruct_n@UTMask@TFileMasks@@@rde@@YAXPEAUTMask@TFileMasks@@_K@Z 0000000180007fe0 f i UnityBuildCore.cpp.obj
 0001:00006fec       ??$copy_construct_n@_K@rde@@YAXPEA_K_K0@Z 0000000180007fec f i UnityBuildCore.cpp.obj
 0001:00006fec       ??$copy_construct_n@_J@rde@@YAXPEA_J_K0@Z 0000000180007fec f i UnityBuildCore.cpp.obj
 0001:00006ff8       ??$move_n@D@rde@@YAXPEBD_KPEAD@Z 0000000180007ff8 f i UnityBuildCore.cpp.obj
 0001:00006ff8       ??$move_n@_N@rde@@YAXPEB_N_KPEA_N@Z 0000000180007ff8 f i UnityBuildCore.cpp.obj
 0001:00006ff8       ??$move_n@E@rde@@YAXPEBE_KPEAE@Z 0000000180007ff8 f i UnityBuildCore.cpp.obj
 0001:00007028       ??$move_n@_K@rde@@YAXPEB_K_KPEA_K@Z 0000000180008028 f i UnityBuildCore.cpp.obj
 0001:00007078       ??$copy_construct_n@E@rde@@YAXPEAE_K0@Z 0000000180008078 f i UnityBuildCore.cpp.obj
 0001:00007078       ??$copy_construct_n@D@rde@@YAXPEAD_K0@Z 0000000180008078 f i UnityBuildCore.cpp.obj
 0001:00007078       ??$copy_construct_n@_N@rde@@YAXPEA_N_K0@Z 0000000180008078 f i UnityBuildCore.cpp.obj
 0001:00007084       ??0?$CMSimpleStringT@_W@@QEAA@PEB_WH@Z 0000000180008084 f i UnityBuildCore.cpp.obj
 0001:000070ec       ??0?$CMSimpleStringT@E@@QEAA@AEBV0@@Z 00000001800080ec f i UnityBuildCore.cpp.obj
 0001:000070ec       ??0?$CMSimpleStringT@_W@@QEAA@AEBV0@@Z 00000001800080ec f i UnityBuildCore.cpp.obj
 0001:000070ec       ??0?$CMSimpleStringT@D@@QEAA@AEBV0@@Z 00000001800080ec f i UnityBuildCore.cpp.obj
 0001:0000711c       ??0?$CMSimpleStringT@_W@@QEAA@XZ 000000018000811c f i UnityBuildCore.cpp.obj
 0001:0000711c       ??0?$CMSimpleStringT@E@@QEAA@XZ 000000018000811c f i UnityBuildCore.cpp.obj
 0001:0000711c       ??0?$CMSimpleStringT@D@@QEAA@XZ 000000018000811c f i UnityBuildCore.cpp.obj
 0001:00007144       ??$parse_nonnegative_int@D@internal@fmt@@YAIAEAPEBD@Z 0000000180008144 f i UnityBuildCore.cpp.obj
 0001:000071bc       ?get_arg@?$PrintfFormatter@_WV?$PrintfArgFormatter@_W@fmt@@@fmt@@AEAA?AUArg@internal@2@PEB_WI@Z 00000001800081bc f i UnityBuildCore.cpp.obj
 0001:000072f0       ??$parse_nonnegative_int@_W@internal@fmt@@YAIAEAPEB_W@Z 00000001800082f0 f i UnityBuildCore.cpp.obj
 0001:0000736c       ??0?$CMSimpleStringT@E@@QEAA@PEBDH@Z 000000018000836c f i UnityBuildCore.cpp.obj
 0001:0000736c       ??0?$CMSimpleStringT@D@@QEAA@PEBDH@Z 000000018000836c f i UnityBuildCore.cpp.obj
 0001:000073d4       ?parse_arg_index@?$BasicFormatter@DV?$ArgFormatter@D@fmt@@@fmt@@AEAA?AUArg@internal@2@AEAPEBD@Z 00000001800083d4 f i UnityBuildCore.cpp.obj
 0001:00007510       ?parse_arg_index@?$BasicFormatter@_WV?$ArgFormatter@_W@fmt@@@fmt@@AEAA?AUArg@internal@2@AEAPEB_W@Z 0000000180008510 f i UnityBuildCore.cpp.obj
 0001:00007650       ??$copy_construct_n@W4TGssLib@@@rde@@YAXPEAW4TGssLib@@_K0@Z 0000000180008650 f i UnityBuildCore.cpp.obj
 0001:00007650       ??$copy_construct_n@W4TCipher@@@rde@@YAXPEAW4TCipher@@_K0@Z 0000000180008650 f i UnityBuildCore.cpp.obj
 0001:00007650       ??$copy_construct_n@W4TKex@@@rde@@YAXPEAW4TKex@@_K0@Z 0000000180008650 f i UnityBuildCore.cpp.obj
 0001:0000765c       ??$move_n@W4TKex@@@rde@@YAXPEBW4TKex@@_KPEAW41@@Z 000000018000865c f i UnityBuildCore.cpp.obj
 0001:0000765c       ??$move_n@W4TGssLib@@@rde@@YAXPEBW4TGssLib@@_KPEAW41@@Z 000000018000865c f i UnityBuildCore.cpp.obj
 0001:0000765c       ??$move_n@W4TCipher@@@rde@@YAXPEBW4TCipher@@_KPEAW41@@Z 000000018000865c f i UnityBuildCore.cpp.obj
 0001:000076ac       ??8fmt@@YA_NV?$BasicStringRef@_W@0@0@Z 00000001800086ac f i UnityBuildCore.cpp.obj
 0001:00007718       ??$format_decimal@I_WUNoThousandsSep@internal@fmt@@@internal@fmt@@YAXPEA_WIIUNoThousandsSep@01@@Z 0000000180008718 f i UnityBuildCore.cpp.obj
 0001:00007794       ??$format_decimal@_KDUNoThousandsSep@internal@fmt@@@internal@fmt@@YAXPEAD_KIUNoThousandsSep@01@@Z 0000000180008794 f i UnityBuildCore.cpp.obj
 0001:0000781c       ??$format_decimal@_K_WUNoThousandsSep@internal@fmt@@@internal@fmt@@YAXPEA_W_KIUNoThousandsSep@01@@Z 000000018000881c f i UnityBuildCore.cpp.obj
 0001:000078b0       ??1?$FormatBuf@_W@internal@fmt@@UEAA@XZ 00000001800088b0 f i UnityBuildCore.cpp.obj
 0001:000078f4       ??0_Locinfo@std@@QEAA@PEBD@Z 00000001800088f4 f i UnityBuildCore.cpp.obj
 0001:00007990       ??1_Locinfo@std@@QEAA@XZ   0000000180008990 f i UnityBuildCore.cpp.obj
 0001:00007a08       ?_Getcat@?$ctype@_W@std@@SA_KPEAPEBVfacet@locale@2@PEBV42@@Z 0000000180008a08 f i UnityBuildCore.cpp.obj
 0001:00007af0       ?GetItem@TList@@UEBAPEAX_J@Z 0000000180008af0 f i UnityBuildCore.cpp.obj
 0001:00007af0       ??ATList@@QEBAPEAX_J@Z     0000000180008af0 f i UnityBuildCore.cpp.obj
 0001:00007af0       ?GetItem@TList@@UEAAPEAX_J@Z 0000000180008af0 f i UnityBuildCore.cpp.obj
 0001:00007afc       ?Pos@RawByteString@@QEBA_JD@Z 0000000180008afc f   UnityBuildCore.cpp.obj
 0001:00007b14       ?Pos@RawByteString@@QEBA_JPEBD@Z 0000000180008b14 f   UnityBuildCore.cpp.obj
 0001:00007b2c       ?Pos@UnicodeString@@QEBA_J_W@Z 0000000180008b2c f   UnityBuildCore.cpp.obj
 0001:00007b44       ??1TAutoNestingCounter@@QEAA@XZ 0000000180008b44 f i UnityBuildCore.cpp.obj
 0001:00007b5c       ?IndexOf@TList@@QEBA_JPEBX@Z 0000000180008b5c f   UnityBuildCore.cpp.obj
 0001:00007b90       ?QuickSort@@YAXAEAV?$vector@PEAXVallocator@rde@@U?$standard_vector_storage@PEAXVallocator@rde@@@2@@rde@@_J1P6A_JPEBX2@Z@Z 0000000180008b90 f   UnityBuildCore.cpp.obj
 0001:00007cc8       ?Sort@TList@@QEAAXP6A_JPEBX0@Z@Z 0000000180008cc8 f   UnityBuildCore.cpp.obj
 0001:00007cf4       ??ATObjectList@@QEBAPEAVTObject@@_J@Z 0000000180008cf4 f   UnityBuildCore.cpp.obj
 0001:00007cfc       ?Changing@TStringList@@UEAAXXZ 0000000180008cfc f   UnityBuildCore.cpp.obj
 0001:00007d28       ?Changed@TStringList@@UEAAXXZ 0000000180008d28 f   UnityBuildCore.cpp.obj
 0001:00007d54       ?DecodeDate@TDateTime@@QEBAXAEAG00@Z 0000000180008d54 f   UnityBuildCore.cpp.obj
 0001:00007d5c       ?DecodeTime@TDateTime@@QEBAXAEAG000@Z 0000000180008d5c f   UnityBuildCore.cpp.obj
 0001:00007d74       ?Read@THandleStream@@UEAA_JPEAX_J@Z 0000000180008d74 f   UnityBuildCore.cpp.obj
 0001:00007d90       ?Write@THandleStream@@UEAA_JPEBX_J@Z 0000000180008d90 f   UnityBuildCore.cpp.obj
 0001:00007dac       ?Clear@TMemoryStream@@QEAAXXZ 0000000180008dac f   UnityBuildCore.cpp.obj
 0001:00007dcc       ?SetSize@TMemoryStream@@UEAAX_J@Z 0000000180008dcc f   UnityBuildCore.cpp.obj
 0001:00007e14       ??_GTLibraryLoader@@UEAAPEAXI@Z 0000000180008e14 f i UnityBuildCore.cpp.obj
 0001:00007e14       ??_ETLibraryLoader@@UEAAPEAXI@Z 0000000180008e14 f i UnityBuildCore.cpp.obj
 0001:00007e44       ?GetNameValid@TRemoteToken@@QEBA_NXZ 0000000180008e44 f   UnityBuildCore.cpp.obj
 0001:00007e54       ?GetIsSet@TRemoteToken@@QEBA_NXZ 0000000180008e54 f   UnityBuildCore.cpp.obj
 0001:00007e6c       ?Token@TRemoteTokenList@@QEBAPEBVTRemoteToken@@_J@Z 0000000180008e6c f   UnityBuildCore.cpp.obj
 0001:00007e7c       ?GetSize@TRemoteFile@@QEBA_JXZ 0000000180008e7c f   UnityBuildCore.cpp.obj
 0001:00007ea0       ?SetModification@TRemoteFile@@QEAAXAEBVTDateTime@@@Z 0000000180008ea0 f   UnityBuildCore.cpp.obj
 0001:00007ecc       ?GetHaveFullFileName@TRemoteFile@@QEBA_NXZ 0000000180008ecc f   UnityBuildCore.cpp.obj
 0001:00007ee8       ?Init@TRemoteDirectoryFile@@QEAAXXZ 0000000180008ee8 f   UnityBuildCore.cpp.obj
 0001:00007f50       ??8TRights@@QEBA_NAEBV0@@Z 0000000180008f50 f   UnityBuildCore.cpp.obj
 0001:00007fc4       ??8TRights@@QEBA_NG@Z      0000000180008fc4 f   UnityBuildCore.cpp.obj
 0001:00007fd8       ??9TRights@@QEBA_NAEBV0@@Z 0000000180008fd8 f   UnityBuildCore.cpp.obj
 0001:00007fec       ?DidNotRecurse@TCollectedFileList@@QEAAX_J@Z 0000000180008fec f   UnityBuildCore.cpp.obj
 0001:00007ffc       ?GetObj@TCollectedFileList@@QEBAPEAVTObject@@_J@Z 0000000180008ffc f   UnityBuildCore.cpp.obj
 0001:0000800c       ?IsDir@TCollectedFileList@@QEBA_N_J@Z 000000018000900c f   UnityBuildCore.cpp.obj
 0001:0000801c       ?IsRecursed@TCollectedFileList@@QEBA_N_J@Z 000000018000901c f   UnityBuildCore.cpp.obj
 0001:0000802c       ?ShouldAddClient@TParallelOperation@@QEBA_NXZ 000000018000902c f   UnityBuildCore.cpp.obj
 0001:00008094       ?CheckEnd@TParallelOperation@@AEAA_NPEAVTCollectedFileList@@@Z 0000000180009094 f   UnityBuildCore.cpp.obj
 0001:000080d4       ?Idle@TTerminal@@QEAAXXZ   00000001800090d4 f   UnityBuildCore.cpp.obj
 0001:00008168       ?GetAreCachesEmpty@TTerminal@@QEBA_NXZ 0000000180009168 f   UnityBuildCore.cpp.obj
 0001:000081b0       ?ClearTransfer@TFileOperationProgressType@@IEAAXXZ 00000001800091b0 f   UnityBuildCore.cpp.obj
 0001:0000822c       ?TotalTransferProgress@TFileOperationProgressType@@QEBA_JXZ 000000018000922c f   UnityBuildCore.cpp.obj
 0001:00008298       ?OverallProgress@TFileOperationProgressType@@QEBA_JXZ 0000000180009298 f   UnityBuildCore.cpp.obj
 0001:000082ac       ?SetFileInProgress@TFileOperationProgressType@@QEAAXXZ 00000001800092ac f   UnityBuildCore.cpp.obj
 0001:000082e0       ?SetLocalSize@TFileOperationProgressType@@QEAAX_J@Z 00000001800092e0 f   UnityBuildCore.cpp.obj
 0001:00008314       ?AddLocallyUsed@TFileOperationProgressType@@QEAAX_J@Z 0000000180009314 f   UnityBuildCore.cpp.obj
 0001:00008354       ?AdjustToCPSLimit@TFileOperationProgressType@@QEAA_J_J@Z 0000000180009354 f   UnityBuildCore.cpp.obj
 0001:00008434       ?LocalBlockSize@TFileOperationProgressType@@QEAA_KXZ 0000000180009434 f   UnityBuildCore.cpp.obj
 0001:00008458       ?SetTotalSize@TFileOperationProgressType@@QEAAX_J@Z 0000000180009458 f   UnityBuildCore.cpp.obj
 0001:000084c8       ?SetTransferSize@TFileOperationProgressType@@QEAAX_J@Z 00000001800094c8 f   UnityBuildCore.cpp.obj
 0001:000084fc       ?ChangeTransferSize@TFileOperationProgressType@@QEAAX_J@Z 00000001800094fc f   UnityBuildCore.cpp.obj
 0001:0000854c       ?AddSkippedFileSize@TFileOperationProgressType@@QEAAX_J@Z 000000018000954c f   UnityBuildCore.cpp.obj
 0001:00008580       ?TransferBlockSize@TFileOperationProgressType@@QEAA_KXZ 0000000180009580 f   UnityBuildCore.cpp.obj
 0001:000085a4       ?SetAsciiTransfer@TFileOperationProgressType@@QEAAX_N@Z 00000001800095a4 f   UnityBuildCore.cpp.obj
 0001:000085d4       ?GetCPS@TFileOperationProgressType@@IEBA_KXZ 00000001800095d4 f   UnityBuildCore.cpp.obj
 0001:00008660       ?TotalTimeLeft@TFileOperationProgressType@@QEBA?AVTDateTime@@XZ 0000000180009660 f   UnityBuildCore.cpp.obj
 0001:00008728       ?Close@TSimpleThread@@QEAAXXZ 0000000180009728 f   UnityBuildCore.cpp.obj
 0001:00008750       ?TerminalFree@TTerminalQueue@@IEAA_NPEAVTTerminalItem@@@Z 0000000180009750 f   UnityBuildCore.cpp.obj
 0001:000087f0       ?ItemProcessUserAction@TTerminalQueue@@IEAA_NPEAVTQueueItem@@PEAX@Z 00000001800097f0 f   UnityBuildCore.cpp.obj
 0001:0000888c       ?Idle@TTerminalItem@@QEAAXXZ 000000018000988c f   UnityBuildCore.cpp.obj
 0001:00008904       ?Cancel@TTerminalItem@@QEAAXXZ 0000000180009904 f   UnityBuildCore.cpp.obj
 0001:00008944       ?Pause@TTerminalItem@@QEAA_NXZ 0000000180009944 f   UnityBuildCore.cpp.obj
 0001:00008984       ?Resume@TTerminalItem@@QEAA_NXZ 0000000180009984 f   UnityBuildCore.cpp.obj
 0001:000089c0       ??1TQueueItem@@MEAA@XZ     00000001800099c0 f   UnityBuildCore.cpp.obj
 0001:00008a44       ?is@TQueueItem@@UEBA_NW4TObjectClassId@@@Z 0000000180009a44 f i UnityBuildCore.cpp.obj
 0001:00008a58       ?GetIndex@TQueueItemProxy@@QEBA_JXZ 0000000180009a58 f   UnityBuildCore.cpp.obj
 0001:00008a78       ?CoreFinalize@@YAXXZ       0000000180009a78 f   UnityBuildCore.cpp.obj
 0001:00008ac4       ??_F?$vector@UTMask@TFileMasks@@Vallocator@rde@@U?$standard_vector_storage@UTMask@TFileMasks@@Vallocator@rde@@@4@@rde@@QEAAXXZ 0000000180009ac4 f i UnityBuildCore.cpp.obj
 0001:00008ad4       ?GetCanLogin@TSessionData@@QEBA_NXZ 0000000180009ad4 f   UnityBuildCore.cpp.obj
 0001:00008ae4       ?SetTimeDifference@TSessionData@@QEAAXAEBVTDateTime@@@Z 0000000180009ae4 f   UnityBuildCore.cpp.obj
 0001:00008b14       ?SetLogging@TConfiguration@@QEAAX_N@Z 0000000180009b14 f   UnityBuildCore.cpp.obj
 0001:00008b7c       ?SetLogActions@TConfiguration@@QEAAX_N@Z 0000000180009b7c f   UnityBuildCore.cpp.obj
 0001:00008be4       ?SetLogMaxSize@TConfiguration@@QEAAX_J@Z 0000000180009be4 f   UnityBuildCore.cpp.obj
 0001:00008c44       ?SetLogMaxCount@TConfiguration@@QEAAX_J@Z 0000000180009c44 f   UnityBuildCore.cpp.obj
 0001:00008c7c       ?SetConfirmResume@TConfiguration@@QEAAX_N@Z 0000000180009c7c f   UnityBuildCore.cpp.obj
 0001:00008cdc       ?SetAutoReadDirectoryAfterOp@TConfiguration@@QEAAX_N@Z 0000000180009cdc f   UnityBuildCore.cpp.obj
 0001:00008d3c       ?ResetFeatures@TFTPFileSystem@@IEAAXXZ 0000000180009d3c f   UnityBuildCore.cpp.obj
 0001:00008d88       ??1TSFTPBusy@@UEAA@XZ      0000000180009d88 f i UnityBuildCore.cpp.obj
 0001:00008dcc       ??_ETSFTPBusy@@UEAAPEAXI@Z 0000000180009dcc f i UnityBuildCore.cpp.obj
 0001:00008dcc       ??_GTSFTPBusy@@UEAAPEAXI@Z 0000000180009dcc f i UnityBuildCore.cpp.obj
 0001:00008e2c       ?GetEOL@TSFTPFileSystem@@IEBAPEADXZ 0000000180009e2c f   UnityBuildCore.cpp.obj
 0001:00008e58       ?NeonUploadBodyProvider@TWebDAVFileSystem@@KAHPEAXPEAD_K@Z 0000000180009e58 f   UnityBuildCore.cpp.obj
 0001:00008e70       ?GetShortCut@TBookmark@@QEBA?AVTShortCut@@XZ 0000000180009e70 f i UnityBuildCore.cpp.obj
 0001:00008e94       ??1?$function@$$A6AXXZ@tr1@std@@QEAA@XZ 0000000180009e94 f i UnityBuildCore.cpp.obj
 0001:00008ec0       ??1?$unique_ptr@VExtException@@U?$default_delete@VExtException@@@std@@@std@@QEAA@XZ 0000000180009ec0 f i UnityBuildCore.cpp.obj
 0001:00008ec0       ??1?$unique_ptr@VTTouchSessionAction@@U?$default_delete@VTTouchSessionAction@@@std@@@std@@QEAA@XZ 0000000180009ec0 f i UnityBuildCore.cpp.obj
 0001:00008ec0       ??1?$unique_ptr@VTChmodSessionAction@@U?$default_delete@VTChmodSessionAction@@@std@@@std@@QEAA@XZ 0000000180009ec0 f i UnityBuildCore.cpp.obj
 0001:00008ec0       ??1?$unique_ptr@VTFileZillaIntf@@U?$default_delete@VTFileZillaIntf@@@std@@@std@@QEAA@XZ 0000000180009ec0 f i UnityBuildCore.cpp.obj
 0001:00008ec0       ??1?$unique_ptr@VException@@U?$default_delete@VException@@@std@@@std@@QEAA@XZ 0000000180009ec0 f i UnityBuildCore.cpp.obj
 0001:00008edc       ??1?$scope_guard@V<lambda171>@?A0xe9eda812@@@detail@Sysutils@@QEAA@XZ 0000000180009edc f i UnityBuildCore.cpp.obj
 0001:00008f04       ?erase@?$basic_string@_WU?$char_traits@_W@std@@V?$allocator@_W@2@@std@@QEAAAEAV12@_K0@Z 0000000180009f04 f i UnityBuildCore.cpp.obj
 0001:00008fa8       ?reallocate_discard_old@?$standard_vector_storage@UTOption@TOptions@@Vallocator@rde@@@rde@@QEAAX_K@Z 0000000180009fa8 f i UnityBuildCore.cpp.obj
 0001:00009050       ?reallocate_discard_old@?$standard_vector_storage@_JVallocator@rde@@@rde@@QEAAX_K@Z 000000018000a050 f i UnityBuildCore.cpp.obj
 0001:000090c0       ?reallocate@?$standard_vector_storage@_JVallocator@rde@@@rde@@QEAAX_K0@Z 000000018000a0c0 f i UnityBuildCore.cpp.obj
 0001:000090c0       ?reallocate@?$standard_vector_storage@_KVallocator@rde@@@rde@@QEAAX_K0@Z 000000018000a0c0 f i UnityBuildCore.cpp.obj
 0001:0000914c       ?erase@?$rb_tree_base@U?$map_traits@KPEAVTStrings@@@?$map@KPEAVTStrings@@Vallocator@rde@@@rde@@Vallocator@3@@rde@@QEAAXPEAUnode@12@@Z 000000018000a14c f i UnityBuildCore.cpp.obj
 0001:000091f4       ?_Copy@?$basic_string@DU?$char_traits@D@std@@V?$allocator@D@2@@std@@QEAAX_K0@Z 000000018000a1f4 f i UnityBuildCore.cpp.obj
 0001:00009330       ?_Copy@?$basic_string@_WU?$char_traits@_W@std@@V?$allocator@_W@2@@std@@QEAAX_K0@Z 000000018000a330 f i UnityBuildCore.cpp.obj
 0001:00009484       ?reallocate@?$standard_vector_storage@EVallocator@rde@@@rde@@QEAAX_K0@Z 000000018000a484 f i UnityBuildCore.cpp.obj
 0001:00009484       ?reallocate@?$standard_vector_storage@DVallocator@rde@@@rde@@QEAAX_K0@Z 000000018000a484 f i UnityBuildCore.cpp.obj
 0001:00009484       ?reallocate@?$standard_vector_storage@_NVallocator@rde@@@rde@@QEAAX_K0@Z 000000018000a484 f i UnityBuildCore.cpp.obj
 0001:00009508       ?Empty@?$CMSimpleStringT@_W@@QEAAXXZ 000000018000a508 f i UnityBuildCore.cpp.obj
 0001:00009550       ??$use_facet@V?$ctype@_W@std@@@std@@YAAEBV?$ctype@_W@0@AEBVlocale@0@@Z 000000018000a550 f i UnityBuildCore.cpp.obj
 0001:000096a4       ??$?6V<lambda197>@?A0xe9eda812@@@make_scope_guard@detail@Sysutils@@QEAA?AV?$scope_guard@V<lambda197>@?A0xe9eda812@@@12@$$QEAV<lambda197>@?A0xe9eda812@@@Z 000000018000a6a4 f i UnityBuildCore.cpp.obj
 0001:000096a4       ??$?6V<lambda1>@?A0xe9eda812@@@make_scope_guard@detail@Sysutils@@QEAA?AV?$scope_guard@V<lambda1>@?A0xe9eda812@@@12@$$QEAV<lambda1>@?A0xe9eda812@@@Z 000000018000a6a4 f i UnityBuildCore.cpp.obj
 0001:000096a4       ??$?6V<lambda251>@?A0xe9eda812@@@make_scope_guard@detail@Sysutils@@QEAA?AV?$scope_guard@V<lambda251>@?A0xe9eda812@@@12@$$QEAV<lambda251>@?A0xe9eda812@@@Z 000000018000a6a4 f i UnityBuildCore.cpp.obj
 0001:000096a4       ??$?6V<lambda351>@?A0xe9eda812@@@make_scope_guard@detail@Sysutils@@QEAA?AV?$scope_guard@V<lambda351>@?A0xe9eda812@@@12@$$QEAV<lambda351>@?A0xe9eda812@@@Z 000000018000a6a4 f i UnityBuildCore.cpp.obj
 0001:000096a4       ??$?6V<lambda7>@?A0xe9eda812@@@make_scope_guard@detail@Sysutils@@QEAA?AV?$scope_guard@V<lambda7>@?A0xe9eda812@@@12@$$QEAV<lambda7>@?A0xe9eda812@@@Z 000000018000a6a4 f i UnityBuildCore.cpp.obj
 0001:000096a4       ??$?6V<lambda114>@?A0xe9eda812@@@make_scope_guard@detail@Sysutils@@QEAA?AV?$scope_guard@V<lambda114>@?A0xe9eda812@@@12@$$QEAV<lambda114>@?A0xe9eda812@@@Z 000000018000a6a4 f i UnityBuildCore.cpp.obj
 0001:000096a4       ??$?6V<lambda295>@?A0xe9eda812@@@make_scope_guard@detail@Sysutils@@QEAA?AV?$scope_guard@V<lambda295>@?A0xe9eda812@@@12@$$QEAV<lambda295>@?A0xe9eda812@@@Z 000000018000a6a4 f i UnityBuildCore.cpp.obj
 0001:000096a4       ??$?6V<lambda1>@?A0x3bbb5945@@@make_scope_guard@detail@Sysutils@@QEAA?AV?$scope_guard@V<lambda1>@?A0x3bbb5945@@@12@$$QEAV<lambda1>@?A0x3bbb5945@@@Z 000000018000a6a4 f i UnityBuildMain.cpp.obj
 0001:000096a4       ??$?6V<lambda256>@?A0xe9eda812@@@make_scope_guard@detail@Sysutils@@QEAA?AV?$scope_guard@V<lambda256>@?A0xe9eda812@@@12@$$QEAV<lambda256>@?A0xe9eda812@@@Z 000000018000a6a4 f i UnityBuildCore.cpp.obj
 0001:000096a4       ??$?6V<lambda14>@?A0x3bbb5945@@@make_scope_guard@detail@Sysutils@@QEAA?AV?$scope_guard@V<lambda14>@?A0x3bbb5945@@@12@$$QEAV<lambda14>@?A0x3bbb5945@@@Z 000000018000a6a4 f i UnityBuildMain.cpp.obj
 0001:000096c4       ??$?6V<lambda11>@?A0xe9eda812@@@make_scope_guard@detail@Sysutils@@QEAA?AV?$scope_guard@V<lambda11>@?A0xe9eda812@@@12@$$QEAV<lambda11>@?A0xe9eda812@@@Z 000000018000a6c4 f i UnityBuildCore.cpp.obj
 0001:000096c4       ??$?6V<lambda103>@?A0xe9eda812@@@make_scope_guard@detail@Sysutils@@QEAA?AV?$scope_guard@V<lambda103>@?A0xe9eda812@@@12@$$QEAV<lambda103>@?A0xe9eda812@@@Z 000000018000a6c4 f i UnityBuildCore.cpp.obj
 0001:000096c4       ??$?6V<lambda264>@?A0xe9eda812@@@make_scope_guard@detail@Sysutils@@QEAA?AV?$scope_guard@V<lambda264>@?A0xe9eda812@@@12@$$QEAV<lambda264>@?A0xe9eda812@@@Z 000000018000a6c4 f i UnityBuildCore.cpp.obj
 0001:000096c4       ??$?6V<lambda305>@?A0xe9eda812@@@make_scope_guard@detail@Sysutils@@QEAA?AV?$scope_guard@V<lambda305>@?A0xe9eda812@@@12@$$QEAV<lambda305>@?A0xe9eda812@@@Z 000000018000a6c4 f i UnityBuildCore.cpp.obj
 0001:000096c4       ??$?6V<lambda212>@?A0xe9eda812@@@make_scope_guard@detail@Sysutils@@QEAA?AV?$scope_guard@V<lambda212>@?A0xe9eda812@@@12@$$QEAV<lambda212>@?A0xe9eda812@@@Z 000000018000a6c4 f i UnityBuildCore.cpp.obj
 0001:000096c4       ??$?6V<lambda20>@?A0x3bbb5945@@@make_scope_guard@detail@Sysutils@@QEAA?AV?$scope_guard@V<lambda20>@?A0x3bbb5945@@@12@$$QEAV<lambda20>@?A0x3bbb5945@@@Z 000000018000a6c4 f i UnityBuildMain.cpp.obj
 0001:000096c4       ??$?6V<lambda10>@?A0x3bbb5945@@@make_scope_guard@detail@Sysutils@@QEAA?AV?$scope_guard@V<lambda10>@?A0x3bbb5945@@@12@$$QEAV<lambda10>@?A0x3bbb5945@@@Z 000000018000a6c4 f i UnityBuildMain.cpp.obj
 0001:000096c4       ??$?6V<lambda334>@?A0xe9eda812@@@make_scope_guard@detail@Sysutils@@QEAA?AV?$scope_guard@V<lambda334>@?A0xe9eda812@@@12@$$QEAV<lambda334>@?A0xe9eda812@@@Z 000000018000a6c4 f i UnityBuildCore.cpp.obj
 0001:000096c4       ??$?6V<lambda73>@?A0xe9eda812@@@make_scope_guard@detail@Sysutils@@QEAA?AV?$scope_guard@V<lambda73>@?A0xe9eda812@@@12@$$QEAV<lambda73>@?A0xe9eda812@@@Z 000000018000a6c4 f i UnityBuildCore.cpp.obj
 0001:000096c4       ??$?6V<lambda94>@?A0xe9eda812@@@make_scope_guard@detail@Sysutils@@QEAA?AV?$scope_guard@V<lambda94>@?A0xe9eda812@@@12@$$QEAV<lambda94>@?A0xe9eda812@@@Z 000000018000a6c4 f i UnityBuildCore.cpp.obj
 0001:000096c4       ??$?6V<lambda309>@?A0xe9eda812@@@make_scope_guard@detail@Sysutils@@QEAA?AV?$scope_guard@V<lambda309>@?A0xe9eda812@@@12@$$QEAV<lambda309>@?A0xe9eda812@@@Z 000000018000a6c4 f i UnityBuildCore.cpp.obj
 0001:000096c4       ??$?6V<lambda6>@?A0x3bbb5945@@@make_scope_guard@detail@Sysutils@@QEAA?AV?$scope_guard@V<lambda6>@?A0x3bbb5945@@@12@$$QEAV<lambda6>@?A0x3bbb5945@@@Z 000000018000a6c4 f i UnityBuildMain.cpp.obj
 0001:000096c4       ??$?6V<lambda245>@?A0xe9eda812@@@make_scope_guard@detail@Sysutils@@QEAA?AV?$scope_guard@V<lambda245>@?A0xe9eda812@@@12@$$QEAV<lambda245>@?A0xe9eda812@@@Z 000000018000a6c4 f i UnityBuildCore.cpp.obj
 0001:000096c4       ??$?6V<lambda6>@?A0xe9eda812@@@make_scope_guard@detail@Sysutils@@QEAA?AV?$scope_guard@V<lambda6>@?A0xe9eda812@@@12@$$QEAV<lambda6>@?A0xe9eda812@@@Z 000000018000a6c4 f i UnityBuildCore.cpp.obj
 0001:000096c4       ??$?6V<lambda23>@?A0x3bbb5945@@@make_scope_guard@detail@Sysutils@@QEAA?AV?$scope_guard@V<lambda23>@?A0x3bbb5945@@@12@$$QEAV<lambda23>@?A0x3bbb5945@@@Z 000000018000a6c4 f i UnityBuildMain.cpp.obj
 0001:000096c4       ??$?6V<lambda171>@?A0xe9eda812@@@make_scope_guard@detail@Sysutils@@QEAA?AV?$scope_guard@V<lambda171>@?A0xe9eda812@@@12@$$QEAV<lambda171>@?A0xe9eda812@@@Z 000000018000a6c4 f i UnityBuildCore.cpp.obj
 0001:000096c4       ??$?6V<lambda161>@?A0xe9eda812@@@make_scope_guard@detail@Sysutils@@QEAA?AV?$scope_guard@V<lambda161>@?A0xe9eda812@@@12@$$QEAV<lambda161>@?A0xe9eda812@@@Z 000000018000a6c4 f i UnityBuildCore.cpp.obj
 0001:000096c4       ??$?6V<lambda8>@?A0xe9eda812@@@make_scope_guard@detail@Sysutils@@QEAA?AV?$scope_guard@V<lambda8>@?A0xe9eda812@@@12@$$QEAV<lambda8>@?A0xe9eda812@@@Z 000000018000a6c4 f i UnityBuildCore.cpp.obj
 0001:000096c4       ??$?6V<lambda120>@?A0xe9eda812@@@make_scope_guard@detail@Sysutils@@QEAA?AV?$scope_guard@V<lambda120>@?A0xe9eda812@@@12@$$QEAV<lambda120>@?A0xe9eda812@@@Z 000000018000a6c4 f i UnityBuildCore.cpp.obj
 0001:000096c4       ??$?6V<lambda341>@?A0xe9eda812@@@make_scope_guard@detail@Sysutils@@QEAA?AV?$scope_guard@V<lambda341>@?A0xe9eda812@@@12@$$QEAV<lambda341>@?A0xe9eda812@@@Z 000000018000a6c4 f i UnityBuildCore.cpp.obj
 0001:000096c4       ??$?6V<lambda112>@?A0xe9eda812@@@make_scope_guard@detail@Sysutils@@QEAA?AV?$scope_guard@V<lambda112>@?A0xe9eda812@@@12@$$QEAV<lambda112>@?A0xe9eda812@@@Z 000000018000a6c4 f i UnityBuildCore.cpp.obj
 0001:000096c4       ??$?6V<lambda57>@?A0xe9eda812@@@make_scope_guard@detail@Sysutils@@QEAA?AV?$scope_guard@V<lambda57>@?A0xe9eda812@@@12@$$QEAV<lambda57>@?A0xe9eda812@@@Z 000000018000a6c4 f i UnityBuildCore.cpp.obj
 0001:000096c4       ??$?6V<lambda41>@?A0x3bbb5945@@@make_scope_guard@detail@Sysutils@@QEAA?AV?$scope_guard@V<lambda41>@?A0x3bbb5945@@@12@$$QEAV<lambda41>@?A0x3bbb5945@@@Z 000000018000a6c4 f i UnityBuildMain.cpp.obj
 0001:000096c4       ??$?6V<lambda9>@?A0x3bbb5945@@@make_scope_guard@detail@Sysutils@@QEAA?AV?$scope_guard@V<lambda9>@?A0x3bbb5945@@@12@$$QEAV<lambda9>@?A0x3bbb5945@@@Z 000000018000a6c4 f i UnityBuildMain.cpp.obj
 0001:000096c4       ??$?6V<lambda96>@?A0xe9eda812@@@make_scope_guard@detail@Sysutils@@QEAA?AV?$scope_guard@V<lambda96>@?A0xe9eda812@@@12@$$QEAV<lambda96>@?A0xe9eda812@@@Z 000000018000a6c4 f i UnityBuildCore.cpp.obj
 0001:000096c4       ??$?6V<lambda190>@?A0xe9eda812@@@make_scope_guard@detail@Sysutils@@QEAA?AV?$scope_guard@V<lambda190>@?A0xe9eda812@@@12@$$QEAV<lambda190>@?A0xe9eda812@@@Z 000000018000a6c4 f i UnityBuildCore.cpp.obj
 0001:000096c4       ??$?6V<lambda43>@?A0xe9eda812@@@make_scope_guard@detail@Sysutils@@QEAA?AV?$scope_guard@V<lambda43>@?A0xe9eda812@@@12@$$QEAV<lambda43>@?A0xe9eda812@@@Z 000000018000a6c4 f i UnityBuildCore.cpp.obj
 0001:000096c4       ??$?6V<lambda56>@?A0xe9eda812@@@make_scope_guard@detail@Sysutils@@QEAA?AV?$scope_guard@V<lambda56>@?A0xe9eda812@@@12@$$QEAV<lambda56>@?A0xe9eda812@@@Z 000000018000a6c4 f i UnityBuildCore.cpp.obj
 0001:000096c4       ??$?6V<lambda62>@?A0xe9eda812@@@make_scope_guard@detail@Sysutils@@QEAA?AV?$scope_guard@V<lambda62>@?A0xe9eda812@@@12@$$QEAV<lambda62>@?A0xe9eda812@@@Z 000000018000a6c4 f i UnityBuildCore.cpp.obj
 0001:000096c4       ??$?6V<lambda203>@?A0xe9eda812@@@make_scope_guard@detail@Sysutils@@QEAA?AV?$scope_guard@V<lambda203>@?A0xe9eda812@@@12@$$QEAV<lambda203>@?A0xe9eda812@@@Z 000000018000a6c4 f i UnityBuildCore.cpp.obj
 0001:000096c4       ??$?6V<lambda249>@?A0xe9eda812@@@make_scope_guard@detail@Sysutils@@QEAA?AV?$scope_guard@V<lambda249>@?A0xe9eda812@@@12@$$QEAV<lambda249>@?A0xe9eda812@@@Z 000000018000a6c4 f i UnityBuildCore.cpp.obj
 0001:000096d8       ?reallocate@?$standard_vector_storage@W4TCipher@@Vallocator@rde@@@rde@@QEAAX_K0@Z 000000018000a6d8 f i UnityBuildCore.cpp.obj
 0001:000096d8       ?reallocate@?$standard_vector_storage@W4TGssLib@@Vallocator@rde@@@rde@@QEAAX_K0@Z 000000018000a6d8 f i UnityBuildCore.cpp.obj
 0001:000096d8       ?reallocate@?$standard_vector_storage@W4TKex@@Vallocator@rde@@@rde@@QEAAX_K0@Z 000000018000a6d8 f i UnityBuildCore.cpp.obj
 0001:00009764       ?insert@?$vector@W4TKex@@Vallocator@rde@@U?$standard_vector_storage@W4TKex@@Vallocator@rde@@@3@@rde@@QEAAX_K0AEBW4TKex@@@Z 000000018000a764 f i UnityBuildCore.cpp.obj
 0001:00009764       ?insert@?$vector@W4TCipher@@Vallocator@rde@@U?$standard_vector_storage@W4TCipher@@Vallocator@rde@@@3@@rde@@QEAAX_K0AEBW4TCipher@@@Z 000000018000a764 f i UnityBuildCore.cpp.obj
 0001:00009764       ?insert@?$vector@W4TGssLib@@Vallocator@rde@@U?$standard_vector_storage@W4TGssLib@@Vallocator@rde@@@3@@rde@@QEAAX_K0AEBW4TGssLib@@@Z 000000018000a764 f i UnityBuildCore.cpp.obj
 0001:000098a0       ?Fork@?$CMSimpleStringT@_W@@AEAAXH@Z 000000018000a8a0 f i UnityBuildCore.cpp.obj
 0001:00009928       ??1?$CMSimpleStringT@_W@@QEAA@XZ 000000018000a928 f i UnityBuildCore.cpp.obj
 0001:00009928       ??1?$CMSimpleStringT@D@@QEAA@XZ 000000018000a928 f i UnityBuildCore.cpp.obj
 0001:00009928       ??1?$CMSimpleStringT@E@@QEAA@XZ 000000018000a928 f i UnityBuildCore.cpp.obj
 0001:00009934       ?PrepareWrite2@?$CMSimpleStringT@_W@@AEAAXH@Z 000000018000a934 f i UnityBuildCore.cpp.obj
 0001:00009980       ?Fork@?$CMSimpleStringT@E@@AEAAXH@Z 000000018000a980 f i UnityBuildCore.cpp.obj
 0001:00009980       ?Fork@?$CMSimpleStringT@D@@AEAAXH@Z 000000018000a980 f i UnityBuildCore.cpp.obj
 0001:00009a08       ?PrepareWrite2@?$CMSimpleStringT@D@@AEAAXH@Z 000000018000aa08 f i UnityBuildCore.cpp.obj
 0001:00009a08       ?PrepareWrite2@?$CMSimpleStringT@E@@AEAAXH@Z 000000018000aa08 f i UnityBuildCore.cpp.obj
 0001:00009a54       ??$format_decimal@ID@internal@fmt@@YAXPEADII@Z 000000018000aa54 f i UnityBuildCore.cpp.obj
 0001:00009ac0       ?_Target_type@?$_Impl_no_alloc0@U?$_Callable_obj@V<lambda12>@?A0xe9eda812@@$0A@@tr1@std@@X@tr1@std@@UEBAAEBVtype_info@@XZ 000000018000aac0 f i UnityBuildCore.cpp.obj
 0001:00009ac8       ?_Copy@?$_Impl_no_alloc0@U?$_Callable_obj@V<lambda12>@?A0xe9eda812@@$0A@@tr1@std@@X@tr1@std@@UEAAPEAV?$_Impl_base0@X@23@PEAX@Z 000000018000aac8 f i UnityBuildCore.cpp.obj
 0001:00009b34       ?_Target_type@?$_Impl_no_alloc0@U?$_Callable_obj@V<lambda17>@?A0xe9eda812@@$0A@@tr1@std@@X@tr1@std@@UEBAAEBVtype_info@@XZ 000000018000ab34 f i UnityBuildCore.cpp.obj
 0001:00009b3c       ?_Copy@?$_Impl_no_alloc0@U?$_Callable_obj@V<lambda17>@?A0xe9eda812@@$0A@@tr1@std@@X@tr1@std@@UEAAPEAV?$_Impl_base0@X@23@PEAX@Z 000000018000ab3c f i UnityBuildCore.cpp.obj
 0001:00009ba8       ?_Target_type@?$_Impl_no_alloc0@U?$_Callable_obj@V<lambda19>@?A0xe9eda812@@$0A@@tr1@std@@X@tr1@std@@UEBAAEBVtype_info@@XZ 000000018000aba8 f i UnityBuildCore.cpp.obj
 0001:00009bb0       ?_Copy@?$_Impl_no_alloc0@U?$_Callable_obj@V<lambda19>@?A0xe9eda812@@$0A@@tr1@std@@X@tr1@std@@UEAAPEAV?$_Impl_base0@X@23@PEAX@Z 000000018000abb0 f i UnityBuildCore.cpp.obj
 0001:00009c1c       ?_Target_type@?$_Impl_no_alloc0@U?$_Callable_obj@V<lambda20>@?A0xe9eda812@@$0A@@tr1@std@@X@tr1@std@@UEBAAEBVtype_info@@XZ 000000018000ac1c f i UnityBuildCore.cpp.obj
 0001:00009c24       ?_Copy@?$_Impl_no_alloc0@U?$_Callable_obj@V<lambda20>@?A0xe9eda812@@$0A@@tr1@std@@X@tr1@std@@UEAAPEAV?$_Impl_base0@X@23@PEAX@Z 000000018000ac24 f i UnityBuildCore.cpp.obj
 0001:00009c90       ?_Target_type@?$_Impl_no_alloc0@U?$_Callable_obj@V<lambda22>@?A0xe9eda812@@$0A@@tr1@std@@X@tr1@std@@UEBAAEBVtype_info@@XZ 000000018000ac90 f i UnityBuildCore.cpp.obj
 0001:00009c98       ?_Copy@?$_Impl_no_alloc0@U?$_Callable_obj@V<lambda22>@?A0xe9eda812@@$0A@@tr1@std@@X@tr1@std@@UEAAPEAV?$_Impl_base0@X@23@PEAX@Z 000000018000ac98 f i UnityBuildCore.cpp.obj
 0001:00009d04       ?_Target_type@?$_Impl_no_alloc0@U?$_Callable_obj@V<lambda24>@?A0xe9eda812@@$0A@@tr1@std@@X@tr1@std@@UEBAAEBVtype_info@@XZ 000000018000ad04 f i UnityBuildCore.cpp.obj
 0001:00009d0c       ?_Copy@?$_Impl_no_alloc0@U?$_Callable_obj@V<lambda24>@?A0xe9eda812@@$0A@@tr1@std@@X@tr1@std@@UEAAPEAV?$_Impl_base0@X@23@PEAX@Z 000000018000ad0c f i UnityBuildCore.cpp.obj
 0001:00009d78       ?_Target_type@?$_Impl_no_alloc0@U?$_Callable_obj@V<lambda26>@?A0xe9eda812@@$0A@@tr1@std@@X@tr1@std@@UEBAAEBVtype_info@@XZ 000000018000ad78 f i UnityBuildCore.cpp.obj
 0001:00009d80       ?_Copy@?$_Impl_no_alloc0@U?$_Callable_obj@V<lambda26>@?A0xe9eda812@@$0A@@tr1@std@@X@tr1@std@@UEAAPEAV?$_Impl_base0@X@23@PEAX@Z 000000018000ad80 f i UnityBuildCore.cpp.obj
 0001:00009dec       ?_Target_type@?$_Impl_no_alloc0@U?$_Callable_obj@V<lambda28>@?A0xe9eda812@@$0A@@tr1@std@@X@tr1@std@@UEBAAEBVtype_info@@XZ 000000018000adec f i UnityBuildCore.cpp.obj
 0001:00009df4       ?_Copy@?$_Impl_no_alloc0@U?$_Callable_obj@V<lambda28>@?A0xe9eda812@@$0A@@tr1@std@@X@tr1@std@@UEAAPEAV?$_Impl_base0@X@23@PEAX@Z 000000018000adf4 f i UnityBuildCore.cpp.obj
 0001:00009e60       ?_Target_type@?$_Impl_no_alloc0@U?$_Callable_obj@V<lambda30>@?A0xe9eda812@@$0A@@tr1@std@@X@tr1@std@@UEBAAEBVtype_info@@XZ 000000018000ae60 f i UnityBuildCore.cpp.obj
 0001:00009e68       ?_Copy@?$_Impl_no_alloc0@U?$_Callable_obj@V<lambda30>@?A0xe9eda812@@$0A@@tr1@std@@X@tr1@std@@UEAAPEAV?$_Impl_base0@X@23@PEAX@Z 000000018000ae68 f i UnityBuildCore.cpp.obj
 0001:00009ed4       ?_Target_type@?$_Impl_no_alloc0@U?$_Callable_obj@V<lambda31>@?A0xe9eda812@@$0A@@tr1@std@@X@tr1@std@@UEBAAEBVtype_info@@XZ 000000018000aed4 f i UnityBuildCore.cpp.obj
 0001:00009edc       ?_Copy@?$_Impl_no_alloc0@U?$_Callable_obj@V<lambda31>@?A0xe9eda812@@$0A@@tr1@std@@X@tr1@std@@UEAAPEAV?$_Impl_base0@X@23@PEAX@Z 000000018000aedc f i UnityBuildCore.cpp.obj
 0001:00009f48       ?_Target_type@?$_Impl_no_alloc0@U?$_Callable_obj@V<lambda32>@?A0xe9eda812@@$0A@@tr1@std@@X@tr1@std@@UEBAAEBVtype_info@@XZ 000000018000af48 f i UnityBuildCore.cpp.obj
 0001:00009f50       ?_Copy@?$_Impl_no_alloc0@U?$_Callable_obj@V<lambda32>@?A0xe9eda812@@$0A@@tr1@std@@X@tr1@std@@UEAAPEAV?$_Impl_base0@X@23@PEAX@Z 000000018000af50 f i UnityBuildCore.cpp.obj
 0001:00009fbc       ?_Target_type@?$_Impl_no_alloc0@U?$_Callable_obj@V<lambda33>@?A0xe9eda812@@$0A@@tr1@std@@X@tr1@std@@UEBAAEBVtype_info@@XZ 000000018000afbc f i UnityBuildCore.cpp.obj
 0001:00009fc4       ?_Copy@?$_Impl_no_alloc0@U?$_Callable_obj@V<lambda33>@?A0xe9eda812@@$0A@@tr1@std@@X@tr1@std@@UEAAPEAV?$_Impl_base0@X@23@PEAX@Z 000000018000afc4 f i UnityBuildCore.cpp.obj
 0001:0000a048       ?_Target_type@?$_Impl_no_alloc0@U?$_Callable_obj@V<lambda35>@?A0xe9eda812@@$0A@@tr1@std@@X@tr1@std@@UEBAAEBVtype_info@@XZ 000000018000b048 f i UnityBuildCore.cpp.obj
 0001:0000a050       ?_Copy@?$_Impl_no_alloc0@U?$_Callable_obj@V<lambda35>@?A0xe9eda812@@$0A@@tr1@std@@X@tr1@std@@UEAAPEAV?$_Impl_base0@X@23@PEAX@Z 000000018000b050 f i UnityBuildCore.cpp.obj
 0001:0000a0bc       ?_Target_type@?$_Impl_no_alloc0@U?$_Callable_obj@V<lambda36>@?A0xe9eda812@@$0A@@tr1@std@@X@tr1@std@@UEBAAEBVtype_info@@XZ 000000018000b0bc f i UnityBuildCore.cpp.obj
 0001:0000a0c4       ?_Copy@?$_Impl_no_alloc0@U?$_Callable_obj@V<lambda36>@?A0xe9eda812@@$0A@@tr1@std@@X@tr1@std@@UEAAPEAV?$_Impl_base0@X@23@PEAX@Z 000000018000b0c4 f i UnityBuildCore.cpp.obj
 0001:0000a130       ?_Target_type@?$_Impl_no_alloc0@U?$_Callable_obj@V<lambda38>@?A0xe9eda812@@$0A@@tr1@std@@X@tr1@std@@UEBAAEBVtype_info@@XZ 000000018000b130 f i UnityBuildCore.cpp.obj
 0001:0000a138       ?_Copy@?$_Impl_no_alloc0@U?$_Callable_obj@V<lambda38>@?A0xe9eda812@@$0A@@tr1@std@@X@tr1@std@@UEAAPEAV?$_Impl_base0@X@23@PEAX@Z 000000018000b138 f i UnityBuildCore.cpp.obj
 0001:0000a1a4       ?_Target_type@?$_Impl_no_alloc0@U?$_Callable_obj@V<lambda40>@?A0xe9eda812@@$0A@@tr1@std@@X@tr1@std@@UEBAAEBVtype_info@@XZ 000000018000b1a4 f i UnityBuildCore.cpp.obj
 0001:0000a1ac       ?_Copy@?$_Impl_no_alloc0@U?$_Callable_obj@V<lambda40>@?A0xe9eda812@@$0A@@tr1@std@@X@tr1@std@@UEAAPEAV?$_Impl_base0@X@23@PEAX@Z 000000018000b1ac f i UnityBuildCore.cpp.obj
 0001:0000a218       ?_Target_type@?$_Impl_no_alloc0@U?$_Callable_obj@V<lambda42>@?A0xe9eda812@@$0A@@tr1@std@@X@tr1@std@@UEBAAEBVtype_info@@XZ 000000018000b218 f i UnityBuildCore.cpp.obj
 0001:0000a220       ?_Copy@?$_Impl_no_alloc0@U?$_Callable_obj@V<lambda42>@?A0xe9eda812@@$0A@@tr1@std@@X@tr1@std@@UEAAPEAV?$_Impl_base0@X@23@PEAX@Z 000000018000b220 f i UnityBuildCore.cpp.obj
 0001:0000a28c       ?_Target_type@?$_Impl_no_alloc0@U?$_Callable_obj@V<lambda44>@?A0xe9eda812@@$0A@@tr1@std@@X@tr1@std@@UEBAAEBVtype_info@@XZ 000000018000b28c f i UnityBuildCore.cpp.obj
 0001:0000a294       ?_Copy@?$_Impl_no_alloc0@U?$_Callable_obj@V<lambda44>@?A0xe9eda812@@$0A@@tr1@std@@X@tr1@std@@UEAAPEAV?$_Impl_base0@X@23@PEAX@Z 000000018000b294 f i UnityBuildCore.cpp.obj
 0001:0000a300       ?_Target_type@?$_Impl_no_alloc0@U?$_Callable_obj@V<lambda46>@?A0xe9eda812@@$0A@@tr1@std@@X@tr1@std@@UEBAAEBVtype_info@@XZ 000000018000b300 f i UnityBuildCore.cpp.obj
 0001:0000a308       ?_Copy@?$_Impl_no_alloc0@U?$_Callable_obj@V<lambda46>@?A0xe9eda812@@$0A@@tr1@std@@X@tr1@std@@UEAAPEAV?$_Impl_base0@X@23@PEAX@Z 000000018000b308 f i UnityBuildCore.cpp.obj
 0001:0000a374       ?_Target_type@?$_Impl_no_alloc0@U?$_Callable_obj@V<lambda48>@?A0xe9eda812@@$0A@@tr1@std@@X@tr1@std@@UEBAAEBVtype_info@@XZ 000000018000b374 f i UnityBuildCore.cpp.obj
 0001:0000a37c       ?_Copy@?$_Impl_no_alloc0@U?$_Callable_obj@V<lambda48>@?A0xe9eda812@@$0A@@tr1@std@@X@tr1@std@@UEAAPEAV?$_Impl_base0@X@23@PEAX@Z 000000018000b37c f i UnityBuildCore.cpp.obj
 0001:0000a3e8       ?_Target_type@?$_Impl_no_alloc0@U?$_Callable_obj@V<lambda50>@?A0xe9eda812@@$0A@@tr1@std@@X@tr1@std@@UEBAAEBVtype_info@@XZ 000000018000b3e8 f i UnityBuildCore.cpp.obj
 0001:0000a3f0       ?_Copy@?$_Impl_no_alloc0@U?$_Callable_obj@V<lambda50>@?A0xe9eda812@@$0A@@tr1@std@@X@tr1@std@@UEAAPEAV?$_Impl_base0@X@23@PEAX@Z 000000018000b3f0 f i UnityBuildCore.cpp.obj
 0001:0000a45c       ?_Target_type@?$_Impl_no_alloc0@U?$_Callable_obj@V<lambda52>@?A0xe9eda812@@$0A@@tr1@std@@X@tr1@std@@UEBAAEBVtype_info@@XZ 000000018000b45c f i UnityBuildCore.cpp.obj
 0001:0000a464       ?_Copy@?$_Impl_no_alloc0@U?$_Callable_obj@V<lambda52>@?A0xe9eda812@@$0A@@tr1@std@@X@tr1@std@@UEAAPEAV?$_Impl_base0@X@23@PEAX@Z 000000018000b464 f i UnityBuildCore.cpp.obj
 0001:0000a4d0       ?_Target_type@?$_Impl_no_alloc0@U?$_Callable_obj@V<lambda53>@?A0xe9eda812@@$0A@@tr1@std@@X@tr1@std@@UEBAAEBVtype_info@@XZ 000000018000b4d0 f i UnityBuildCore.cpp.obj
 0001:0000a4d8       ?_Copy@?$_Impl_no_alloc0@U?$_Callable_obj@V<lambda53>@?A0xe9eda812@@$0A@@tr1@std@@X@tr1@std@@UEAAPEAV?$_Impl_base0@X@23@PEAX@Z 000000018000b4d8 f i UnityBuildCore.cpp.obj
 0001:0000a544       ?_Target_type@?$_Impl_no_alloc0@U?$_Callable_obj@V<lambda55>@?A0xe9eda812@@$0A@@tr1@std@@X@tr1@std@@UEBAAEBVtype_info@@XZ 000000018000b544 f i UnityBuildCore.cpp.obj
 0001:0000a54c       ?_Copy@?$_Impl_no_alloc0@U?$_Callable_obj@V<lambda55>@?A0xe9eda812@@$0A@@tr1@std@@X@tr1@std@@UEAAPEAV?$_Impl_base0@X@23@PEAX@Z 000000018000b54c f i UnityBuildCore.cpp.obj
 0001:0000a5b8       ?_Target_type@?$_Impl_no_alloc0@U?$_Callable_obj@V<lambda59>@?A0xe9eda812@@$0A@@tr1@std@@X@tr1@std@@UEBAAEBVtype_info@@XZ 000000018000b5b8 f i UnityBuildCore.cpp.obj
 0001:0000a5c0       ?_Copy@?$_Impl_no_alloc0@U?$_Callable_obj@V<lambda59>@?A0xe9eda812@@$0A@@tr1@std@@X@tr1@std@@UEAAPEAV?$_Impl_base0@X@23@PEAX@Z 000000018000b5c0 f i UnityBuildCore.cpp.obj
 0001:0000a62c       ?_Target_type@?$_Impl_no_alloc0@U?$_Callable_obj@V<lambda60>@?A0xe9eda812@@$0A@@tr1@std@@X@tr1@std@@UEBAAEBVtype_info@@XZ 000000018000b62c f i UnityBuildCore.cpp.obj
 0001:0000a634       ?_Copy@?$_Impl_no_alloc0@U?$_Callable_obj@V<lambda60>@?A0xe9eda812@@$0A@@tr1@std@@X@tr1@std@@UEAAPEAV?$_Impl_base0@X@23@PEAX@Z 000000018000b634 f i UnityBuildCore.cpp.obj
 0001:0000a6a0       ?_Target_type@?$_Impl_no_alloc0@U?$_Callable_obj@V<lambda61>@?A0xe9eda812@@$0A@@tr1@std@@X@tr1@std@@UEBAAEBVtype_info@@XZ 000000018000b6a0 f i UnityBuildCore.cpp.obj
 0001:0000a6a8       ?_Copy@?$_Impl_no_alloc0@U?$_Callable_obj@V<lambda61>@?A0xe9eda812@@$0A@@tr1@std@@X@tr1@std@@UEAAPEAV?$_Impl_base0@X@23@PEAX@Z 000000018000b6a8 f i UnityBuildCore.cpp.obj
 0001:0000a714       ?_Target_type@?$_Impl_no_alloc0@U?$_Callable_obj@V<lambda63>@?A0xe9eda812@@$0A@@tr1@std@@X@tr1@std@@UEBAAEBVtype_info@@XZ 000000018000b714 f i UnityBuildCore.cpp.obj
 0001:0000a71c       ?_Copy@?$_Impl_no_alloc0@U?$_Callable_obj@V<lambda63>@?A0xe9eda812@@$0A@@tr1@std@@X@tr1@std@@UEAAPEAV?$_Impl_base0@X@23@PEAX@Z 000000018000b71c f i UnityBuildCore.cpp.obj
 0001:0000a788       ?_Target_type@?$_Impl_no_alloc0@U?$_Callable_obj@V<lambda65>@?A0xe9eda812@@$0A@@tr1@std@@X@tr1@std@@UEBAAEBVtype_info@@XZ 000000018000b788 f i UnityBuildCore.cpp.obj
 0001:0000a790       ?_Copy@?$_Impl_no_alloc0@U?$_Callable_obj@V<lambda65>@?A0xe9eda812@@$0A@@tr1@std@@X@tr1@std@@UEAAPEAV?$_Impl_base0@X@23@PEAX@Z 000000018000b790 f i UnityBuildCore.cpp.obj
 0001:0000a7fc       ?_Target_type@?$_Impl_no_alloc0@U?$_Callable_obj@V<lambda66>@?A0xe9eda812@@$0A@@tr1@std@@X@tr1@std@@UEBAAEBVtype_info@@XZ 000000018000b7fc f i UnityBuildCore.cpp.obj
 0001:0000a804       ?_Copy@?$_Impl_no_alloc0@U?$_Callable_obj@V<lambda66>@?A0xe9eda812@@$0A@@tr1@std@@X@tr1@std@@UEAAPEAV?$_Impl_base0@X@23@PEAX@Z 000000018000b804 f i UnityBuildCore.cpp.obj
 0001:0000a880       ?_Target_type@?$_Impl_no_alloc0@U?$_Callable_obj@V<lambda67>@?A0xe9eda812@@$0A@@tr1@std@@X@tr1@std@@UEBAAEBVtype_info@@XZ 000000018000b880 f i UnityBuildCore.cpp.obj
 0001:0000a888       ?_Copy@?$_Impl_no_alloc0@U?$_Callable_obj@V<lambda67>@?A0xe9eda812@@$0A@@tr1@std@@X@tr1@std@@UEAAPEAV?$_Impl_base0@X@23@PEAX@Z 000000018000b888 f i UnityBuildCore.cpp.obj
 0001:0000a90c       ?_Target_type@?$_Impl_no_alloc0@U?$_Callable_obj@V<lambda68>@?A0xe9eda812@@$0A@@tr1@std@@X@tr1@std@@UEBAAEBVtype_info@@XZ 000000018000b90c f i UnityBuildCore.cpp.obj
 0001:0000a914       ?_Copy@?$_Impl_no_alloc0@U?$_Callable_obj@V<lambda68>@?A0xe9eda812@@$0A@@tr1@std@@X@tr1@std@@UEAAPEAV?$_Impl_base0@X@23@PEAX@Z 000000018000b914 f i UnityBuildCore.cpp.obj
 0001:0000a990       ?_Target_type@?$_Impl_no_alloc0@U?$_Callable_obj@V<lambda69>@?A0xe9eda812@@$0A@@tr1@std@@X@tr1@std@@UEBAAEBVtype_info@@XZ 000000018000b990 f i UnityBuildCore.cpp.obj
 0001:0000a998       ?_Copy@?$_Impl_no_alloc0@U?$_Callable_obj@V<lambda69>@?A0xe9eda812@@$0A@@tr1@std@@X@tr1@std@@UEAAPEAV?$_Impl_base0@X@23@PEAX@Z 000000018000b998 f i UnityBuildCore.cpp.obj
 0001:0000aa1c       ?_Target_type@?$_Impl_no_alloc0@U?$_Callable_obj@V<lambda70>@?A0xe9eda812@@$0A@@tr1@std@@X@tr1@std@@UEBAAEBVtype_info@@XZ 000000018000ba1c f i UnityBuildCore.cpp.obj
 0001:0000aa24       ?_Copy@?$_Impl_no_alloc0@U?$_Callable_obj@V<lambda70>@?A0xe9eda812@@$0A@@tr1@std@@X@tr1@std@@UEAAPEAV?$_Impl_base0@X@23@PEAX@Z 000000018000ba24 f i UnityBuildCore.cpp.obj
 0001:0000aaa8       ?_Target_type@?$_Impl_no_alloc0@U?$_Callable_obj@V<lambda71>@?A0xe9eda812@@$0A@@tr1@std@@X@tr1@std@@UEBAAEBVtype_info@@XZ 000000018000baa8 f i UnityBuildCore.cpp.obj
 0001:0000aab0       ?_Copy@?$_Impl_no_alloc0@U?$_Callable_obj@V<lambda71>@?A0xe9eda812@@$0A@@tr1@std@@X@tr1@std@@UEAAPEAV?$_Impl_base0@X@23@PEAX@Z 000000018000bab0 f i UnityBuildCore.cpp.obj
 0001:0000ab1c       ?_Target_type@?$_Impl_no_alloc0@U?$_Callable_obj@V<lambda72>@?A0xe9eda812@@$0A@@tr1@std@@X@tr1@std@@UEBAAEBVtype_info@@XZ 000000018000bb1c f i UnityBuildCore.cpp.obj
 0001:0000ab24       ?_Copy@?$_Impl_no_alloc0@U?$_Callable_obj@V<lambda72>@?A0xe9eda812@@$0A@@tr1@std@@X@tr1@std@@UEAAPEAV?$_Impl_base0@X@23@PEAX@Z 000000018000bb24 f i UnityBuildCore.cpp.obj
 0001:0000aba0       ?_Target_type@?$_Impl_no_alloc0@U?$_Callable_obj@V<lambda74>@?A0xe9eda812@@$0A@@tr1@std@@X@tr1@std@@UEBAAEBVtype_info@@XZ 000000018000bba0 f i UnityBuildCore.cpp.obj
 0001:0000aba8       ?_Copy@?$_Impl_no_alloc0@U?$_Callable_obj@V<lambda74>@?A0xe9eda812@@$0A@@tr1@std@@X@tr1@std@@UEAAPEAV?$_Impl_base0@X@23@PEAX@Z 000000018000bba8 f i UnityBuildCore.cpp.obj
 0001:0000ac14       ?_Target_type@?$_Impl_no_alloc0@U?$_Callable_obj@V<lambda76>@?A0xe9eda812@@$0A@@tr1@std@@X@tr1@std@@UEBAAEBVtype_info@@XZ 000000018000bc14 f i UnityBuildCore.cpp.obj
 0001:0000ac1c       ?_Copy@?$_Impl_no_alloc0@U?$_Callable_obj@V<lambda76>@?A0xe9eda812@@$0A@@tr1@std@@X@tr1@std@@UEAAPEAV?$_Impl_base0@X@23@PEAX@Z 000000018000bc1c f i UnityBuildCore.cpp.obj
 0001:0000ac98       ?_Target_type@?$_Impl_no_alloc0@U?$_Callable_obj@V<lambda78>@?A0xe9eda812@@$0A@@tr1@std@@X@tr1@std@@UEBAAEBVtype_info@@XZ 000000018000bc98 f i UnityBuildCore.cpp.obj
 0001:0000aca0       ?_Copy@?$_Impl_no_alloc0@U?$_Callable_obj@V<lambda78>@?A0xe9eda812@@$0A@@tr1@std@@X@tr1@std@@UEAAPEAV?$_Impl_base0@X@23@PEAX@Z 000000018000bca0 f i UnityBuildCore.cpp.obj
 0001:0000ad0c       ?_Target_type@?$_Impl_no_alloc0@U?$_Callable_obj@V<lambda79>@?A0xe9eda812@@$0A@@tr1@std@@X@tr1@std@@UEBAAEBVtype_info@@XZ 000000018000bd0c f i UnityBuildCore.cpp.obj
 0001:0000ad14       ?_Copy@?$_Impl_no_alloc0@U?$_Callable_obj@V<lambda79>@?A0xe9eda812@@$0A@@tr1@std@@X@tr1@std@@UEAAPEAV?$_Impl_base0@X@23@PEAX@Z 000000018000bd14 f i UnityBuildCore.cpp.obj
 0001:0000ad80       ?_Target_type@?$_Impl_no_alloc0@U?$_Callable_obj@V<lambda80>@?A0xe9eda812@@$0A@@tr1@std@@X@tr1@std@@UEBAAEBVtype_info@@XZ 000000018000bd80 f i UnityBuildCore.cpp.obj
 0001:0000ad88       ?_Copy@?$_Impl_no_alloc0@U?$_Callable_obj@V<lambda80>@?A0xe9eda812@@$0A@@tr1@std@@X@tr1@std@@UEAAPEAV?$_Impl_base0@X@23@PEAX@Z 000000018000bd88 f i UnityBuildCore.cpp.obj
 0001:0000adf4       ?_Target_type@?$_Impl_no_alloc0@U?$_Callable_obj@V<lambda81>@?A0xe9eda812@@$0A@@tr1@std@@X@tr1@std@@UEBAAEBVtype_info@@XZ 000000018000bdf4 f i UnityBuildCore.cpp.obj
 0001:0000adfc       ?_Copy@?$_Impl_no_alloc0@U?$_Callable_obj@V<lambda81>@?A0xe9eda812@@$0A@@tr1@std@@X@tr1@std@@UEAAPEAV?$_Impl_base0@X@23@PEAX@Z 000000018000bdfc f i UnityBuildCore.cpp.obj
 0001:0000ae68       ?_Target_type@?$_Impl_no_alloc0@U?$_Callable_obj@V<lambda82>@?A0xe9eda812@@$0A@@tr1@std@@X@tr1@std@@UEBAAEBVtype_info@@XZ 000000018000be68 f i UnityBuildCore.cpp.obj
 0001:0000ae70       ?_Copy@?$_Impl_no_alloc0@U?$_Callable_obj@V<lambda82>@?A0xe9eda812@@$0A@@tr1@std@@X@tr1@std@@UEAAPEAV?$_Impl_base0@X@23@PEAX@Z 000000018000be70 f i UnityBuildCore.cpp.obj
 0001:0000aedc       ?_Target_type@?$_Impl_no_alloc0@U?$_Callable_obj@V<lambda84>@?A0xe9eda812@@$0A@@tr1@std@@X@tr1@std@@UEBAAEBVtype_info@@XZ 000000018000bedc f i UnityBuildCore.cpp.obj
 0001:0000aee4       ?_Copy@?$_Impl_no_alloc0@U?$_Callable_obj@V<lambda84>@?A0xe9eda812@@$0A@@tr1@std@@X@tr1@std@@UEAAPEAV?$_Impl_base0@X@23@PEAX@Z 000000018000bee4 f i UnityBuildCore.cpp.obj
 0001:0000af50       ?_Target_type@?$_Impl_no_alloc0@U?$_Callable_obj@V<lambda85>@?A0xe9eda812@@$0A@@tr1@std@@X@tr1@std@@UEBAAEBVtype_info@@XZ 000000018000bf50 f i UnityBuildCore.cpp.obj
 0001:0000af58       ?_Copy@?$_Impl_no_alloc0@U?$_Callable_obj@V<lambda85>@?A0xe9eda812@@$0A@@tr1@std@@X@tr1@std@@UEAAPEAV?$_Impl_base0@X@23@PEAX@Z 000000018000bf58 f i UnityBuildCore.cpp.obj
 0001:0000afd4       ?_Target_type@?$_Impl_no_alloc0@U?$_Callable_obj@V<lambda93>@?A0xe9eda812@@$0A@@tr1@std@@X@tr1@std@@UEBAAEBVtype_info@@XZ 000000018000bfd4 f i UnityBuildCore.cpp.obj
 0001:0000afdc       ?_Copy@?$_Impl_no_alloc0@U?$_Callable_obj@V<lambda93>@?A0xe9eda812@@$0A@@tr1@std@@X@tr1@std@@UEAAPEAV?$_Impl_base0@X@23@PEAX@Z 000000018000bfdc f i UnityBuildCore.cpp.obj
 0001:0000b048       ?_Target_type@?$_Impl_no_alloc0@U?$_Callable_obj@V<lambda95>@?A0xe9eda812@@$0A@@tr1@std@@X@tr1@std@@UEBAAEBVtype_info@@XZ 000000018000c048 f i UnityBuildCore.cpp.obj
 0001:0000b050       ?_Copy@?$_Impl_no_alloc0@U?$_Callable_obj@V<lambda95>@?A0xe9eda812@@$0A@@tr1@std@@X@tr1@std@@UEAAPEAV?$_Impl_base0@X@23@PEAX@Z 000000018000c050 f i UnityBuildCore.cpp.obj
 0001:0000b0bc       ?_Target_type@?$_Impl_no_alloc0@U?$_Callable_obj@V<lambda98>@?A0xe9eda812@@$0A@@tr1@std@@X@tr1@std@@UEBAAEBVtype_info@@XZ 000000018000c0bc f i UnityBuildCore.cpp.obj
 0001:0000b0c4       ?_Copy@?$_Impl_no_alloc0@U?$_Callable_obj@V<lambda98>@?A0xe9eda812@@$0A@@tr1@std@@X@tr1@std@@UEAAPEAV?$_Impl_base0@X@23@PEAX@Z 000000018000c0c4 f i UnityBuildCore.cpp.obj
 0001:0000b130       ?_Target_type@?$_Impl_no_alloc0@U?$_Callable_obj@V<lambda99>@?A0xe9eda812@@$0A@@tr1@std@@X@tr1@std@@UEBAAEBVtype_info@@XZ 000000018000c130 f i UnityBuildCore.cpp.obj
 0001:0000b138       ?_Copy@?$_Impl_no_alloc0@U?$_Callable_obj@V<lambda99>@?A0xe9eda812@@$0A@@tr1@std@@X@tr1@std@@UEAAPEAV?$_Impl_base0@X@23@PEAX@Z 000000018000c138 f i UnityBuildCore.cpp.obj
 0001:0000b1a4       ?_Target_type@?$_Impl_no_alloc0@U?$_Callable_obj@V<lambda102>@?A0xe9eda812@@$0A@@tr1@std@@X@tr1@std@@UEBAAEBVtype_info@@XZ 000000018000c1a4 f i UnityBuildCore.cpp.obj
 0001:0000b1ac       ?_Copy@?$_Impl_no_alloc0@U?$_Callable_obj@V<lambda102>@?A0xe9eda812@@$0A@@tr1@std@@X@tr1@std@@UEAAPEAV?$_Impl_base0@X@23@PEAX@Z 000000018000c1ac f i UnityBuildCore.cpp.obj
 0001:0000b218       ?_Target_type@?$_Impl_no_alloc0@U?$_Callable_obj@V<lambda105>@?A0xe9eda812@@$0A@@tr1@std@@X@tr1@std@@UEBAAEBVtype_info@@XZ 000000018000c218 f i UnityBuildCore.cpp.obj
 0001:0000b220       ?_Copy@?$_Impl_no_alloc0@U?$_Callable_obj@V<lambda105>@?A0xe9eda812@@$0A@@tr1@std@@X@tr1@std@@UEAAPEAV?$_Impl_base0@X@23@PEAX@Z 000000018000c220 f i UnityBuildCore.cpp.obj
 0001:0000b28c       ?_Target_type@?$_Impl_no_alloc0@U?$_Callable_obj@V<lambda106>@?A0xe9eda812@@$0A@@tr1@std@@X@tr1@std@@UEBAAEBVtype_info@@XZ 000000018000c28c f i UnityBuildCore.cpp.obj
 0001:0000b294       ?_Copy@?$_Impl_no_alloc0@U?$_Callable_obj@V<lambda106>@?A0xe9eda812@@$0A@@tr1@std@@X@tr1@std@@UEAAPEAV?$_Impl_base0@X@23@PEAX@Z 000000018000c294 f i UnityBuildCore.cpp.obj
 0001:0000b300       ?_Target_type@?$_Impl_no_alloc0@U?$_Callable_obj@V<lambda107>@?A0xe9eda812@@$0A@@tr1@std@@X@tr1@std@@UEBAAEBVtype_info@@XZ 000000018000c300 f i UnityBuildCore.cpp.obj
 0001:0000b308       ?_Copy@?$_Impl_no_alloc0@U?$_Callable_obj@V<lambda107>@?A0xe9eda812@@$0A@@tr1@std@@X@tr1@std@@UEAAPEAV?$_Impl_base0@X@23@PEAX@Z 000000018000c308 f i UnityBuildCore.cpp.obj
 0001:0000b374       ?_Target_type@?$_Impl_no_alloc0@U?$_Callable_obj@V<lambda108>@?A0xe9eda812@@$0A@@tr1@std@@X@tr1@std@@UEBAAEBVtype_info@@XZ 000000018000c374 f i UnityBuildCore.cpp.obj
 0001:0000b37c       ?_Copy@?$_Impl_no_alloc0@U?$_Callable_obj@V<lambda108>@?A0xe9eda812@@$0A@@tr1@std@@X@tr1@std@@UEAAPEAV?$_Impl_base0@X@23@PEAX@Z 000000018000c37c f i UnityBuildCore.cpp.obj
 0001:0000b400       ?_Target_type@?$_Impl_no_alloc0@U?$_Callable_obj@V<lambda111>@?A0xe9eda812@@$0A@@tr1@std@@X@tr1@std@@UEBAAEBVtype_info@@XZ 000000018000c400 f i UnityBuildCore.cpp.obj
 0001:0000b408       ?_Copy@?$_Impl_no_alloc0@U?$_Callable_obj@V<lambda111>@?A0xe9eda812@@$0A@@tr1@std@@X@tr1@std@@UEAAPEAV?$_Impl_base0@X@23@PEAX@Z 000000018000c408 f i UnityBuildCore.cpp.obj
 0001:0000b474       ?_Target_type@?$_Impl_no_alloc0@U?$_Callable_obj@V<lambda113>@?A0xe9eda812@@$0A@@tr1@std@@X@tr1@std@@UEBAAEBVtype_info@@XZ 000000018000c474 f i UnityBuildCore.cpp.obj
 0001:0000b47c       ?_Copy@?$_Impl_no_alloc0@U?$_Callable_obj@V<lambda113>@?A0xe9eda812@@$0A@@tr1@std@@X@tr1@std@@UEAAPEAV?$_Impl_base0@X@23@PEAX@Z 000000018000c47c f i UnityBuildCore.cpp.obj
 0001:0000b4e8       ?_Target_type@?$_Impl_no_alloc0@U?$_Callable_obj@V<lambda115>@?A0xe9eda812@@$0A@@tr1@std@@X@tr1@std@@UEBAAEBVtype_info@@XZ 000000018000c4e8 f i UnityBuildCore.cpp.obj
 0001:0000b4f0       ?_Copy@?$_Impl_no_alloc0@U?$_Callable_obj@V<lambda115>@?A0xe9eda812@@$0A@@tr1@std@@X@tr1@std@@UEAAPEAV?$_Impl_base0@X@23@PEAX@Z 000000018000c4f0 f i UnityBuildCore.cpp.obj
 0001:0000b55c       ?_Target_type@?$_Impl_no_alloc0@U?$_Callable_obj@V<lambda117>@?A0xe9eda812@@$0A@@tr1@std@@X@tr1@std@@UEBAAEBVtype_info@@XZ 000000018000c55c f i UnityBuildCore.cpp.obj
 0001:0000b564       ?_Copy@?$_Impl_no_alloc0@U?$_Callable_obj@V<lambda117>@?A0xe9eda812@@$0A@@tr1@std@@X@tr1@std@@UEAAPEAV?$_Impl_base0@X@23@PEAX@Z 000000018000c564 f i UnityBuildCore.cpp.obj
 0001:0000b5d0       ?_Target_type@?$_Impl_no_alloc0@U?$_Callable_obj@V<lambda119>@?A0xe9eda812@@$0A@@tr1@std@@X@tr1@std@@UEBAAEBVtype_info@@XZ 000000018000c5d0 f i UnityBuildCore.cpp.obj
 0001:0000b5d8       ?_Copy@?$_Impl_no_alloc0@U?$_Callable_obj@V<lambda119>@?A0xe9eda812@@$0A@@tr1@std@@X@tr1@std@@UEAAPEAV?$_Impl_base0@X@23@PEAX@Z 000000018000c5d8 f i UnityBuildCore.cpp.obj
 0001:0000b644       ?_Target_type@?$_Impl_no_alloc0@U?$_Callable_obj@V<lambda121>@?A0xe9eda812@@$0A@@tr1@std@@X@tr1@std@@UEBAAEBVtype_info@@XZ 000000018000c644 f i UnityBuildCore.cpp.obj
 0001:0000b64c       ?_Copy@?$_Impl_no_alloc0@U?$_Callable_obj@V<lambda121>@?A0xe9eda812@@$0A@@tr1@std@@X@tr1@std@@UEAAPEAV?$_Impl_base0@X@23@PEAX@Z 000000018000c64c f i UnityBuildCore.cpp.obj
 0001:0000b6b8       ?_Target_type@?$_Impl_no_alloc0@U?$_Callable_obj@V<lambda129>@?A0xe9eda812@@$0A@@tr1@std@@X@tr1@std@@UEBAAEBVtype_info@@XZ 000000018000c6b8 f i UnityBuildCore.cpp.obj
 0001:0000b6c0       ?_Copy@?$_Impl_no_alloc0@U?$_Callable_obj@V<lambda129>@?A0xe9eda812@@$0A@@tr1@std@@X@tr1@std@@UEAAPEAV?$_Impl_base0@X@23@PEAX@Z 000000018000c6c0 f i UnityBuildCore.cpp.obj
 0001:0000b72c       ?_Target_type@?$_Impl_no_alloc0@U?$_Callable_obj@V<lambda131>@?A0xe9eda812@@$0A@@tr1@std@@X@tr1@std@@UEBAAEBVtype_info@@XZ 000000018000c72c f i UnityBuildCore.cpp.obj
 0001:0000b734       ?_Copy@?$_Impl_no_alloc0@U?$_Callable_obj@V<lambda131>@?A0xe9eda812@@$0A@@tr1@std@@X@tr1@std@@UEAAPEAV?$_Impl_base0@X@23@PEAX@Z 000000018000c734 f i UnityBuildCore.cpp.obj
 0001:0000b7a0       ?_Target_type@?$_Impl_no_alloc0@U?$_Callable_obj@V<lambda133>@?A0xe9eda812@@$0A@@tr1@std@@X@tr1@std@@UEBAAEBVtype_info@@XZ 000000018000c7a0 f i UnityBuildCore.cpp.obj
 0001:0000b7a8       ?_Copy@?$_Impl_no_alloc0@U?$_Callable_obj@V<lambda133>@?A0xe9eda812@@$0A@@tr1@std@@X@tr1@std@@UEAAPEAV?$_Impl_base0@X@23@PEAX@Z 000000018000c7a8 f i UnityBuildCore.cpp.obj
 0001:0000b814       ?_Target_type@?$_Impl_no_alloc0@U?$_Callable_obj@V<lambda135>@?A0xe9eda812@@$0A@@tr1@std@@X@tr1@std@@UEBAAEBVtype_info@@XZ 000000018000c814 f i UnityBuildCore.cpp.obj
 0001:0000b81c       ??_G?$_Impl_no_alloc0@U?$_Callable_obj@V<lambda327>@?A0xe9eda812@@$0A@@tr1@std@@X@tr1@std@@UEAAPEAXI@Z 000000018000c81c f i UnityBuildCore.cpp.obj
 0001:0000b81c       ??_G?$_Impl_no_alloc0@U?$_Callable_obj@V<lambda345>@?A0xe9eda812@@$0A@@tr1@std@@X@tr1@std@@UEAAPEAXI@Z 000000018000c81c f i UnityBuildCore.cpp.obj
 0001:0000b81c       ??_G?$_Impl_no_alloc0@U?$_Callable_obj@V<lambda310>@?A0xe9eda812@@$0A@@tr1@std@@X@tr1@std@@UEAAPEAXI@Z 000000018000c81c f i UnityBuildCore.cpp.obj
 0001:0000b81c       ??_G?$_Impl_no_alloc0@U?$_Callable_obj@V<lambda254>@?A0xe9eda812@@$0A@@tr1@std@@X@tr1@std@@UEAAPEAXI@Z 000000018000c81c f i UnityBuildCore.cpp.obj
 0001:0000b81c       ??_E?$_Impl_no_alloc0@U?$_Callable_obj@V<lambda95>@?A0xe9eda812@@$0A@@tr1@std@@X@tr1@std@@UEAAPEAXI@Z 000000018000c81c f i UnityBuildCore.cpp.obj
 0001:0000b81c       ??_E?$_Impl_no_alloc0@U?$_Callable_obj@V<lambda328>@?A0xe9eda812@@$0A@@tr1@std@@X@tr1@std@@UEAAPEAXI@Z 000000018000c81c f i UnityBuildCore.cpp.obj
 0001:0000b81c       ??_G?$_Impl_no_alloc0@U?$_Callable_obj@V<lambda308>@?A0xe9eda812@@$0A@@tr1@std@@X@tr1@std@@UEAAPEAXI@Z 000000018000c81c f i UnityBuildCore.cpp.obj
 0001:0000b81c       ??_G?$_Impl_no_alloc0@U?$_Callable_obj@V<lambda163>@?A0xe9eda812@@$0A@@tr1@std@@X@tr1@std@@UEAAPEAXI@Z 000000018000c81c f i UnityBuildCore.cpp.obj
 0001:0000b81c       ??_G?$_Impl_no_alloc0@U?$_Callable_obj@V<lambda340>@?A0xe9eda812@@$0A@@tr1@std@@X@tr1@std@@UEAAPEAXI@Z 000000018000c81c f i UnityBuildCore.cpp.obj
 0001:0000b81c       ??_E?$_Impl_no_alloc0@U?$_Callable_obj@V<lambda200>@?A0xe9eda812@@$0A@@tr1@std@@X@tr1@std@@UEAAPEAXI@Z 000000018000c81c f i UnityBuildCore.cpp.obj
 0001:0000b81c       ??_E?$_Impl_no_alloc0@U?$_Callable_obj@V<lambda280>@?A0xe9eda812@@$0A@@tr1@std@@X@tr1@std@@UEAAPEAXI@Z 000000018000c81c f i UnityBuildCore.cpp.obj
 0001:0000b81c       ??_E?$_Impl_no_alloc0@U?$_Callable_obj@V<lambda68>@?A0xe9eda812@@$0A@@tr1@std@@X@tr1@std@@UEAAPEAXI@Z 000000018000c81c f i UnityBuildCore.cpp.obj
 0001:0000b81c       ??_E?$_Impl_no_alloc0@U?$_Callable_obj@V<lambda135>@?A0xe9eda812@@$0A@@tr1@std@@X@tr1@std@@UEAAPEAXI@Z 000000018000c81c f i UnityBuildCore.cpp.obj
 0001:0000b81c       ??_G?$_Impl_no_alloc0@U?$_Callable_obj@V<lambda61>@?A0xe9eda812@@$0A@@tr1@std@@X@tr1@std@@UEAAPEAXI@Z 000000018000c81c f i UnityBuildCore.cpp.obj
 0001:0000b81c       ??_E?$_Impl_no_alloc0@U?$_Callable_obj@V<lambda300>@?A0xe9eda812@@$0A@@tr1@std@@X@tr1@std@@UEAAPEAXI@Z 000000018000c81c f i UnityBuildCore.cpp.obj
 0001:0000b81c       ??_G?$_Impl_no_alloc0@U?$_Callable_obj@V<lambda52>@?A0xe9eda812@@$0A@@tr1@std@@X@tr1@std@@UEAAPEAXI@Z 000000018000c81c f i UnityBuildCore.cpp.obj
 0001:0000b81c       ??_G?$_Impl_no_alloc0@U?$_Callable_obj@V<lambda238>@?A0xe9eda812@@$0A@@tr1@std@@X@tr1@std@@UEAAPEAXI@Z 000000018000c81c f i UnityBuildCore.cpp.obj
 0001:0000b81c       ??_G?$_Impl_no_alloc0@U?$_Callable_obj@V<lambda166>@?A0xe9eda812@@$0A@@tr1@std@@X@tr1@std@@UEAAPEAXI@Z 000000018000c81c f i UnityBuildCore.cpp.obj
 0001:0000b81c       ??_E?$_Impl_no_alloc0@U?$_Callable_obj@V<lambda79>@?A0xe9eda812@@$0A@@tr1@std@@X@tr1@std@@UEAAPEAXI@Z 000000018000c81c f i UnityBuildCore.cpp.obj
 0001:0000b81c       ??_G?$_Impl_no_alloc0@U?$_Callable_obj@V<lambda335>@?A0xe9eda812@@$0A@@tr1@std@@X@tr1@std@@UEAAPEAXI@Z 000000018000c81c f i UnityBuildCore.cpp.obj
 0001:0000b81c       ??_E?$_Impl_no_alloc0@U?$_Callable_obj@V<lambda232>@?A0xe9eda812@@$0A@@tr1@std@@X@tr1@std@@UEAAPEAXI@Z 000000018000c81c f i UnityBuildCore.cpp.obj
 0001:0000b81c       ??_G?$_Impl_no_alloc0@U?$_Callable_obj@V<lambda59>@?A0xe9eda812@@$0A@@tr1@std@@X@tr1@std@@UEAAPEAXI@Z 000000018000c81c f i UnityBuildCore.cpp.obj
 0001:0000b81c       ??_G?$_Impl_no_alloc0@U?$_Callable_obj@V<lambda71>@?A0xe9eda812@@$0A@@tr1@std@@X@tr1@std@@UEAAPEAXI@Z 000000018000c81c f i UnityBuildCore.cpp.obj
 0001:0000b81c       ??_E?$_Impl_no_alloc0@U?$_Callable_obj@V<lambda131>@?A0xe9eda812@@$0A@@tr1@std@@X@tr1@std@@UEAAPEAXI@Z 000000018000c81c f i UnityBuildCore.cpp.obj
 0001:0000b81c       ??_E?$_Impl_no_alloc0@U?$_Callable_obj@V<lambda209>@?A0xe9eda812@@$0A@@tr1@std@@X@tr1@std@@UEAAPEAXI@Z 000000018000c81c f i UnityBuildCore.cpp.obj
 0001:0000b81c       ??_G?$_Impl_no_alloc0@U?$_Callable_obj@V<lambda303>@?A0xe9eda812@@$0A@@tr1@std@@X@tr1@std@@UEAAPEAXI@Z 000000018000c81c f i UnityBuildCore.cpp.obj
 0001:0000b81c       ??_G?$_Impl_no_alloc0@U?$_Callable_obj@V<lambda189>@?A0xe9eda812@@$0A@@tr1@std@@X@tr1@std@@UEAAPEAXI@Z 000000018000c81c f i UnityBuildCore.cpp.obj
 0001:0000b81c       ??_G?$_Impl_no_alloc0@U?$_Callable_obj@V<lambda236>@?A0xe9eda812@@$0A@@tr1@std@@X@tr1@std@@UEAAPEAXI@Z 000000018000c81c f i UnityBuildCore.cpp.obj
 0001:0000b81c       ??_G?$_Impl_no_alloc0@U?$_Callable_obj@V<lambda359>@?A0xe9eda812@@$0A@@tr1@std@@X@tr1@std@@UEAAPEAXI@Z 000000018000c81c f i UnityBuildCore.cpp.obj
 0001:0000b81c       ??_E?$_Impl_no_alloc0@U?$_Callable_obj@V<lambda78>@?A0xe9eda812@@$0A@@tr1@std@@X@tr1@std@@UEAAPEAXI@Z 000000018000c81c f i UnityBuildCore.cpp.obj
 0001:0000b81c       ??_G?$_Impl_no_alloc0@U?$_Callable_obj@V<lambda304>@?A0xe9eda812@@$0A@@tr1@std@@X@tr1@std@@UEAAPEAXI@Z 000000018000c81c f i UnityBuildCore.cpp.obj
 0001:0000b81c       ??_G?$_Impl_no_alloc0@U?$_Callable_obj@V<lambda199>@?A0xe9eda812@@$0A@@tr1@std@@X@tr1@std@@UEAAPEAXI@Z 000000018000c81c f i UnityBuildCore.cpp.obj
 0001:0000b81c       ??_E?$_Impl_no_alloc0@U?$_Callable_obj@V<lambda282>@?A0xe9eda812@@$0A@@tr1@std@@X@tr1@std@@UEAAPEAXI@Z 000000018000c81c f i UnityBuildCore.cpp.obj
 0001:0000b81c       ??_G?$_Impl_no_alloc0@U?$_Callable_obj@V<lambda148>@?A0xe9eda812@@$0A@@tr1@std@@X@tr1@std@@UEAAPEAXI@Z 000000018000c81c f i UnityBuildCore.cpp.obj
 0001:0000b81c       ??_E?$_Impl_no_alloc0@U?$_Callable_obj@V<lambda228>@?A0xe9eda812@@$0A@@tr1@std@@X@tr1@std@@UEAAPEAXI@Z 000000018000c81c f i UnityBuildCore.cpp.obj
 0001:0000b81c       ??_G?$_Impl_no_alloc0@U?$_Callable_obj@V<lambda115>@?A0xe9eda812@@$0A@@tr1@std@@X@tr1@std@@UEAAPEAXI@Z 000000018000c81c f i UnityBuildCore.cpp.obj
 0001:0000b81c       ??_G?$_Impl_no_alloc0@U?$_Callable_obj@V<lambda216>@?A0xe9eda812@@$0A@@tr1@std@@X@tr1@std@@UEAAPEAXI@Z 000000018000c81c f i UnityBuildCore.cpp.obj
 0001:0000b81c       ??_E?$_Impl_base0@X@tr1@std@@UEAAPEAXI@Z 000000018000c81c f i UnityBuildCore.cpp.obj
 0001:0000b81c       ??_G?$_Impl_no_alloc0@U?$_Callable_obj@V<lambda135>@?A0xe9eda812@@$0A@@tr1@std@@X@tr1@std@@UEAAPEAXI@Z 000000018000c81c f i UnityBuildCore.cpp.obj
 0001:0000b81c       ??_E?$_Impl_no_alloc0@U?$_Callable_obj@V<lambda243>@?A0xe9eda812@@$0A@@tr1@std@@X@tr1@std@@UEAAPEAXI@Z 000000018000c81c f i UnityBuildCore.cpp.obj
 0001:0000b81c       ??_E?$_Impl_no_alloc0@U?$_Callable_obj@V<lambda336>@?A0xe9eda812@@$0A@@tr1@std@@X@tr1@std@@UEAAPEAXI@Z 000000018000c81c f i UnityBuildCore.cpp.obj
 0001:0000b81c       ??_E?$_Impl_no_alloc0@U?$_Callable_obj@V<lambda32>@?A0xe9eda812@@$0A@@tr1@std@@X@tr1@std@@UEAAPEAXI@Z 000000018000c81c f i UnityBuildCore.cpp.obj
 0001:0000b81c       ??_G?$_Impl_no_alloc0@U?$_Callable_obj@V<lambda30>@?A0xe9eda812@@$0A@@tr1@std@@X@tr1@std@@UEAAPEAXI@Z 000000018000c81c f i UnityBuildCore.cpp.obj
 0001:0000b81c       ??_G?$_Impl_no_alloc0@U?$_Callable_obj@V<lambda84>@?A0xe9eda812@@$0A@@tr1@std@@X@tr1@std@@UEAAPEAXI@Z 000000018000c81c f i UnityBuildCore.cpp.obj
 0001:0000b81c       ??_G?$_Impl_no_alloc0@U?$_Callable_obj@V<lambda55>@?A0xe9eda812@@$0A@@tr1@std@@X@tr1@std@@UEAAPEAXI@Z 000000018000c81c f i UnityBuildCore.cpp.obj
 0001:0000b81c       ??_E?$_Impl_no_alloc0@U?$_Callable_obj@V<lambda338>@?A0xe9eda812@@$0A@@tr1@std@@X@tr1@std@@UEAAPEAXI@Z 000000018000c81c f i UnityBuildCore.cpp.obj
 0001:0000b81c       ??_G?$_Impl_no_alloc0@U?$_Callable_obj@V<lambda294>@?A0xe9eda812@@$0A@@tr1@std@@X@tr1@std@@UEAAPEAXI@Z 000000018000c81c f i UnityBuildCore.cpp.obj
 0001:0000b81c       ??_G?$_Impl_no_alloc0@U?$_Callable_obj@V<lambda146>@?A0xe9eda812@@$0A@@tr1@std@@X@tr1@std@@UEAAPEAXI@Z 000000018000c81c f i UnityBuildCore.cpp.obj
 0001:0000b81c       ??_G?$_Impl_no_alloc0@U?$_Callable_obj@V<lambda275>@?A0xe9eda812@@$0A@@tr1@std@@X@tr1@std@@UEAAPEAXI@Z 000000018000c81c f i UnityBuildCore.cpp.obj
 0001:0000b81c       ??_G?$_Impl_no_alloc0@U?$_Callable_obj@V<lambda102>@?A0xe9eda812@@$0A@@tr1@std@@X@tr1@std@@UEAAPEAXI@Z 000000018000c81c f i UnityBuildCore.cpp.obj
 0001:0000b81c       ??_E?$_Impl_no_alloc0@U?$_Callable_obj@V<lambda279>@?A0xe9eda812@@$0A@@tr1@std@@X@tr1@std@@UEAAPEAXI@Z 000000018000c81c f i UnityBuildCore.cpp.obj
 0001:0000b81c       ??_G?$_Impl_no_alloc0@U?$_Callable_obj@V<lambda162>@?A0xe9eda812@@$0A@@tr1@std@@X@tr1@std@@UEAAPEAXI@Z 000000018000c81c f i UnityBuildCore.cpp.obj
 0001:0000b81c       ??_E?$_Impl_no_alloc0@U?$_Callable_obj@V<lambda216>@?A0xe9eda812@@$0A@@tr1@std@@X@tr1@std@@UEAAPEAXI@Z 000000018000c81c f i UnityBuildCore.cpp.obj
 0001:0000b81c       ??_E?$_Impl_no_alloc0@U?$_Callable_obj@V<lambda262>@?A0xe9eda812@@$0A@@tr1@std@@X@tr1@std@@UEAAPEAXI@Z 000000018000c81c f i UnityBuildCore.cpp.obj
 0001:0000b81c       ??_E?$_Impl_no_alloc0@U?$_Callable_obj@V<lambda263>@?A0xe9eda812@@$0A@@tr1@std@@X@tr1@std@@UEAAPEAXI@Z 000000018000c81c f i UnityBuildCore.cpp.obj
 0001:0000b81c       ??_E?$_Impl_no_alloc0@U?$_Callable_obj@V<lambda275>@?A0xe9eda812@@$0A@@tr1@std@@X@tr1@std@@UEAAPEAXI@Z 000000018000c81c f i UnityBuildCore.cpp.obj
 0001:0000b81c       ??_E?$_Impl_no_alloc0@U?$_Callable_obj@V<lambda98>@?A0xe9eda812@@$0A@@tr1@std@@X@tr1@std@@UEAAPEAXI@Z 000000018000c81c f i UnityBuildCore.cpp.obj
 0001:0000b81c       ??_E?$_Impl_no_alloc0@U?$_Callable_obj@V<lambda254>@?A0xe9eda812@@$0A@@tr1@std@@X@tr1@std@@UEAAPEAXI@Z 000000018000c81c f i UnityBuildCore.cpp.obj
 0001:0000b81c       ??_G?$_Impl_no_alloc0@U?$_Callable_obj@V<lambda231>@?A0xe9eda812@@$0A@@tr1@std@@X@tr1@std@@UEAAPEAXI@Z 000000018000c81c f i UnityBuildCore.cpp.obj
 0001:0000b81c       ??_E?$_Impl_no_alloc0@U?$_Callable_obj@V<lambda344>@?A0xe9eda812@@$0A@@tr1@std@@X@tr1@std@@UEAAPEAXI@Z 000000018000c81c f i UnityBuildCore.cpp.obj
 0001:0000b81c       ??_G?$_Impl_no_alloc0@U?$_Callable_obj@V<lambda281>@?A0xe9eda812@@$0A@@tr1@std@@X@tr1@std@@UEAAPEAXI@Z 000000018000c81c f i UnityBuildCore.cpp.obj
 0001:0000b81c       ??_G?$_Impl_no_alloc0@U?$_Callable_obj@V<lambda70>@?A0xe9eda812@@$0A@@tr1@std@@X@tr1@std@@UEAAPEAXI@Z 000000018000c81c f i UnityBuildCore.cpp.obj
 0001:0000b81c       ??_G?$_Impl_no_alloc0@U?$_Callable_obj@V<lambda282>@?A0xe9eda812@@$0A@@tr1@std@@X@tr1@std@@UEAAPEAXI@Z 000000018000c81c f i UnityBuildCore.cpp.obj
 0001:0000b81c       ??_G?$_Impl_no_alloc0@U?$_Callable_obj@V<lambda217>@?A0xe9eda812@@$0A@@tr1@std@@X@tr1@std@@UEAAPEAXI@Z 000000018000c81c f i UnityBuildCore.cpp.obj
 0001:0000b81c       ??_G?$_Impl_no_alloc0@U?$_Callable_obj@V<lambda339>@?A0xe9eda812@@$0A@@tr1@std@@X@tr1@std@@UEAAPEAXI@Z 000000018000c81c f i UnityBuildCore.cpp.obj
 0001:0000b81c       ??_G?$_Impl_no_alloc0@U?$_Callable_obj@V<lambda338>@?A0xe9eda812@@$0A@@tr1@std@@X@tr1@std@@UEAAPEAXI@Z 000000018000c81c f i UnityBuildCore.cpp.obj
 0001:0000b81c       ??_G?$_Impl_no_alloc0@U?$_Callable_obj@V<lambda80>@?A0xe9eda812@@$0A@@tr1@std@@X@tr1@std@@UEAAPEAXI@Z 000000018000c81c f i UnityBuildCore.cpp.obj
 0001:0000b81c       ??_G?$_Impl_no_alloc0@U?$_Callable_obj@V<lambda228>@?A0xe9eda812@@$0A@@tr1@std@@X@tr1@std@@UEAAPEAXI@Z 000000018000c81c f i UnityBuildCore.cpp.obj
 0001:0000b81c       ??_G?$_Impl_no_alloc0@U?$_Callable_obj@V<lambda82>@?A0xe9eda812@@$0A@@tr1@std@@X@tr1@std@@UEAAPEAXI@Z 000000018000c81c f i UnityBuildCore.cpp.obj
 0001:0000b81c       ??_G?$_Impl_no_alloc0@U?$_Callable_obj@V<lambda50>@?A0xe9eda812@@$0A@@tr1@std@@X@tr1@std@@UEAAPEAXI@Z 000000018000c81c f i UnityBuildCore.cpp.obj
 0001:0000b81c       ??_E?$_Impl_no_alloc0@U?$_Callable_obj@V<lambda284>@?A0xe9eda812@@$0A@@tr1@std@@X@tr1@std@@UEAAPEAXI@Z 000000018000c81c f i UnityBuildCore.cpp.obj
 0001:0000b81c       ??_E?$_Impl_no_alloc0@U?$_Callable_obj@V<lambda325>@?A0xe9eda812@@$0A@@tr1@std@@X@tr1@std@@UEAAPEAXI@Z 000000018000c81c f i UnityBuildCore.cpp.obj
 0001:0000b81c       ??_G?$_Impl_no_alloc0@U?$_Callable_obj@V<lambda320>@?A0xe9eda812@@$0A@@tr1@std@@X@tr1@std@@UEAAPEAXI@Z 000000018000c81c f i UnityBuildCore.cpp.obj
 0001:0000b81c       ??_G?$_Impl_no_alloc0@U?$_Callable_obj@V<lambda278>@?A0xe9eda812@@$0A@@tr1@std@@X@tr1@std@@UEAAPEAXI@Z 000000018000c81c f i UnityBuildCore.cpp.obj
 0001:0000b81c       ??_E?$_Impl_no_alloc0@U?$_Callable_obj@V<lambda189>@?A0xe9eda812@@$0A@@tr1@std@@X@tr1@std@@UEAAPEAXI@Z 000000018000c81c f i UnityBuildCore.cpp.obj
 0001:0000b81c       ??_E?$_Impl_no_alloc0@U?$_Callable_obj@V<lambda257>@?A0xe9eda812@@$0A@@tr1@std@@X@tr1@std@@UEAAPEAXI@Z 000000018000c81c f i UnityBuildCore.cpp.obj
 0001:0000b81c       ??_E?$_Impl_no_alloc0@U?$_Callable_obj@V<lambda321>@?A0xe9eda812@@$0A@@tr1@std@@X@tr1@std@@UEAAPEAXI@Z 000000018000c81c f i UnityBuildCore.cpp.obj
 0001:0000b81c       ??_G?$_Impl_no_alloc0@U?$_Callable_obj@V<lambda273>@?A0xe9eda812@@$0A@@tr1@std@@X@tr1@std@@UEAAPEAXI@Z 000000018000c81c f i UnityBuildCore.cpp.obj
 0001:0000b81c       ??_G?$_Impl_no_alloc0@U?$_Callable_obj@V<lambda22>@?A0xe9eda812@@$0A@@tr1@std@@X@tr1@std@@UEAAPEAXI@Z 000000018000c81c f i UnityBuildCore.cpp.obj
 0001:0000b81c       ??_E?$_Impl_no_alloc0@U?$_Callable_obj@V<lambda330>@?A0xe9eda812@@$0A@@tr1@std@@X@tr1@std@@UEAAPEAXI@Z 000000018000c81c f i UnityBuildCore.cpp.obj
 0001:0000b81c       ??_G?$_Impl_no_alloc0@U?$_Callable_obj@V<lambda318>@?A0xe9eda812@@$0A@@tr1@std@@X@tr1@std@@UEAAPEAXI@Z 000000018000c81c f i UnityBuildCore.cpp.obj
 0001:0000b81c       ??_G?$_Impl_no_alloc0@U?$_Callable_obj@V<lambda99>@?A0xe9eda812@@$0A@@tr1@std@@X@tr1@std@@UEAAPEAXI@Z 000000018000c81c f i UnityBuildCore.cpp.obj
 0001:0000b81c       ??_E?$_Impl_no_alloc0@U?$_Callable_obj@V<lambda50>@?A0xe9eda812@@$0A@@tr1@std@@X@tr1@std@@UEAAPEAXI@Z 000000018000c81c f i UnityBuildCore.cpp.obj
 0001:0000b81c       ??_G?$_Impl_no_alloc0@U?$_Callable_obj@V<lambda117>@?A0xe9eda812@@$0A@@tr1@std@@X@tr1@std@@UEAAPEAXI@Z 000000018000c81c f i UnityBuildCore.cpp.obj
 0001:0000b81c       ??_E?$_Impl_no_alloc0@U?$_Callable_obj@V<lambda293>@?A0xe9eda812@@$0A@@tr1@std@@X@tr1@std@@UEAAPEAXI@Z 000000018000c81c f i UnityBuildCore.cpp.obj
 0001:0000b81c       ??_G?$_Impl_no_alloc0@U?$_Callable_obj@V<lambda241>@?A0xe9eda812@@$0A@@tr1@std@@X@tr1@std@@UEAAPEAXI@Z 000000018000c81c f i UnityBuildCore.cpp.obj
 0001:0000b81c       ??_E?$_Impl_no_alloc0@U?$_Callable_obj@V<lambda195>@?A0xe9eda812@@$0A@@tr1@std@@X@tr1@std@@UEAAPEAXI@Z 000000018000c81c f i UnityBuildCore.cpp.obj
 0001:0000b81c       ??_G?$_Impl_no_alloc0@U?$_Callable_obj@V<lambda279>@?A0xe9eda812@@$0A@@tr1@std@@X@tr1@std@@UEAAPEAXI@Z 000000018000c81c f i UnityBuildCore.cpp.obj
 0001:0000b81c       ??_G?$_Impl_no_alloc0@U?$_Callable_obj@V<lambda143>@?A0xe9eda812@@$0A@@tr1@std@@X@tr1@std@@UEAAPEAXI@Z 000000018000c81c f i UnityBuildCore.cpp.obj
 0001:0000b81c       ??_G?$_Impl_no_alloc0@U?$_Callable_obj@V<lambda267>@?A0xe9eda812@@$0A@@tr1@std@@X@tr1@std@@UEAAPEAXI@Z 000000018000c81c f i UnityBuildCore.cpp.obj
 0001:0000b81c       ??_E?$_Impl_no_alloc0@U?$_Callable_obj@V<lambda28>@?A0xe9eda812@@$0A@@tr1@std@@X@tr1@std@@UEAAPEAXI@Z 000000018000c81c f i UnityBuildCore.cpp.obj
 0001:0000b81c       ??_G?$_Impl_no_alloc0@U?$_Callable_obj@V<lambda333>@?A0xe9eda812@@$0A@@tr1@std@@X@tr1@std@@UEAAPEAXI@Z 000000018000c81c f i UnityBuildCore.cpp.obj
 0001:0000b81c       ??_G?$_Impl_no_alloc0@U?$_Callable_obj@V<lambda232>@?A0xe9eda812@@$0A@@tr1@std@@X@tr1@std@@UEAAPEAXI@Z 000000018000c81c f i UnityBuildCore.cpp.obj
 0001:0000b81c       ??_E?$_Impl_no_alloc0@U?$_Callable_obj@V<lambda46>@?A0xe9eda812@@$0A@@tr1@std@@X@tr1@std@@UEAAPEAXI@Z 000000018000c81c f i UnityBuildCore.cpp.obj
 0001:0000b81c       ??_E?$_Impl_no_alloc0@U?$_Callable_obj@V<lambda61>@?A0xe9eda812@@$0A@@tr1@std@@X@tr1@std@@UEAAPEAXI@Z 000000018000c81c f i UnityBuildCore.cpp.obj
 0001:0000b81c       ??_G?$_Impl_no_alloc0@U?$_Callable_obj@V<lambda259>@?A0xe9eda812@@$0A@@tr1@std@@X@tr1@std@@UEAAPEAXI@Z 000000018000c81c f i UnityBuildCore.cpp.obj
 0001:0000b81c       ??_E?$_Impl_no_alloc0@U?$_Callable_obj@V<lambda322>@?A0xe9eda812@@$0A@@tr1@std@@X@tr1@std@@UEAAPEAXI@Z 000000018000c81c f i UnityBuildCore.cpp.obj
 0001:0000b81c       ??_G?$_Impl_no_alloc0@U?$_Callable_obj@V<lambda108>@?A0xe9eda812@@$0A@@tr1@std@@X@tr1@std@@UEAAPEAXI@Z 000000018000c81c f i UnityBuildCore.cpp.obj
 0001:0000b81c       ??_E?$_Impl_no_alloc0@U?$_Callable_obj@V<lambda333>@?A0xe9eda812@@$0A@@tr1@std@@X@tr1@std@@UEAAPEAXI@Z 000000018000c81c f i UnityBuildCore.cpp.obj
 0001:0000b81c       ??_E?$_Impl_no_alloc0@U?$_Callable_obj@V<lambda219>@?A0xe9eda812@@$0A@@tr1@std@@X@tr1@std@@UEAAPEAXI@Z 000000018000c81c f i UnityBuildCore.cpp.obj
 0001:0000b81c       ??_E?$_Impl_no_alloc0@U?$_Callable_obj@V<lambda33>@?A0xe9eda812@@$0A@@tr1@std@@X@tr1@std@@UEAAPEAXI@Z 000000018000c81c f i UnityBuildCore.cpp.obj
 0001:0000b81c       ??_G?$_Impl_no_alloc0@U?$_Callable_obj@V<lambda274>@?A0xe9eda812@@$0A@@tr1@std@@X@tr1@std@@UEAAPEAXI@Z 000000018000c81c f i UnityBuildCore.cpp.obj
 0001:0000b81c       ??_G?$_Impl_no_alloc0@U?$_Callable_obj@V<lambda42>@?A0xe9eda812@@$0A@@tr1@std@@X@tr1@std@@UEAAPEAXI@Z 000000018000c81c f i UnityBuildCore.cpp.obj
 0001:0000b81c       ??_E?$_Impl_no_alloc0@U?$_Callable_obj@V<lambda60>@?A0xe9eda812@@$0A@@tr1@std@@X@tr1@std@@UEAAPEAXI@Z 000000018000c81c f i UnityBuildCore.cpp.obj
 0001:0000b81c       ??_E?$_Impl_no_alloc0@U?$_Callable_obj@V<lambda102>@?A0xe9eda812@@$0A@@tr1@std@@X@tr1@std@@UEAAPEAXI@Z 000000018000c81c f i UnityBuildCore.cpp.obj
 0001:0000b81c       ??_E?$_Impl_no_alloc0@U?$_Callable_obj@V<lambda312>@?A0xe9eda812@@$0A@@tr1@std@@X@tr1@std@@UEAAPEAXI@Z 000000018000c81c f i UnityBuildCore.cpp.obj
 0001:0000b81c       ??_E?$_Impl_no_alloc0@U?$_Callable_obj@V<lambda278>@?A0xe9eda812@@$0A@@tr1@std@@X@tr1@std@@UEAAPEAXI@Z 000000018000c81c f i UnityBuildCore.cpp.obj
 0001:0000b81c       ??_G?$_Impl_no_alloc0@U?$_Callable_obj@V<lambda311>@?A0xe9eda812@@$0A@@tr1@std@@X@tr1@std@@UEAAPEAXI@Z 000000018000c81c f i UnityBuildCore.cpp.obj
 0001:0000b81c       ??_E?$_Impl_no_alloc0@U?$_Callable_obj@V<lambda265>@?A0xe9eda812@@$0A@@tr1@std@@X@tr1@std@@UEAAPEAXI@Z 000000018000c81c f i UnityBuildCore.cpp.obj
 0001:0000b81c       ??_E?$_Impl_no_alloc0@U?$_Callable_obj@V<lambda26>@?A0xe9eda812@@$0A@@tr1@std@@X@tr1@std@@UEAAPEAXI@Z 000000018000c81c f i UnityBuildCore.cpp.obj
 0001:0000b81c       ??_G?$_Impl_no_alloc0@U?$_Callable_obj@V<lambda81>@?A0xe9eda812@@$0A@@tr1@std@@X@tr1@std@@UEAAPEAXI@Z 000000018000c81c f i UnityBuildCore.cpp.obj
 0001:0000b81c       ??_E?$_Impl_no_alloc0@U?$_Callable_obj@V<lambda274>@?A0xe9eda812@@$0A@@tr1@std@@X@tr1@std@@UEAAPEAXI@Z 000000018000c81c f i UnityBuildCore.cpp.obj
 0001:0000b81c       ??_G?$_Impl_no_alloc0@U?$_Callable_obj@V<lambda85>@?A0xe9eda812@@$0A@@tr1@std@@X@tr1@std@@UEAAPEAXI@Z 000000018000c81c f i UnityBuildCore.cpp.obj
 0001:0000b81c       ??_G?$_Impl_no_alloc0@U?$_Callable_obj@V<lambda48>@?A0xe9eda812@@$0A@@tr1@std@@X@tr1@std@@UEAAPEAXI@Z 000000018000c81c f i UnityBuildCore.cpp.obj
 0001:0000b81c       ??_E?$_Impl_no_alloc0@U?$_Callable_obj@V<lambda76>@?A0xe9eda812@@$0A@@tr1@std@@X@tr1@std@@UEAAPEAXI@Z 000000018000c81c f i UnityBuildCore.cpp.obj
 0001:0000b81c       ??_E?$_Impl_no_alloc0@U?$_Callable_obj@V<lambda187>@?A0xe9eda812@@$0A@@tr1@std@@X@tr1@std@@UEAAPEAXI@Z 000000018000c81c f i UnityBuildCore.cpp.obj
 0001:0000b81c       ??_G?$_Impl_no_alloc0@U?$_Callable_obj@V<lambda205>@?A0xe9eda812@@$0A@@tr1@std@@X@tr1@std@@UEAAPEAXI@Z 000000018000c81c f i UnityBuildCore.cpp.obj
 0001:0000b81c       ??_G?$_Impl_no_alloc0@U?$_Callable_obj@V<lambda60>@?A0xe9eda812@@$0A@@tr1@std@@X@tr1@std@@UEAAPEAXI@Z 000000018000c81c f i UnityBuildCore.cpp.obj
 0001:0000b81c       ??_E?$_Impl_no_alloc0@U?$_Callable_obj@V<lambda105>@?A0xe9eda812@@$0A@@tr1@std@@X@tr1@std@@UEAAPEAXI@Z 000000018000c81c f i UnityBuildCore.cpp.obj
 0001:0000b81c       ??_E?$_Impl_no_alloc0@U?$_Callable_obj@V<lambda142>@?A0xe9eda812@@$0A@@tr1@std@@X@tr1@std@@UEAAPEAXI@Z 000000018000c81c f i UnityBuildCore.cpp.obj
 0001:0000b81c       ??_E?$_Impl_no_alloc0@U?$_Callable_obj@V<lambda372>@?A0xe9eda812@@$0A@@tr1@std@@X@tr1@std@@UEAAPEAXI@Z 000000018000c81c f i UnityBuildCore.cpp.obj
 0001:0000b81c       ??_G?$_Impl_no_alloc0@U?$_Callable_obj@V<lambda191>@?A0xe9eda812@@$0A@@tr1@std@@X@tr1@std@@UEAAPEAXI@Z 000000018000c81c f i UnityBuildCore.cpp.obj
 0001:0000b81c       ??_G?$_Impl_no_alloc0@U?$_Callable_obj@V<lambda277>@?A0xe9eda812@@$0A@@tr1@std@@X@tr1@std@@UEAAPEAXI@Z 000000018000c81c f i UnityBuildCore.cpp.obj
 0001:0000b81c       ??_G?$_Impl_no_alloc0@U?$_Callable_obj@V<lambda98>@?A0xe9eda812@@$0A@@tr1@std@@X@tr1@std@@UEAAPEAXI@Z 000000018000c81c f i UnityBuildCore.cpp.obj
 0001:0000b81c       ??_E?$_Impl_no_alloc0@U?$_Callable_obj@V<lambda356>@?A0xe9eda812@@$0A@@tr1@std@@X@tr1@std@@UEAAPEAXI@Z 000000018000c81c f i UnityBuildCore.cpp.obj
 0001:0000b81c       ??_G?$_Impl_no_alloc0@U?$_Callable_obj@V<lambda35>@?A0xe9eda812@@$0A@@tr1@std@@X@tr1@std@@UEAAPEAXI@Z 000000018000c81c f i UnityBuildCore.cpp.obj
 0001:0000b81c       ??_E?$_Impl_no_alloc0@U?$_Callable_obj@V<lambda231>@?A0xe9eda812@@$0A@@tr1@std@@X@tr1@std@@UEAAPEAXI@Z 000000018000c81c f i UnityBuildCore.cpp.obj
 0001:0000b81c       ??_E?$_Impl_no_alloc0@U?$_Callable_obj@V<lambda222>@?A0xe9eda812@@$0A@@tr1@std@@X@tr1@std@@UEAAPEAXI@Z 000000018000c81c f i UnityBuildCore.cpp.obj
 0001:0000b81c       ??_G?$_Impl_no_alloc0@U?$_Callable_obj@V<lambda95>@?A0xe9eda812@@$0A@@tr1@std@@X@tr1@std@@UEAAPEAXI@Z 000000018000c81c f i UnityBuildCore.cpp.obj
 0001:0000b81c       ??_E?$_Impl_no_alloc0@U?$_Callable_obj@V<lambda318>@?A0xe9eda812@@$0A@@tr1@std@@X@tr1@std@@UEAAPEAXI@Z 000000018000c81c f i UnityBuildCore.cpp.obj
 0001:0000b81c       ??_E?$_Impl_no_alloc0@U?$_Callable_obj@V<lambda302>@?A0xe9eda812@@$0A@@tr1@std@@X@tr1@std@@UEAAPEAXI@Z 000000018000c81c f i UnityBuildCore.cpp.obj
 0001:0000b81c       ??_E?$_Impl_no_alloc0@U?$_Callable_obj@V<lambda167>@?A0xe9eda812@@$0A@@tr1@std@@X@tr1@std@@UEAAPEAXI@Z 000000018000c81c f i UnityBuildCore.cpp.obj
 0001:0000b81c       ??_E?$_Impl_no_alloc0@U?$_Callable_obj@V<lambda366>@?A0xe9eda812@@$0A@@tr1@std@@X@tr1@std@@UEAAPEAXI@Z 000000018000c81c f i UnityBuildCore.cpp.obj
 0001:0000b81c       ??_E?$_Impl_no_alloc0@U?$_Callable_obj@V<lambda178>@?A0xe9eda812@@$0A@@tr1@std@@X@tr1@std@@UEAAPEAXI@Z 000000018000c81c f i UnityBuildCore.cpp.obj
 0001:0000b81c       ??_G?$_Impl_no_alloc0@U?$_Callable_obj@V<lambda257>@?A0xe9eda812@@$0A@@tr1@std@@X@tr1@std@@UEAAPEAXI@Z 000000018000c81c f i UnityBuildCore.cpp.obj
 0001:0000b81c       ??_G?$_Impl_no_alloc0@U?$_Callable_obj@V<lambda265>@?A0xe9eda812@@$0A@@tr1@std@@X@tr1@std@@UEAAPEAXI@Z 000000018000c81c f i UnityBuildCore.cpp.obj
 0001:0000b81c       ??_E?$_Impl_no_alloc0@U?$_Callable_obj@V<lambda306>@?A0xe9eda812@@$0A@@tr1@std@@X@tr1@std@@UEAAPEAXI@Z 000000018000c81c f i UnityBuildCore.cpp.obj
 0001:0000b81c       ??_G?$_Impl_no_alloc0@U?$_Callable_obj@V<lambda297>@?A0xe9eda812@@$0A@@tr1@std@@X@tr1@std@@UEAAPEAXI@Z 000000018000c81c f i UnityBuildCore.cpp.obj
 0001:0000b81c       ??_E?$_Impl_no_alloc0@U?$_Callable_obj@V<lambda145>@?A0xe9eda812@@$0A@@tr1@std@@X@tr1@std@@UEAAPEAXI@Z 000000018000c81c f i UnityBuildCore.cpp.obj
 0001:0000b81c       ??_G?$_Impl_no_alloc0@U?$_Callable_obj@V<lambda74>@?A0xe9eda812@@$0A@@tr1@std@@X@tr1@std@@UEAAPEAXI@Z 000000018000c81c f i UnityBuildCore.cpp.obj
 0001:0000b81c       ??_E?$_Impl_no_alloc0@U?$_Callable_obj@V<lambda297>@?A0xe9eda812@@$0A@@tr1@std@@X@tr1@std@@UEAAPEAXI@Z 000000018000c81c f i UnityBuildCore.cpp.obj
 0001:0000b81c       ??_E?$_Impl_no_alloc0@U?$_Callable_obj@V<lambda218>@?A0xe9eda812@@$0A@@tr1@std@@X@tr1@std@@UEAAPEAXI@Z 000000018000c81c f i UnityBuildCore.cpp.obj
 0001:0000b81c       ??_E?$_Impl_no_alloc0@U?$_Callable_obj@V<lambda138>@?A0xe9eda812@@$0A@@tr1@std@@X@tr1@std@@UEAAPEAXI@Z 000000018000c81c f i UnityBuildCore.cpp.obj
 0001:0000b81c       ??_E?$_Impl_no_alloc0@U?$_Callable_obj@V<lambda93>@?A0xe9eda812@@$0A@@tr1@std@@X@tr1@std@@UEAAPEAXI@Z 000000018000c81c f i UnityBuildCore.cpp.obj
 0001:0000b81c       ??_E?$_Impl_no_alloc0@U?$_Callable_obj@V<lambda359>@?A0xe9eda812@@$0A@@tr1@std@@X@tr1@std@@UEAAPEAXI@Z 000000018000c81c f i UnityBuildCore.cpp.obj
 0001:0000b81c       ??_E?$_Impl_no_alloc0@U?$_Callable_obj@V<lambda74>@?A0xe9eda812@@$0A@@tr1@std@@X@tr1@std@@UEAAPEAXI@Z 000000018000c81c f i UnityBuildCore.cpp.obj
 0001:0000b81c       ??_G?$_Impl_no_alloc0@U?$_Callable_obj@V<lambda289>@?A0xe9eda812@@$0A@@tr1@std@@X@tr1@std@@UEAAPEAXI@Z 000000018000c81c f i UnityBuildCore.cpp.obj
 0001:0000b81c       ??_G?$_Impl_no_alloc0@U?$_Callable_obj@V<lambda40>@?A0xe9eda812@@$0A@@tr1@std@@X@tr1@std@@UEAAPEAXI@Z 000000018000c81c f i UnityBuildCore.cpp.obj
 0001:0000b81c       ??_G?$_Impl_no_alloc0@U?$_Callable_obj@V<lambda372>@?A0xe9eda812@@$0A@@tr1@std@@X@tr1@std@@UEAAPEAXI@Z 000000018000c81c f i UnityBuildCore.cpp.obj
 0001:0000b81c       ??_G?$_Impl_no_alloc0@U?$_Callable_obj@V<lambda188>@?A0xe9eda812@@$0A@@tr1@std@@X@tr1@std@@UEAAPEAXI@Z 000000018000c81c f i UnityBuildCore.cpp.obj
 0001:0000b81c       ??_G?$_Impl_no_alloc0@U?$_Callable_obj@V<lambda284>@?A0xe9eda812@@$0A@@tr1@std@@X@tr1@std@@UEAAPEAXI@Z 000000018000c81c f i UnityBuildCore.cpp.obj
 0001:0000b81c       ??_E?$_Impl_no_alloc0@U?$_Callable_obj@V<lambda290>@?A0xe9eda812@@$0A@@tr1@std@@X@tr1@std@@UEAAPEAXI@Z 000000018000c81c f i UnityBuildCore.cpp.obj
 0001:0000b81c       ??_G?$_Impl_no_alloc0@U?$_Callable_obj@V<lambda63>@?A0xe9eda812@@$0A@@tr1@std@@X@tr1@std@@UEAAPEAXI@Z 000000018000c81c f i UnityBuildCore.cpp.obj
 0001:0000b81c       ??_G?$_Impl_no_alloc0@U?$_Callable_obj@V<lambda76>@?A0xe9eda812@@$0A@@tr1@std@@X@tr1@std@@UEAAPEAXI@Z 000000018000c81c f i UnityBuildCore.cpp.obj
 0001:0000b81c       ??_G?$_Impl_no_alloc0@U?$_Callable_obj@V<lambda44>@?A0xe9eda812@@$0A@@tr1@std@@X@tr1@std@@UEAAPEAXI@Z 000000018000c81c f i UnityBuildCore.cpp.obj
 0001:0000b81c       ??_G?$_Impl_no_alloc0@U?$_Callable_obj@V<lambda141>@?A0xe9eda812@@$0A@@tr1@std@@X@tr1@std@@UEAAPEAXI@Z 000000018000c81c f i UnityBuildCore.cpp.obj
 0001:0000b81c       ??_E?$_Impl_no_alloc0@U?$_Callable_obj@V<lambda253>@?A0xe9eda812@@$0A@@tr1@std@@X@tr1@std@@UEAAPEAXI@Z 000000018000c81c f i UnityBuildCore.cpp.obj
 0001:0000b81c       ??_E?$_Impl_no_alloc0@U?$_Callable_obj@V<lambda55>@?A0xe9eda812@@$0A@@tr1@std@@X@tr1@std@@UEAAPEAXI@Z 000000018000c81c f i UnityBuildCore.cpp.obj
 0001:0000b81c       ??_G?$_Impl_no_alloc0@U?$_Callable_obj@V<lambda178>@?A0xe9eda812@@$0A@@tr1@std@@X@tr1@std@@UEAAPEAXI@Z 000000018000c81c f i UnityBuildCore.cpp.obj
 0001:0000b81c       ??_G?$_Impl_no_alloc0@U?$_Callable_obj@V<lambda253>@?A0xe9eda812@@$0A@@tr1@std@@X@tr1@std@@UEAAPEAXI@Z 000000018000c81c f i UnityBuildCore.cpp.obj
 0001:0000b81c       ??_G?$_Impl_no_alloc0@U?$_Callable_obj@V<lambda105>@?A0xe9eda812@@$0A@@tr1@std@@X@tr1@std@@UEAAPEAXI@Z 000000018000c81c f i UnityBuildCore.cpp.obj
 0001:0000b81c       ??_G?$_Impl_no_alloc0@U?$_Callable_obj@V<lambda32>@?A0xe9eda812@@$0A@@tr1@std@@X@tr1@std@@UEAAPEAXI@Z 000000018000c81c f i UnityBuildCore.cpp.obj
 0001:0000b81c       ??_G?$_Impl_no_alloc0@U?$_Callable_obj@V<lambda321>@?A0xe9eda812@@$0A@@tr1@std@@X@tr1@std@@UEAAPEAXI@Z 000000018000c81c f i UnityBuildCore.cpp.obj
 0001:0000b81c       ??_E?$_Impl_no_alloc0@U?$_Callable_obj@V<lambda316>@?A0xe9eda812@@$0A@@tr1@std@@X@tr1@std@@UEAAPEAXI@Z 000000018000c81c f i UnityBuildCore.cpp.obj
 0001:0000b81c       ??_E?$_Impl_no_alloc0@U?$_Callable_obj@V<lambda213>@?A0xe9eda812@@$0A@@tr1@std@@X@tr1@std@@UEAAPEAXI@Z 000000018000c81c f i UnityBuildCore.cpp.obj
 0001:0000b81c       ??_E?$_Impl_no_alloc0@U?$_Callable_obj@V<lambda314>@?A0xe9eda812@@$0A@@tr1@std@@X@tr1@std@@UEAAPEAXI@Z 000000018000c81c f i UnityBuildCore.cpp.obj
 0001:0000b81c       ??_G?$_Impl_no_alloc0@U?$_Callable_obj@V<lambda155>@?A0xe9eda812@@$0A@@tr1@std@@X@tr1@std@@UEAAPEAXI@Z 000000018000c81c f i UnityBuildCore.cpp.obj
 0001:0000b81c       ??_E?$_Impl_no_alloc0@U?$_Callable_obj@V<lambda267>@?A0xe9eda812@@$0A@@tr1@std@@X@tr1@std@@UEAAPEAXI@Z 000000018000c81c f i UnityBuildCore.cpp.obj
 0001:0000b81c       ??_G?$_Impl_no_alloc0@U?$_Callable_obj@V<lambda346>@?A0xe9eda812@@$0A@@tr1@std@@X@tr1@std@@UEAAPEAXI@Z 000000018000c81c f i UnityBuildCore.cpp.obj
 0001:0000b81c       ??_E?$_Impl_no_alloc0@U?$_Callable_obj@V<lambda133>@?A0xe9eda812@@$0A@@tr1@std@@X@tr1@std@@UEAAPEAXI@Z 000000018000c81c f i UnityBuildCore.cpp.obj
 0001:0000b81c       ??_E?$_Impl_no_alloc0@U?$_Callable_obj@V<lambda42>@?A0xe9eda812@@$0A@@tr1@std@@X@tr1@std@@UEAAPEAXI@Z 000000018000c81c f i UnityBuildCore.cpp.obj
 0001:0000b81c       ??_G?$_Impl_no_alloc0@U?$_Callable_obj@V<lambda107>@?A0xe9eda812@@$0A@@tr1@std@@X@tr1@std@@UEAAPEAXI@Z 000000018000c81c f i UnityBuildCore.cpp.obj
 0001:0000b81c       ??_E?$_Impl_no_alloc0@U?$_Callable_obj@V<lambda117>@?A0xe9eda812@@$0A@@tr1@std@@X@tr1@std@@UEAAPEAXI@Z 000000018000c81c f i UnityBuildCore.cpp.obj
 0001:0000b81c       ??_E?$_Impl_no_alloc0@U?$_Callable_obj@V<lambda53>@?A0xe9eda812@@$0A@@tr1@std@@X@tr1@std@@UEAAPEAXI@Z 000000018000c81c f i UnityBuildCore.cpp.obj
 0001:0000b81c       ??_G?$_Impl_no_alloc0@U?$_Callable_obj@V<lambda165>@?A0xe9eda812@@$0A@@tr1@std@@X@tr1@std@@UEAAPEAXI@Z 000000018000c81c f i UnityBuildCore.cpp.obj
 0001:0000b81c       ??_G?$_Impl_no_alloc0@U?$_Callable_obj@V<lambda179>@?A0xe9eda812@@$0A@@tr1@std@@X@tr1@std@@UEAAPEAXI@Z 000000018000c81c f i UnityBuildCore.cpp.obj
 0001:0000b81c       ??_E?$_Impl_no_alloc0@U?$_Callable_obj@V<lambda143>@?A0xe9eda812@@$0A@@tr1@std@@X@tr1@std@@UEAAPEAXI@Z 000000018000c81c f i UnityBuildCore.cpp.obj
 0001:0000b81c       ??_E?$_Impl_no_alloc0@U?$_Callable_obj@V<lambda250>@?A0xe9eda812@@$0A@@tr1@std@@X@tr1@std@@UEAAPEAXI@Z 000000018000c81c f i UnityBuildCore.cpp.obj
 0001:0000b81c       ??_G?$_Impl_no_alloc0@U?$_Callable_obj@V<lambda131>@?A0xe9eda812@@$0A@@tr1@std@@X@tr1@std@@UEAAPEAXI@Z 000000018000c81c f i UnityBuildCore.cpp.obj
 0001:0000b81c       ??_E?$_Impl_no_alloc0@U?$_Callable_obj@V<lambda346>@?A0xe9eda812@@$0A@@tr1@std@@X@tr1@std@@UEAAPEAXI@Z 000000018000c81c f i UnityBuildCore.cpp.obj
 0001:0000b81c       ??_G?$_Impl_no_alloc0@U?$_Callable_obj@V<lambda314>@?A0xe9eda812@@$0A@@tr1@std@@X@tr1@std@@UEAAPEAXI@Z 000000018000c81c f i UnityBuildCore.cpp.obj
 0001:0000b81c       ??_E?$_Impl_no_alloc0@U?$_Callable_obj@V<lambda304>@?A0xe9eda812@@$0A@@tr1@std@@X@tr1@std@@UEAAPEAXI@Z 000000018000c81c f i UnityBuildCore.cpp.obj
 0001:0000b81c       ??_G?$_Impl_no_alloc0@U?$_Callable_obj@V<lambda313>@?A0xe9eda812@@$0A@@tr1@std@@X@tr1@std@@UEAAPEAXI@Z 000000018000c81c f i UnityBuildCore.cpp.obj
 0001:0000b81c       ??_G?$_Impl_no_alloc0@U?$_Callable_obj@V<lambda227>@?A0xe9eda812@@$0A@@tr1@std@@X@tr1@std@@UEAAPEAXI@Z 000000018000c81c f i UnityBuildCore.cpp.obj
 0001:0000b81c       ??_G?$_Impl_no_alloc0@U?$_Callable_obj@V<lambda181>@?A0xe9eda812@@$0A@@tr1@std@@X@tr1@std@@UEAAPEAXI@Z 000000018000c81c f i UnityBuildCore.cpp.obj
 0001:0000b81c       ??_G?$_Impl_no_alloc0@U?$_Callable_obj@V<lambda206>@?A0xe9eda812@@$0A@@tr1@std@@X@tr1@std@@UEAAPEAXI@Z 000000018000c81c f i UnityBuildCore.cpp.obj
 0001:0000b81c       ??_G?$_Impl_no_alloc0@U?$_Callable_obj@V<lambda233>@?A0xe9eda812@@$0A@@tr1@std@@X@tr1@std@@UEAAPEAXI@Z 000000018000c81c f i UnityBuildCore.cpp.obj
 0001:0000b81c       ??_E?$_Impl_no_alloc0@U?$_Callable_obj@V<lambda208>@?A0xe9eda812@@$0A@@tr1@std@@X@tr1@std@@UEAAPEAXI@Z 000000018000c81c f i UnityBuildCore.cpp.obj
 0001:0000b81c       ??_E?$_Impl_no_alloc0@U?$_Callable_obj@V<lambda227>@?A0xe9eda812@@$0A@@tr1@std@@X@tr1@std@@UEAAPEAXI@Z 000000018000c81c f i UnityBuildCore.cpp.obj
 0001:0000b81c       ??_E?$_Impl_no_alloc0@U?$_Callable_obj@V<lambda281>@?A0xe9eda812@@$0A@@tr1@std@@X@tr1@std@@UEAAPEAXI@Z 000000018000c81c f i UnityBuildCore.cpp.obj
 0001:0000b81c       ??_G?$_Impl_no_alloc0@U?$_Callable_obj@V<lambda291>@?A0xe9eda812@@$0A@@tr1@std@@X@tr1@std@@UEAAPEAXI@Z 000000018000c81c f i UnityBuildCore.cpp.obj
 0001:0000b81c       ??_E?$_Impl_no_alloc0@U?$_Callable_obj@V<lambda115>@?A0xe9eda812@@$0A@@tr1@std@@X@tr1@std@@UEAAPEAXI@Z 000000018000c81c f i UnityBuildCore.cpp.obj
 0001:0000b81c       ??_E?$_Impl_no_alloc0@U?$_Callable_obj@V<lambda59>@?A0xe9eda812@@$0A@@tr1@std@@X@tr1@std@@UEAAPEAXI@Z 000000018000c81c f i UnityBuildCore.cpp.obj
 0001:0000b81c       ??_G?$_Impl_no_alloc0@U?$_Callable_obj@V<lambda196>@?A0xe9eda812@@$0A@@tr1@std@@X@tr1@std@@UEAAPEAXI@Z 000000018000c81c f i UnityBuildCore.cpp.obj
 0001:0000b81c       ??_G?$_Impl_no_alloc0@U?$_Callable_obj@V<lambda158>@?A0xe9eda812@@$0A@@tr1@std@@X@tr1@std@@UEAAPEAXI@Z 000000018000c81c f i UnityBuildCore.cpp.obj
 0001:0000b81c       ??_E?$_Impl_no_alloc0@U?$_Callable_obj@V<lambda217>@?A0xe9eda812@@$0A@@tr1@std@@X@tr1@std@@UEAAPEAXI@Z 000000018000c81c f i UnityBuildCore.cpp.obj
 0001:0000b81c       ??_G?$_Impl_no_alloc0@U?$_Callable_obj@V<lambda164>@?A0xe9eda812@@$0A@@tr1@std@@X@tr1@std@@UEAAPEAXI@Z 000000018000c81c f i UnityBuildCore.cpp.obj
 0001:0000b81c       ??_G?$_Impl_no_alloc0@U?$_Callable_obj@V<lambda366>@?A0xe9eda812@@$0A@@tr1@std@@X@tr1@std@@UEAAPEAXI@Z 000000018000c81c f i UnityBuildCore.cpp.obj
 0001:0000b81c       ??_E?$_Impl_no_alloc0@U?$_Callable_obj@V<lambda81>@?A0xe9eda812@@$0A@@tr1@std@@X@tr1@std@@UEAAPEAXI@Z 000000018000c81c f i UnityBuildCore.cpp.obj
 0001:0000b81c       ??_G?$_Impl_no_alloc0@U?$_Callable_obj@V<lambda172>@?A0xe9eda812@@$0A@@tr1@std@@X@tr1@std@@UEAAPEAXI@Z 000000018000c81c f i UnityBuildCore.cpp.obj
 0001:0000b81c       ??_E?$_Impl_no_alloc0@U?$_Callable_obj@V<lambda24>@?A0xe9eda812@@$0A@@tr1@std@@X@tr1@std@@UEAAPEAXI@Z 000000018000c81c f i UnityBuildCore.cpp.obj
 0001:0000b81c       ??_G?$_Impl_no_alloc0@U?$_Callable_obj@V<lambda288>@?A0xe9eda812@@$0A@@tr1@std@@X@tr1@std@@UEAAPEAXI@Z 000000018000c81c f i UnityBuildCore.cpp.obj
 0001:0000b81c       ??_E?$_Impl_no_alloc0@U?$_Callable_obj@V<lambda313>@?A0xe9eda812@@$0A@@tr1@std@@X@tr1@std@@UEAAPEAXI@Z 000000018000c81c f i UnityBuildCore.cpp.obj
 0001:0000b81c       ??_G?$_Impl_no_alloc0@U?$_Callable_obj@V<lambda194>@?A0xe9eda812@@$0A@@tr1@std@@X@tr1@std@@UEAAPEAXI@Z 000000018000c81c f i UnityBuildCore.cpp.obj
 0001:0000b81c       ??_E?$_Impl_no_alloc0@U?$_Callable_obj@V<lambda317>@?A0xe9eda812@@$0A@@tr1@std@@X@tr1@std@@UEAAPEAXI@Z 000000018000c81c f i UnityBuildCore.cpp.obj
 0001:0000b81c       ??_E?$_Impl_no_alloc0@U?$_Callable_obj@V<lambda294>@?A0xe9eda812@@$0A@@tr1@std@@X@tr1@std@@UEAAPEAXI@Z 000000018000c81c f i UnityBuildCore.cpp.obj
 0001:0000b81c       ??_G?$_Impl_no_alloc0@U?$_Callable_obj@V<lambda145>@?A0xe9eda812@@$0A@@tr1@std@@X@tr1@std@@UEAAPEAXI@Z 000000018000c81c f i UnityBuildCore.cpp.obj
 0001:0000b81c       ??_E?$_Impl_no_alloc0@U?$_Callable_obj@V<lambda38>@?A0xe9eda812@@$0A@@tr1@std@@X@tr1@std@@UEAAPEAXI@Z 000000018000c81c f i UnityBuildCore.cpp.obj
 0001:0000b81c       ??_G?$_Impl_no_alloc0@U?$_Callable_obj@V<lambda138>@?A0xe9eda812@@$0A@@tr1@std@@X@tr1@std@@UEAAPEAXI@Z 000000018000c81c f i UnityBuildCore.cpp.obj
 0001:0000b81c       ??_E?$_Impl_no_alloc0@U?$_Callable_obj@V<lambda177>@?A0xe9eda812@@$0A@@tr1@std@@X@tr1@std@@UEAAPEAXI@Z 000000018000c81c f i UnityBuildCore.cpp.obj
 0001:0000b81c       ??_G?$_Impl_no_alloc0@U?$_Callable_obj@V<lambda290>@?A0xe9eda812@@$0A@@tr1@std@@X@tr1@std@@UEAAPEAXI@Z 000000018000c81c f i UnityBuildCore.cpp.obj
 0001:0000b81c       ??_E?$_Impl_no_alloc0@U?$_Callable_obj@V<lambda63>@?A0xe9eda812@@$0A@@tr1@std@@X@tr1@std@@UEAAPEAXI@Z 000000018000c81c f i UnityBuildCore.cpp.obj
 0001:0000b81c       ??_E?$_Impl_no_alloc0@U?$_Callable_obj@V<lambda337>@?A0xe9eda812@@$0A@@tr1@std@@X@tr1@std@@UEAAPEAXI@Z 000000018000c81c f i UnityBuildCore.cpp.obj
 0001:0000b81c       ??_G?$_Impl_no_alloc0@U?$_Callable_obj@V<lambda344>@?A0xe9eda812@@$0A@@tr1@std@@X@tr1@std@@UEAAPEAXI@Z 000000018000c81c f i UnityBuildCore.cpp.obj
 0001:0000b81c       ??_E?$_Impl_no_alloc0@U?$_Callable_obj@V<lambda223>@?A0xe9eda812@@$0A@@tr1@std@@X@tr1@std@@UEAAPEAXI@Z 000000018000c81c f i UnityBuildCore.cpp.obj
 0001:0000b81c       ??_G?$_Impl_no_alloc0@U?$_Callable_obj@V<lambda293>@?A0xe9eda812@@$0A@@tr1@std@@X@tr1@std@@UEAAPEAXI@Z 000000018000c81c f i UnityBuildCore.cpp.obj
 0001:0000b81c       ??_E?$_Impl_no_alloc0@U?$_Callable_obj@V<lambda352>@?A0xe9eda812@@$0A@@tr1@std@@X@tr1@std@@UEAAPEAXI@Z 000000018000c81c f i UnityBuildCore.cpp.obj
 0001:0000b81c       ??_G?$_Impl_no_alloc0@U?$_Callable_obj@V<lambda356>@?A0xe9eda812@@$0A@@tr1@std@@X@tr1@std@@UEAAPEAXI@Z 000000018000c81c f i UnityBuildCore.cpp.obj
 0001:0000b81c       ??_G?$_Impl_no_alloc0@U?$_Callable_obj@V<lambda68>@?A0xe9eda812@@$0A@@tr1@std@@X@tr1@std@@UEAAPEAXI@Z 000000018000c81c f i UnityBuildCore.cpp.obj
 0001:0000b81c       ??_E?$_Impl_no_alloc0@U?$_Callable_obj@V<lambda183>@?A0xe9eda812@@$0A@@tr1@std@@X@tr1@std@@UEAAPEAXI@Z 000000018000c81c f i UnityBuildCore.cpp.obj
 0001:0000b81c       ??_E?$_Impl_no_alloc0@U?$_Callable_obj@V<lambda84>@?A0xe9eda812@@$0A@@tr1@std@@X@tr1@std@@UEAAPEAXI@Z 000000018000c81c f i UnityBuildCore.cpp.obj
 0001:0000b81c       ??_G?$_Impl_no_alloc0@U?$_Callable_obj@V<lambda209>@?A0xe9eda812@@$0A@@tr1@std@@X@tr1@std@@UEAAPEAXI@Z 000000018000c81c f i UnityBuildCore.cpp.obj
 0001:0000b81c       ??_E?$_Impl_no_alloc0@U?$_Callable_obj@V<lambda291>@?A0xe9eda812@@$0A@@tr1@std@@X@tr1@std@@UEAAPEAXI@Z 000000018000c81c f i UnityBuildCore.cpp.obj
 0001:0000b81c       ??_E?$_Impl_no_alloc0@U?$_Callable_obj@V<lambda121>@?A0xe9eda812@@$0A@@tr1@std@@X@tr1@std@@UEAAPEAXI@Z 000000018000c81c f i UnityBuildCore.cpp.obj
 0001:0000b81c       ??_E?$_Impl_no_alloc0@U?$_Callable_obj@V<lambda277>@?A0xe9eda812@@$0A@@tr1@std@@X@tr1@std@@UEAAPEAXI@Z 000000018000c81c f i UnityBuildCore.cpp.obj
 0001:0000b81c       ??_G?$_Impl_no_alloc0@U?$_Callable_obj@V<lambda137>@?A0xe9eda812@@$0A@@tr1@std@@X@tr1@std@@UEAAPEAXI@Z 000000018000c81c f i UnityBuildCore.cpp.obj
 0001:0000b81c       ??_G?$_Impl_no_alloc0@U?$_Callable_obj@V<lambda286>@?A0xe9eda812@@$0A@@tr1@std@@X@tr1@std@@UEAAPEAXI@Z 000000018000c81c f i UnityBuildCore.cpp.obj
 0001:0000b81c       ??_E?$_Impl_no_alloc0@U?$_Callable_obj@V<lambda137>@?A0xe9eda812@@$0A@@tr1@std@@X@tr1@std@@UEAAPEAXI@Z 000000018000c81c f i UnityBuildCore.cpp.obj
 0001:0000b81c       ??_E?$_Impl_no_alloc0@U?$_Callable_obj@V<lambda238>@?A0xe9eda812@@$0A@@tr1@std@@X@tr1@std@@UEAAPEAXI@Z 000000018000c81c f i UnityBuildCore.cpp.obj
 0001:0000b81c       ??_E?$_Impl_no_alloc0@U?$_Callable_obj@V<lambda340>@?A0xe9eda812@@$0A@@tr1@std@@X@tr1@std@@UEAAPEAXI@Z 000000018000c81c f i UnityBuildCore.cpp.obj
 0001:0000b81c       ??_G?$_Impl_no_alloc0@U?$_Callable_obj@V<lambda352>@?A0xe9eda812@@$0A@@tr1@std@@X@tr1@std@@UEAAPEAXI@Z 000000018000c81c f i UnityBuildCore.cpp.obj
 0001:0000b81c       ??_E?$_Impl_no_alloc0@U?$_Callable_obj@V<lambda36>@?A0xe9eda812@@$0A@@tr1@std@@X@tr1@std@@UEAAPEAXI@Z 000000018000c81c f i UnityBuildCore.cpp.obj
 0001:0000b81c       ??_G?$_Impl_no_alloc0@U?$_Callable_obj@V<lambda53>@?A0xe9eda812@@$0A@@tr1@std@@X@tr1@std@@UEAAPEAXI@Z 000000018000c81c f i UnityBuildCore.cpp.obj
 0001:0000b81c       ??_G?$_Impl_no_alloc0@U?$_Callable_obj@V<lambda330>@?A0xe9eda812@@$0A@@tr1@std@@X@tr1@std@@UEAAPEAXI@Z 000000018000c81c f i UnityBuildCore.cpp.obj
 0001:0000b81c       ??_G?$_Impl_no_alloc0@U?$_Callable_obj@V<lambda312>@?A0xe9eda812@@$0A@@tr1@std@@X@tr1@std@@UEAAPEAXI@Z 000000018000c81c f i UnityBuildCore.cpp.obj
 0001:0000b81c       ??_G?$_Impl_no_alloc0@U?$_Callable_obj@V<lambda121>@?A0xe9eda812@@$0A@@tr1@std@@X@tr1@std@@UEAAPEAXI@Z 000000018000c81c f i UnityBuildCore.cpp.obj
 0001:0000b81c       ??_E?$_Impl_no_alloc0@U?$_Callable_obj@V<lambda323>@?A0xe9eda812@@$0A@@tr1@std@@X@tr1@std@@UEAAPEAXI@Z 000000018000c81c f i UnityBuildCore.cpp.obj
 0001:0000b81c       ??_G?$_Impl_no_alloc0@U?$_Callable_obj@V<lambda337>@?A0xe9eda812@@$0A@@tr1@std@@X@tr1@std@@UEAAPEAXI@Z 000000018000c81c f i UnityBuildCore.cpp.obj
 0001:0000b81c       ??_G?$_Impl_no_alloc0@U?$_Callable_obj@V<lambda250>@?A0xe9eda812@@$0A@@tr1@std@@X@tr1@std@@UEAAPEAXI@Z 000000018000c81c f i UnityBuildCore.cpp.obj
 0001:0000b81c       ??_G?$_Impl_no_alloc0@U?$_Callable_obj@V<lambda201>@?A0xe9eda812@@$0A@@tr1@std@@X@tr1@std@@UEAAPEAXI@Z 000000018000c81c f i UnityBuildCore.cpp.obj
 0001:0000b81c       ??_E?$_Impl_no_alloc0@U?$_Callable_obj@V<lambda202>@?A0xe9eda812@@$0A@@tr1@std@@X@tr1@std@@UEAAPEAXI@Z 000000018000c81c f i UnityBuildCore.cpp.obj
 0001:0000b81c       ??_G?$_Impl_no_alloc0@U?$_Callable_obj@V<lambda31>@?A0xe9eda812@@$0A@@tr1@std@@X@tr1@std@@UEAAPEAXI@Z 000000018000c81c f i UnityBuildCore.cpp.obj
 0001:0000b81c       ??_E?$_Impl_no_alloc0@U?$_Callable_obj@V<lambda288>@?A0xe9eda812@@$0A@@tr1@std@@X@tr1@std@@UEAAPEAXI@Z 000000018000c81c f i UnityBuildCore.cpp.obj
 0001:0000b81c       ??_E?$_Impl_no_alloc0@U?$_Callable_obj@V<lambda179>@?A0xe9eda812@@$0A@@tr1@std@@X@tr1@std@@UEAAPEAXI@Z 000000018000c81c f i UnityBuildCore.cpp.obj
 0001:0000b81c       ??_G?$_Impl_no_alloc0@U?$_Callable_obj@V<lambda246>@?A0xe9eda812@@$0A@@tr1@std@@X@tr1@std@@UEAAPEAXI@Z 000000018000c81c f i UnityBuildCore.cpp.obj
 0001:0000b81c       ??_G?$_Impl_no_alloc0@U?$_Callable_obj@V<lambda20>@?A0xe9eda812@@$0A@@tr1@std@@X@tr1@std@@UEAAPEAXI@Z 000000018000c81c f i UnityBuildCore.cpp.obj
 0001:0000b81c       ??_G?$_Impl_no_alloc0@U?$_Callable_obj@V<lambda223>@?A0xe9eda812@@$0A@@tr1@std@@X@tr1@std@@UEAAPEAXI@Z 000000018000c81c f i UnityBuildCore.cpp.obj
 0001:0000b81c       ??_E?$_Impl_no_alloc0@U?$_Callable_obj@V<lambda188>@?A0xe9eda812@@$0A@@tr1@std@@X@tr1@std@@UEAAPEAXI@Z 000000018000c81c f i UnityBuildCore.cpp.obj
 0001:0000b81c       ??_E?$_Impl_no_alloc0@U?$_Callable_obj@V<lambda194>@?A0xe9eda812@@$0A@@tr1@std@@X@tr1@std@@UEAAPEAXI@Z 000000018000c81c f i UnityBuildCore.cpp.obj
 0001:0000b81c       ??_G?$_Impl_no_alloc0@U?$_Callable_obj@V<lambda332>@?A0xe9eda812@@$0A@@tr1@std@@X@tr1@std@@UEAAPEAXI@Z 000000018000c81c f i UnityBuildCore.cpp.obj
 0001:0000b81c       ??_E?$_Impl_no_alloc0@U?$_Callable_obj@V<lambda361>@?A0xe9eda812@@$0A@@tr1@std@@X@tr1@std@@UEAAPEAXI@Z 000000018000c81c f i UnityBuildCore.cpp.obj
 0001:0000b81c       ??_G?$_Impl_no_alloc0@U?$_Callable_obj@V<lambda24>@?A0xe9eda812@@$0A@@tr1@std@@X@tr1@std@@UEAAPEAXI@Z 000000018000c81c f i UnityBuildCore.cpp.obj
 0001:0000b81c       ??_E?$_Impl_no_alloc0@U?$_Callable_obj@V<lambda12>@?A0xe9eda812@@$0A@@tr1@std@@X@tr1@std@@UEAAPEAXI@Z 000000018000c81c f i UnityBuildCore.cpp.obj
 0001:0000b81c       ??_G?$_Impl_no_alloc0@U?$_Callable_obj@V<lambda111>@?A0xe9eda812@@$0A@@tr1@std@@X@tr1@std@@UEAAPEAXI@Z 000000018000c81c f i UnityBuildCore.cpp.obj
 0001:0000b81c       ??_E?$_Impl_no_alloc0@U?$_Callable_obj@V<lambda211>@?A0xe9eda812@@$0A@@tr1@std@@X@tr1@std@@UEAAPEAXI@Z 000000018000c81c f i UnityBuildCore.cpp.obj
 0001:0000b81c       ??_G?$_Impl_no_alloc0@U?$_Callable_obj@V<lambda204>@?A0xe9eda812@@$0A@@tr1@std@@X@tr1@std@@UEAAPEAXI@Z 000000018000c81c f i UnityBuildCore.cpp.obj
 0001:0000b81c       ??_G?$_Impl_no_alloc0@U?$_Callable_obj@V<lambda195>@?A0xe9eda812@@$0A@@tr1@std@@X@tr1@std@@UEAAPEAXI@Z 000000018000c81c f i UnityBuildCore.cpp.obj
 0001:0000b81c       ??_E?$_Impl_no_alloc0@U?$_Callable_obj@V<lambda85>@?A0xe9eda812@@$0A@@tr1@std@@X@tr1@std@@UEAAPEAXI@Z 000000018000c81c f i UnityBuildCore.cpp.obj
 0001:0000b81c       ??_E?$_Impl_no_alloc0@U?$_Callable_obj@V<lambda299>@?A0xe9eda812@@$0A@@tr1@std@@X@tr1@std@@UEAAPEAXI@Z 000000018000c81c f i UnityBuildCore.cpp.obj
 0001:0000b81c       ??_E?$_Impl_no_alloc0@U?$_Callable_obj@V<lambda44>@?A0xe9eda812@@$0A@@tr1@std@@X@tr1@std@@UEAAPEAXI@Z 000000018000c81c f i UnityBuildCore.cpp.obj
 0001:0000b81c       ??_G?$_Impl_no_alloc0@U?$_Callable_obj@V<lambda300>@?A0xe9eda812@@$0A@@tr1@std@@X@tr1@std@@UEAAPEAXI@Z 000000018000c81c f i UnityBuildCore.cpp.obj
 0001:0000b81c       ??_E?$_Impl_no_alloc0@U?$_Callable_obj@V<lambda191>@?A0xe9eda812@@$0A@@tr1@std@@X@tr1@std@@UEAAPEAXI@Z 000000018000c81c f i UnityBuildCore.cpp.obj
 0001:0000b81c       ??_G?$_Impl_no_alloc0@U?$_Callable_obj@V<lambda224>@?A0xe9eda812@@$0A@@tr1@std@@X@tr1@std@@UEAAPEAXI@Z 000000018000c81c f i UnityBuildCore.cpp.obj
 0001:0000b81c       ??_G?$_Impl_no_alloc0@U?$_Callable_obj@V<lambda147>@?A0xe9eda812@@$0A@@tr1@std@@X@tr1@std@@UEAAPEAXI@Z 000000018000c81c f i UnityBuildCore.cpp.obj
 0001:0000b81c       ??_G?$_Impl_no_alloc0@U?$_Callable_obj@V<lambda317>@?A0xe9eda812@@$0A@@tr1@std@@X@tr1@std@@UEAAPEAXI@Z 000000018000c81c f i UnityBuildCore.cpp.obj
 0001:0000b81c       ??_E?$_Impl_no_alloc0@U?$_Callable_obj@V<lambda148>@?A0xe9eda812@@$0A@@tr1@std@@X@tr1@std@@UEAAPEAXI@Z 000000018000c81c f i UnityBuildCore.cpp.obj
 0001:0000b81c       ??_E?$_Impl_no_alloc0@U?$_Callable_obj@V<lambda289>@?A0xe9eda812@@$0A@@tr1@std@@X@tr1@std@@UEAAPEAXI@Z 000000018000c81c f i UnityBuildCore.cpp.obj
 0001:0000b81c       ??_E?$_Impl_no_alloc0@U?$_Callable_obj@V<lambda106>@?A0xe9eda812@@$0A@@tr1@std@@X@tr1@std@@UEAAPEAXI@Z 000000018000c81c f i UnityBuildCore.cpp.obj
 0001:0000b81c       ??_E?$_Impl_no_alloc0@U?$_Callable_obj@V<lambda108>@?A0xe9eda812@@$0A@@tr1@std@@X@tr1@std@@UEAAPEAXI@Z 000000018000c81c f i UnityBuildCore.cpp.obj
 0001:0000b81c       ??_G?$_Impl_no_alloc0@U?$_Callable_obj@V<lambda325>@?A0xe9eda812@@$0A@@tr1@std@@X@tr1@std@@UEAAPEAXI@Z 000000018000c81c f i UnityBuildCore.cpp.obj
 0001:0000b81c       ??_G?$_Impl_no_alloc0@U?$_Callable_obj@V<lambda17>@?A0xe9eda812@@$0A@@tr1@std@@X@tr1@std@@UEAAPEAXI@Z 000000018000c81c f i UnityBuildCore.cpp.obj
 0001:0000b81c       ??_E?$_Impl_no_alloc0@U?$_Callable_obj@V<lambda70>@?A0xe9eda812@@$0A@@tr1@std@@X@tr1@std@@UEAAPEAXI@Z 000000018000c81c f i UnityBuildCore.cpp.obj
 0001:0000b81c       ??_E?$_Impl_no_alloc0@U?$_Callable_obj@V<lambda233>@?A0xe9eda812@@$0A@@tr1@std@@X@tr1@std@@UEAAPEAXI@Z 000000018000c81c f i UnityBuildCore.cpp.obj
 0001:0000b81c       ??_E?$_Impl_no_alloc0@U?$_Callable_obj@V<lambda172>@?A0xe9eda812@@$0A@@tr1@std@@X@tr1@std@@UEAAPEAXI@Z 000000018000c81c f i UnityBuildCore.cpp.obj
 0001:0000b81c       ??_E?$_Impl_no_alloc0@U?$_Callable_obj@V<lambda163>@?A0xe9eda812@@$0A@@tr1@std@@X@tr1@std@@UEAAPEAXI@Z 000000018000c81c f i UnityBuildCore.cpp.obj
 0001:0000b81c       ??_G?$_Impl_no_alloc0@U?$_Callable_obj@V<lambda193>@?A0xe9eda812@@$0A@@tr1@std@@X@tr1@std@@UEAAPEAXI@Z 000000018000c81c f i UnityBuildCore.cpp.obj
 0001:0000b81c       ??_G?$_Impl_no_alloc0@U?$_Callable_obj@V<lambda208>@?A0xe9eda812@@$0A@@tr1@std@@X@tr1@std@@UEAAPEAXI@Z 000000018000c81c f i UnityBuildCore.cpp.obj
 0001:0000b81c       ??_G?$_Impl_no_alloc0@U?$_Callable_obj@V<lambda46>@?A0xe9eda812@@$0A@@tr1@std@@X@tr1@std@@UEAAPEAXI@Z 000000018000c81c f i UnityBuildCore.cpp.obj
 0001:0000b81c       ??_E?$_Impl_no_alloc0@U?$_Callable_obj@V<lambda129>@?A0xe9eda812@@$0A@@tr1@std@@X@tr1@std@@UEAAPEAXI@Z 000000018000c81c f i UnityBuildCore.cpp.obj
 0001:0000b81c       ??_G?$_Impl_no_alloc0@U?$_Callable_obj@V<lambda177>@?A0xe9eda812@@$0A@@tr1@std@@X@tr1@std@@UEAAPEAXI@Z 000000018000c81c f i UnityBuildCore.cpp.obj
 0001:0000b81c       ??_E?$_Impl_no_alloc0@U?$_Callable_obj@V<lambda339>@?A0xe9eda812@@$0A@@tr1@std@@X@tr1@std@@UEAAPEAXI@Z 000000018000c81c f i UnityBuildCore.cpp.obj
 0001:0000b81c       ??_G?$_Impl_no_alloc0@U?$_Callable_obj@V<lambda93>@?A0xe9eda812@@$0A@@tr1@std@@X@tr1@std@@UEAAPEAXI@Z 000000018000c81c f i UnityBuildCore.cpp.obj
 0001:0000b81c       ??_E?$_Impl_no_alloc0@U?$_Callable_obj@V<lambda303>@?A0xe9eda812@@$0A@@tr1@std@@X@tr1@std@@UEAAPEAXI@Z 000000018000c81c f i UnityBuildCore.cpp.obj
 0001:0000b81c       ??_E?$_Impl_no_alloc0@U?$_Callable_obj@V<lambda345>@?A0xe9eda812@@$0A@@tr1@std@@X@tr1@std@@UEAAPEAXI@Z 000000018000c81c f i UnityBuildCore.cpp.obj
 0001:0000b81c       ??_G?$_Impl_no_alloc0@U?$_Callable_obj@V<lambda106>@?A0xe9eda812@@$0A@@tr1@std@@X@tr1@std@@UEAAPEAXI@Z 000000018000c81c f i UnityBuildCore.cpp.obj
 0001:0000b81c       ??_E?$_Impl_no_alloc0@U?$_Callable_obj@V<lambda155>@?A0xe9eda812@@$0A@@tr1@std@@X@tr1@std@@UEAAPEAXI@Z 000000018000c81c f i UnityBuildCore.cpp.obj
 0001:0000b81c       ??_E?$_Impl_no_alloc0@U?$_Callable_obj@V<lambda141>@?A0xe9eda812@@$0A@@tr1@std@@X@tr1@std@@UEAAPEAXI@Z 000000018000c81c f i UnityBuildCore.cpp.obj
 0001:0000b81c       ??_E?$_Impl_no_alloc0@U?$_Callable_obj@V<lambda332>@?A0xe9eda812@@$0A@@tr1@std@@X@tr1@std@@UEAAPEAXI@Z 000000018000c81c f i UnityBuildCore.cpp.obj
 0001:0000b81c       ??_G?$_Impl_no_alloc0@U?$_Callable_obj@V<lambda336>@?A0xe9eda812@@$0A@@tr1@std@@X@tr1@std@@UEAAPEAXI@Z 000000018000c81c f i UnityBuildCore.cpp.obj
 0001:0000b81c       ??_G?$_Impl_base0@X@tr1@std@@UEAAPEAXI@Z 000000018000c81c f i UnityBuildCore.cpp.obj
 0001:0000b81c       ??_E?$_Impl_no_alloc0@U?$_Callable_obj@V<lambda276>@?A0xe9eda812@@$0A@@tr1@std@@X@tr1@std@@UEAAPEAXI@Z 000000018000c81c f i UnityBuildCore.cpp.obj
 0001:0000b81c       ??_E?$_Impl_no_alloc0@U?$_Callable_obj@V<lambda230>@?A0xe9eda812@@$0A@@tr1@std@@X@tr1@std@@UEAAPEAXI@Z 000000018000c81c f i UnityBuildCore.cpp.obj
 0001:0000b81c       ??_E?$_Impl_no_alloc0@U?$_Callable_obj@V<lambda65>@?A0xe9eda812@@$0A@@tr1@std@@X@tr1@std@@UEAAPEAXI@Z 000000018000c81c f i UnityBuildCore.cpp.obj
 0001:0000b81c       ??_G?$_Impl_no_alloc0@U?$_Callable_obj@V<lambda12>@?A0xe9eda812@@$0A@@tr1@std@@X@tr1@std@@UEAAPEAXI@Z 000000018000c81c f i UnityBuildCore.cpp.obj
 0001:0000b81c       ??_G?$_Impl_no_alloc0@U?$_Callable_obj@V<lambda72>@?A0xe9eda812@@$0A@@tr1@std@@X@tr1@std@@UEAAPEAXI@Z 000000018000c81c f i UnityBuildCore.cpp.obj
 0001:0000b81c       ??_G?$_Impl_no_alloc0@U?$_Callable_obj@V<lambda361>@?A0xe9eda812@@$0A@@tr1@std@@X@tr1@std@@UEAAPEAXI@Z 000000018000c81c f i UnityBuildCore.cpp.obj
 0001:0000b81c       ??_E?$_Impl_no_alloc0@U?$_Callable_obj@V<lambda165>@?A0xe9eda812@@$0A@@tr1@std@@X@tr1@std@@UEAAPEAXI@Z 000000018000c81c f i UnityBuildCore.cpp.obj
 0001:0000b81c       ??_E?$_Impl_no_alloc0@U?$_Callable_obj@V<lambda310>@?A0xe9eda812@@$0A@@tr1@std@@X@tr1@std@@UEAAPEAXI@Z 000000018000c81c f i UnityBuildCore.cpp.obj
 0001:0000b81c       ??_E?$_Impl_no_alloc0@U?$_Callable_obj@V<lambda82>@?A0xe9eda812@@$0A@@tr1@std@@X@tr1@std@@UEAAPEAXI@Z 000000018000c81c f i UnityBuildCore.cpp.obj
 0001:0000b81c       ??_G?$_Impl_no_alloc0@U?$_Callable_obj@V<lambda299>@?A0xe9eda812@@$0A@@tr1@std@@X@tr1@std@@UEAAPEAXI@Z 000000018000c81c f i UnityBuildCore.cpp.obj
 0001:0000b81c       ??_E?$_Impl_no_alloc0@U?$_Callable_obj@V<lambda40>@?A0xe9eda812@@$0A@@tr1@std@@X@tr1@std@@UEAAPEAXI@Z 000000018000c81c f i UnityBuildCore.cpp.obj
 0001:0000b81c       ??_E?$_Impl_no_alloc0@U?$_Callable_obj@V<lambda113>@?A0xe9eda812@@$0A@@tr1@std@@X@tr1@std@@UEAAPEAXI@Z 000000018000c81c f i UnityBuildCore.cpp.obj
 0001:0000b81c       ??_G?$_Impl_no_alloc0@U?$_Callable_obj@V<lambda129>@?A0xe9eda812@@$0A@@tr1@std@@X@tr1@std@@UEAAPEAXI@Z 000000018000c81c f i UnityBuildCore.cpp.obj
 0001:0000b81c       ??_G?$_Impl_no_alloc0@U?$_Callable_obj@V<lambda269>@?A0xe9eda812@@$0A@@tr1@std@@X@tr1@std@@UEAAPEAXI@Z 000000018000c81c f i UnityBuildCore.cpp.obj
 0001:0000b81c       ??_E?$_Impl_no_alloc0@U?$_Callable_obj@V<lambda199>@?A0xe9eda812@@$0A@@tr1@std@@X@tr1@std@@UEAAPEAXI@Z 000000018000c81c f i UnityBuildCore.cpp.obj
 0001:0000b81c       ??_G?$_Impl_no_alloc0@U?$_Callable_obj@V<lambda364>@?A0xe9eda812@@$0A@@tr1@std@@X@tr1@std@@UEAAPEAXI@Z 000000018000c81c f i UnityBuildCore.cpp.obj
 0001:0000b81c       ??_G?$_Impl_no_alloc0@U?$_Callable_obj@V<lambda26>@?A0xe9eda812@@$0A@@tr1@std@@X@tr1@std@@UEAAPEAXI@Z 000000018000c81c f i UnityBuildCore.cpp.obj
 0001:0000b81c       ??_G?$_Impl_no_alloc0@U?$_Callable_obj@V<lambda175>@?A0xe9eda812@@$0A@@tr1@std@@X@tr1@std@@UEAAPEAXI@Z 000000018000c81c f i UnityBuildCore.cpp.obj
 0001:0000b81c       ??_E?$_Impl_no_alloc0@U?$_Callable_obj@V<lambda72>@?A0xe9eda812@@$0A@@tr1@std@@X@tr1@std@@UEAAPEAXI@Z 000000018000c81c f i UnityBuildCore.cpp.obj
 0001:0000b81c       ??_G?$_Impl_no_alloc0@U?$_Callable_obj@V<lambda67>@?A0xe9eda812@@$0A@@tr1@std@@X@tr1@std@@UEAAPEAXI@Z 000000018000c81c f i UnityBuildCore.cpp.obj
 0001:0000b81c       ??_G?$_Impl_no_alloc0@U?$_Callable_obj@V<lambda202>@?A0xe9eda812@@$0A@@tr1@std@@X@tr1@std@@UEAAPEAXI@Z 000000018000c81c f i UnityBuildCore.cpp.obj
 0001:0000b81c       ??_E?$_Impl_no_alloc0@U?$_Callable_obj@V<lambda80>@?A0xe9eda812@@$0A@@tr1@std@@X@tr1@std@@UEAAPEAXI@Z 000000018000c81c f i UnityBuildCore.cpp.obj
 0001:0000b81c       ??_E?$_Impl_no_alloc0@U?$_Callable_obj@V<lambda364>@?A0xe9eda812@@$0A@@tr1@std@@X@tr1@std@@UEAAPEAXI@Z 000000018000c81c f i UnityBuildCore.cpp.obj
 0001:0000b81c       ??_G?$_Impl_no_alloc0@U?$_Callable_obj@V<lambda69>@?A0xe9eda812@@$0A@@tr1@std@@X@tr1@std@@UEAAPEAXI@Z 000000018000c81c f i UnityBuildCore.cpp.obj
 0001:0000b81c       ??_G?$_Impl_no_alloc0@U?$_Callable_obj@V<lambda218>@?A0xe9eda812@@$0A@@tr1@std@@X@tr1@std@@UEAAPEAXI@Z 000000018000c81c f i UnityBuildCore.cpp.obj
 0001:0000b81c       ??_E?$_Impl_no_alloc0@U?$_Callable_obj@V<lambda269>@?A0xe9eda812@@$0A@@tr1@std@@X@tr1@std@@UEAAPEAXI@Z 000000018000c81c f i UnityBuildCore.cpp.obj
 0001:0000b81c       ??_G?$_Impl_no_alloc0@U?$_Callable_obj@V<lambda328>@?A0xe9eda812@@$0A@@tr1@std@@X@tr1@std@@UEAAPEAXI@Z 000000018000c81c f i UnityBuildCore.cpp.obj
 0001:0000b81c       ??_G?$_Impl_no_alloc0@U?$_Callable_obj@V<lambda220>@?A0xe9eda812@@$0A@@tr1@std@@X@tr1@std@@UEAAPEAXI@Z 000000018000c81c f i UnityBuildCore.cpp.obj
 0001:0000b81c       ??_G?$_Impl_no_alloc0@U?$_Callable_obj@V<lambda343>@?A0xe9eda812@@$0A@@tr1@std@@X@tr1@std@@UEAAPEAXI@Z 000000018000c81c f i UnityBuildCore.cpp.obj
 0001:0000b81c       ??_E?$_Impl_no_alloc0@U?$_Callable_obj@V<lambda224>@?A0xe9eda812@@$0A@@tr1@std@@X@tr1@std@@UEAAPEAXI@Z 000000018000c81c f i UnityBuildCore.cpp.obj
 0001:0000b81c       ??_G?$_Impl_no_alloc0@U?$_Callable_obj@V<lambda28>@?A0xe9eda812@@$0A@@tr1@std@@X@tr1@std@@UEAAPEAXI@Z 000000018000c81c f i UnityBuildCore.cpp.obj
 0001:0000b81c       ??_E?$_Impl_no_alloc0@U?$_Callable_obj@V<lambda99>@?A0xe9eda812@@$0A@@tr1@std@@X@tr1@std@@UEAAPEAXI@Z 000000018000c81c f i UnityBuildCore.cpp.obj
 0001:0000b81c       ??_G?$_Impl_no_alloc0@U?$_Callable_obj@V<lambda200>@?A0xe9eda812@@$0A@@tr1@std@@X@tr1@std@@UEAAPEAXI@Z 000000018000c81c f i UnityBuildCore.cpp.obj
 0001:0000b81c       ??_G?$_Impl_no_alloc0@U?$_Callable_obj@V<lambda354>@?A0xe9eda812@@$0A@@tr1@std@@X@tr1@std@@UEAAPEAXI@Z 000000018000c81c f i UnityBuildCore.cpp.obj
 0001:0000b81c       ??_G?$_Impl_no_alloc0@U?$_Callable_obj@V<lambda222>@?A0xe9eda812@@$0A@@tr1@std@@X@tr1@std@@UEAAPEAXI@Z 000000018000c81c f i UnityBuildCore.cpp.obj
 0001:0000b81c       ??_E?$_Impl_no_alloc0@U?$_Callable_obj@V<lambda234>@?A0xe9eda812@@$0A@@tr1@std@@X@tr1@std@@UEAAPEAXI@Z 000000018000c81c f i UnityBuildCore.cpp.obj
 0001:0000b81c       ??_E?$_Impl_no_alloc0@U?$_Callable_obj@V<lambda244>@?A0xe9eda812@@$0A@@tr1@std@@X@tr1@std@@UEAAPEAXI@Z 000000018000c81c f i UnityBuildCore.cpp.obj
 0001:0000b81c       ??_G?$_Impl_no_alloc0@U?$_Callable_obj@V<lambda225>@?A0xe9eda812@@$0A@@tr1@std@@X@tr1@std@@UEAAPEAXI@Z 000000018000c81c f i UnityBuildCore.cpp.obj
 0001:0000b81c       ??_G?$_Impl_no_alloc0@U?$_Callable_obj@V<lambda276>@?A0xe9eda812@@$0A@@tr1@std@@X@tr1@std@@UEAAPEAXI@Z 000000018000c81c f i UnityBuildCore.cpp.obj
 0001:0000b81c       ??_E?$_Impl_no_alloc0@U?$_Callable_obj@V<lambda225>@?A0xe9eda812@@$0A@@tr1@std@@X@tr1@std@@UEAAPEAXI@Z 000000018000c81c f i UnityBuildCore.cpp.obj
 0001:0000b81c       ??_E?$_Impl_no_alloc0@U?$_Callable_obj@V<lambda69>@?A0xe9eda812@@$0A@@tr1@std@@X@tr1@std@@UEAAPEAXI@Z 000000018000c81c f i UnityBuildCore.cpp.obj
 0001:0000b81c       ??_E?$_Impl_no_alloc0@U?$_Callable_obj@V<lambda343>@?A0xe9eda812@@$0A@@tr1@std@@X@tr1@std@@UEAAPEAXI@Z 000000018000c81c f i UnityBuildCore.cpp.obj
 0001:0000b81c       ??_E?$_Impl_no_alloc0@U?$_Callable_obj@V<lambda301>@?A0xe9eda812@@$0A@@tr1@std@@X@tr1@std@@UEAAPEAXI@Z 000000018000c81c f i UnityBuildCore.cpp.obj
 0001:0000b81c       ??_E?$_Impl_no_alloc0@U?$_Callable_obj@V<lambda67>@?A0xe9eda812@@$0A@@tr1@std@@X@tr1@std@@UEAAPEAXI@Z 000000018000c81c f i UnityBuildCore.cpp.obj
 0001:0000b81c       ??_G?$_Impl_no_alloc0@U?$_Callable_obj@V<lambda234>@?A0xe9eda812@@$0A@@tr1@std@@X@tr1@std@@UEAAPEAXI@Z 000000018000c81c f i UnityBuildCore.cpp.obj
 0001:0000b81c       ??_E?$_Impl_no_alloc0@U?$_Callable_obj@V<lambda286>@?A0xe9eda812@@$0A@@tr1@std@@X@tr1@std@@UEAAPEAXI@Z 000000018000c81c f i UnityBuildCore.cpp.obj
 0001:0000b81c       ??_G?$_Impl_no_alloc0@U?$_Callable_obj@V<lambda213>@?A0xe9eda812@@$0A@@tr1@std@@X@tr1@std@@UEAAPEAXI@Z 000000018000c81c f i UnityBuildCore.cpp.obj
 0001:0000b81c       ??_G?$_Impl_no_alloc0@U?$_Callable_obj@V<lambda142>@?A0xe9eda812@@$0A@@tr1@std@@X@tr1@std@@UEAAPEAXI@Z 000000018000c81c f i UnityBuildCore.cpp.obj
 0001:0000b81c       ??_G?$_Impl_no_alloc0@U?$_Callable_obj@V<lambda323>@?A0xe9eda812@@$0A@@tr1@std@@X@tr1@std@@UEAAPEAXI@Z 000000018000c81c f i UnityBuildCore.cpp.obj
 0001:0000b81c       ??_E?$_Impl_no_alloc0@U?$_Callable_obj@V<lambda354>@?A0xe9eda812@@$0A@@tr1@std@@X@tr1@std@@UEAAPEAXI@Z 000000018000c81c f i UnityBuildCore.cpp.obj
 0001:0000b81c       ??_G?$_Impl_no_alloc0@U?$_Callable_obj@V<lambda296>@?A0xe9eda812@@$0A@@tr1@std@@X@tr1@std@@UEAAPEAXI@Z 000000018000c81c f i UnityBuildCore.cpp.obj
 0001:0000b81c       ??_E?$_Impl_no_alloc0@U?$_Callable_obj@V<lambda146>@?A0xe9eda812@@$0A@@tr1@std@@X@tr1@std@@UEAAPEAXI@Z 000000018000c81c f i UnityBuildCore.cpp.obj
 0001:0000b81c       ??_G?$_Impl_no_alloc0@U?$_Callable_obj@V<lambda280>@?A0xe9eda812@@$0A@@tr1@std@@X@tr1@std@@UEAAPEAXI@Z 000000018000c81c f i UnityBuildCore.cpp.obj
 0001:0000b81c       ??_G?$_Impl_no_alloc0@U?$_Callable_obj@V<lambda240>@?A0xe9eda812@@$0A@@tr1@std@@X@tr1@std@@UEAAPEAXI@Z 000000018000c81c f i UnityBuildCore.cpp.obj
 0001:0000b81c       ??_G?$_Impl_no_alloc0@U?$_Callable_obj@V<lambda79>@?A0xe9eda812@@$0A@@tr1@std@@X@tr1@std@@UEAAPEAXI@Z 000000018000c81c f i UnityBuildCore.cpp.obj
 0001:0000b81c       ??_E?$_Impl_no_alloc0@U?$_Callable_obj@V<lambda31>@?A0xe9eda812@@$0A@@tr1@std@@X@tr1@std@@UEAAPEAXI@Z 000000018000c81c f i UnityBuildCore.cpp.obj
 0001:0000b81c       ??_G?$_Impl_no_alloc0@U?$_Callable_obj@V<lambda302>@?A0xe9eda812@@$0A@@tr1@std@@X@tr1@std@@UEAAPEAXI@Z 000000018000c81c f i UnityBuildCore.cpp.obj
 0001:0000b81c       ??_G?$_Impl_no_alloc0@U?$_Callable_obj@V<lambda113>@?A0xe9eda812@@$0A@@tr1@std@@X@tr1@std@@UEAAPEAXI@Z 000000018000c81c f i UnityBuildCore.cpp.obj
 0001:0000b81c       ??_E?$_Impl_no_alloc0@U?$_Callable_obj@V<lambda248>@?A0xe9eda812@@$0A@@tr1@std@@X@tr1@std@@UEAAPEAXI@Z 000000018000c81c f i UnityBuildCore.cpp.obj
 0001:0000b81c       ??_E?$_Impl_no_alloc0@U?$_Callable_obj@V<lambda186>@?A0xe9eda812@@$0A@@tr1@std@@X@tr1@std@@UEAAPEAXI@Z 000000018000c81c f i UnityBuildCore.cpp.obj
 0001:0000b81c       ??_E?$_Impl_no_alloc0@U?$_Callable_obj@V<lambda201>@?A0xe9eda812@@$0A@@tr1@std@@X@tr1@std@@UEAAPEAXI@Z 000000018000c81c f i UnityBuildCore.cpp.obj
 0001:0000b81c       ??_E?$_Impl_no_alloc0@U?$_Callable_obj@V<lambda255>@?A0xe9eda812@@$0A@@tr1@std@@X@tr1@std@@UEAAPEAXI@Z 000000018000c81c f i UnityBuildCore.cpp.obj
 0001:0000b81c       ??_E?$_Impl_no_alloc0@U?$_Callable_obj@V<lambda158>@?A0xe9eda812@@$0A@@tr1@std@@X@tr1@std@@UEAAPEAXI@Z 000000018000c81c f i UnityBuildCore.cpp.obj
 0001:0000b81c       ??_E?$_Impl_no_alloc0@U?$_Callable_obj@V<lambda166>@?A0xe9eda812@@$0A@@tr1@std@@X@tr1@std@@UEAAPEAXI@Z 000000018000c81c f i UnityBuildCore.cpp.obj
 0001:0000b81c       ??_E?$_Impl_no_alloc0@U?$_Callable_obj@V<lambda52>@?A0xe9eda812@@$0A@@tr1@std@@X@tr1@std@@UEAAPEAXI@Z 000000018000c81c f i UnityBuildCore.cpp.obj
 0001:0000b81c       ??_G?$_Impl_no_alloc0@U?$_Callable_obj@V<lambda38>@?A0xe9eda812@@$0A@@tr1@std@@X@tr1@std@@UEAAPEAXI@Z 000000018000c81c f i UnityBuildCore.cpp.obj
 0001:0000b81c       ??_E?$_Impl_no_alloc0@U?$_Callable_obj@V<lambda71>@?A0xe9eda812@@$0A@@tr1@std@@X@tr1@std@@UEAAPEAXI@Z 000000018000c81c f i UnityBuildCore.cpp.obj
 0001:0000b81c       ??_E?$_Impl_no_alloc0@U?$_Callable_obj@V<lambda311>@?A0xe9eda812@@$0A@@tr1@std@@X@tr1@std@@UEAAPEAXI@Z 000000018000c81c f i UnityBuildCore.cpp.obj
 0001:0000b81c       ??_G?$_Impl_no_alloc0@U?$_Callable_obj@V<lambda301>@?A0xe9eda812@@$0A@@tr1@std@@X@tr1@std@@UEAAPEAXI@Z 000000018000c81c f i UnityBuildCore.cpp.obj
 0001:0000b81c       ??_E?$_Impl_no_alloc0@U?$_Callable_obj@V<lambda324>@?A0xe9eda812@@$0A@@tr1@std@@X@tr1@std@@UEAAPEAXI@Z 000000018000c81c f i UnityBuildCore.cpp.obj
 0001:0000b81c       ??_E?$_Impl_no_alloc0@U?$_Callable_obj@V<lambda22>@?A0xe9eda812@@$0A@@tr1@std@@X@tr1@std@@UEAAPEAXI@Z 000000018000c81c f i UnityBuildCore.cpp.obj
 0001:0000b81c       ??_G?$_Impl_no_alloc0@U?$_Callable_obj@V<lambda185>@?A0xe9eda812@@$0A@@tr1@std@@X@tr1@std@@UEAAPEAXI@Z 000000018000c81c f i UnityBuildCore.cpp.obj
 0001:0000b81c       ??_G?$_Impl_no_alloc0@U?$_Callable_obj@V<lambda324>@?A0xe9eda812@@$0A@@tr1@std@@X@tr1@std@@UEAAPEAXI@Z 000000018000c81c f i UnityBuildCore.cpp.obj
 0001:0000b81c       ??_G?$_Impl_no_alloc0@U?$_Callable_obj@V<lambda211>@?A0xe9eda812@@$0A@@tr1@std@@X@tr1@std@@UEAAPEAXI@Z 000000018000c81c f i UnityBuildCore.cpp.obj
 0001:0000b81c       ??_E?$_Impl_no_alloc0@U?$_Callable_obj@V<lambda147>@?A0xe9eda812@@$0A@@tr1@std@@X@tr1@std@@UEAAPEAXI@Z 000000018000c81c f i UnityBuildCore.cpp.obj
 0001:0000b81c       ??_E?$_Impl_no_alloc0@U?$_Callable_obj@V<lambda246>@?A0xe9eda812@@$0A@@tr1@std@@X@tr1@std@@UEAAPEAXI@Z 000000018000c81c f i UnityBuildCore.cpp.obj
 0001:0000b81c       ??_G?$_Impl_no_alloc0@U?$_Callable_obj@V<lambda285>@?A0xe9eda812@@$0A@@tr1@std@@X@tr1@std@@UEAAPEAXI@Z 000000018000c81c f i UnityBuildCore.cpp.obj
 0001:0000b81c       ??_G?$_Impl_no_alloc0@U?$_Callable_obj@V<lambda65>@?A0xe9eda812@@$0A@@tr1@std@@X@tr1@std@@UEAAPEAXI@Z 000000018000c81c f i UnityBuildCore.cpp.obj
 0001:0000b81c       ??_G?$_Impl_no_alloc0@U?$_Callable_obj@V<lambda263>@?A0xe9eda812@@$0A@@tr1@std@@X@tr1@std@@UEAAPEAXI@Z 000000018000c81c f i UnityBuildCore.cpp.obj
 0001:0000b81c       ??_G?$_Impl_no_alloc0@U?$_Callable_obj@V<lambda214>@?A0xe9eda812@@$0A@@tr1@std@@X@tr1@std@@UEAAPEAXI@Z 000000018000c81c f i UnityBuildCore.cpp.obj
 0001:0000b81c       ??_G?$_Impl_no_alloc0@U?$_Callable_obj@V<lambda19>@?A0xe9eda812@@$0A@@tr1@std@@X@tr1@std@@UEAAPEAXI@Z 000000018000c81c f i UnityBuildCore.cpp.obj
 0001:0000b81c       ??_G?$_Impl_no_alloc0@U?$_Callable_obj@V<lambda33>@?A0xe9eda812@@$0A@@tr1@std@@X@tr1@std@@UEAAPEAXI@Z 000000018000c81c f i UnityBuildCore.cpp.obj
 0001:0000b81c       ??_G?$_Impl_no_alloc0@U?$_Callable_obj@V<lambda36>@?A0xe9eda812@@$0A@@tr1@std@@X@tr1@std@@UEAAPEAXI@Z 000000018000c81c f i UnityBuildCore.cpp.obj
 0001:0000b81c       ??_E?$_Impl_no_alloc0@U?$_Callable_obj@V<lambda196>@?A0xe9eda812@@$0A@@tr1@std@@X@tr1@std@@UEAAPEAXI@Z 000000018000c81c f i UnityBuildCore.cpp.obj
 0001:0000b81c       ??_G?$_Impl_no_alloc0@U?$_Callable_obj@V<lambda219>@?A0xe9eda812@@$0A@@tr1@std@@X@tr1@std@@UEAAPEAXI@Z 000000018000c81c f i UnityBuildCore.cpp.obj
 0001:0000b81c       ??_E?$_Impl_no_alloc0@U?$_Callable_obj@V<lambda236>@?A0xe9eda812@@$0A@@tr1@std@@X@tr1@std@@UEAAPEAXI@Z 000000018000c81c f i UnityBuildCore.cpp.obj
 0001:0000b81c       ??_G?$_Impl_no_alloc0@U?$_Callable_obj@V<lambda262>@?A0xe9eda812@@$0A@@tr1@std@@X@tr1@std@@UEAAPEAXI@Z 000000018000c81c f i UnityBuildCore.cpp.obj
 0001:0000b81c       ??_E?$_Impl_no_alloc0@U?$_Callable_obj@V<lambda320>@?A0xe9eda812@@$0A@@tr1@std@@X@tr1@std@@UEAAPEAXI@Z 000000018000c81c f i UnityBuildCore.cpp.obj
 0001:0000b81c       ??_E?$_Impl_no_alloc0@U?$_Callable_obj@V<lambda296>@?A0xe9eda812@@$0A@@tr1@std@@X@tr1@std@@UEAAPEAXI@Z 000000018000c81c f i UnityBuildCore.cpp.obj
 0001:0000b81c       ??_E?$_Impl_no_alloc0@U?$_Callable_obj@V<lambda119>@?A0xe9eda812@@$0A@@tr1@std@@X@tr1@std@@UEAAPEAXI@Z 000000018000c81c f i UnityBuildCore.cpp.obj
 0001:0000b81c       ??_G?$_Impl_no_alloc0@U?$_Callable_obj@V<lambda316>@?A0xe9eda812@@$0A@@tr1@std@@X@tr1@std@@UEAAPEAXI@Z 000000018000c81c f i UnityBuildCore.cpp.obj
 0001:0000b81c       ??_G?$_Impl_no_alloc0@U?$_Callable_obj@V<lambda186>@?A0xe9eda812@@$0A@@tr1@std@@X@tr1@std@@UEAAPEAXI@Z 000000018000c81c f i UnityBuildCore.cpp.obj
 0001:0000b81c       ??_E?$_Impl_no_alloc0@U?$_Callable_obj@V<lambda273>@?A0xe9eda812@@$0A@@tr1@std@@X@tr1@std@@UEAAPEAXI@Z 000000018000c81c f i UnityBuildCore.cpp.obj
 0001:0000b81c       ??_E?$_Impl_no_alloc0@U?$_Callable_obj@V<lambda308>@?A0xe9eda812@@$0A@@tr1@std@@X@tr1@std@@UEAAPEAXI@Z 000000018000c81c f i UnityBuildCore.cpp.obj
 0001:0000b81c       ??_G?$_Impl_no_alloc0@U?$_Callable_obj@V<lambda243>@?A0xe9eda812@@$0A@@tr1@std@@X@tr1@std@@UEAAPEAXI@Z 000000018000c81c f i UnityBuildCore.cpp.obj
 0001:0000b81c       ??_E?$_Impl_no_alloc0@U?$_Callable_obj@V<lambda185>@?A0xe9eda812@@$0A@@tr1@std@@X@tr1@std@@UEAAPEAXI@Z 000000018000c81c f i UnityBuildCore.cpp.obj
 0001:0000b81c       ??_G?$_Impl_no_alloc0@U?$_Callable_obj@V<lambda133>@?A0xe9eda812@@$0A@@tr1@std@@X@tr1@std@@UEAAPEAXI@Z 000000018000c81c f i UnityBuildCore.cpp.obj
 0001:0000b81c       ??_G?$_Impl_no_alloc0@U?$_Callable_obj@V<lambda167>@?A0xe9eda812@@$0A@@tr1@std@@X@tr1@std@@UEAAPEAXI@Z 000000018000c81c f i UnityBuildCore.cpp.obj
 0001:0000b81c       ??_E?$_Impl_no_alloc0@U?$_Callable_obj@V<lambda35>@?A0xe9eda812@@$0A@@tr1@std@@X@tr1@std@@UEAAPEAXI@Z 000000018000c81c f i UnityBuildCore.cpp.obj
 0001:0000b81c       ??_G?$_Impl_no_alloc0@U?$_Callable_obj@V<lambda183>@?A0xe9eda812@@$0A@@tr1@std@@X@tr1@std@@UEAAPEAXI@Z 000000018000c81c f i UnityBuildCore.cpp.obj
 0001:0000b81c       ??_E?$_Impl_no_alloc0@U?$_Callable_obj@V<lambda241>@?A0xe9eda812@@$0A@@tr1@std@@X@tr1@std@@UEAAPEAXI@Z 000000018000c81c f i UnityBuildCore.cpp.obj
 0001:0000b81c       ??_E?$_Impl_no_alloc0@U?$_Callable_obj@V<lambda48>@?A0xe9eda812@@$0A@@tr1@std@@X@tr1@std@@UEAAPEAXI@Z 000000018000c81c f i UnityBuildCore.cpp.obj
 0001:0000b81c       ??_E?$_Impl_no_alloc0@U?$_Callable_obj@V<lambda30>@?A0xe9eda812@@$0A@@tr1@std@@X@tr1@std@@UEAAPEAXI@Z 000000018000c81c f i UnityBuildCore.cpp.obj
 0001:0000b81c       ??_G?$_Impl_no_alloc0@U?$_Callable_obj@V<lambda78>@?A0xe9eda812@@$0A@@tr1@std@@X@tr1@std@@UEAAPEAXI@Z 000000018000c81c f i UnityBuildCore.cpp.obj
 0001:0000b81c       ??_E?$_Impl_no_alloc0@U?$_Callable_obj@V<lambda175>@?A0xe9eda812@@$0A@@tr1@std@@X@tr1@std@@UEAAPEAXI@Z 000000018000c81c f i UnityBuildCore.cpp.obj
 0001:0000b81c       ??_E?$_Impl_no_alloc0@U?$_Callable_obj@V<lambda162>@?A0xe9eda812@@$0A@@tr1@std@@X@tr1@std@@UEAAPEAXI@Z 000000018000c81c f i UnityBuildCore.cpp.obj
 0001:0000b81c       ??_E?$_Impl_no_alloc0@U?$_Callable_obj@V<lambda164>@?A0xe9eda812@@$0A@@tr1@std@@X@tr1@std@@UEAAPEAXI@Z 000000018000c81c f i UnityBuildCore.cpp.obj
 0001:0000b81c       ??_E?$_Impl_no_alloc0@U?$_Callable_obj@V<lambda19>@?A0xe9eda812@@$0A@@tr1@std@@X@tr1@std@@UEAAPEAXI@Z 000000018000c81c f i UnityBuildCore.cpp.obj
 0001:0000b81c       ??_G?$_Impl_no_alloc0@U?$_Callable_obj@V<lambda66>@?A0xe9eda812@@$0A@@tr1@std@@X@tr1@std@@UEAAPEAXI@Z 000000018000c81c f i UnityBuildCore.cpp.obj
 0001:0000b81c       ??_G?$_Impl_no_alloc0@U?$_Callable_obj@V<lambda255>@?A0xe9eda812@@$0A@@tr1@std@@X@tr1@std@@UEAAPEAXI@Z 000000018000c81c f i UnityBuildCore.cpp.obj
 0001:0000b81c       ??_E?$_Impl_no_alloc0@U?$_Callable_obj@V<lambda335>@?A0xe9eda812@@$0A@@tr1@std@@X@tr1@std@@UEAAPEAXI@Z 000000018000c81c f i UnityBuildCore.cpp.obj
 0001:0000b81c       ??_E?$_Impl_no_alloc0@U?$_Callable_obj@V<lambda204>@?A0xe9eda812@@$0A@@tr1@std@@X@tr1@std@@UEAAPEAXI@Z 000000018000c81c f i UnityBuildCore.cpp.obj
 0001:0000b81c       ??_E?$_Impl_no_alloc0@U?$_Callable_obj@V<lambda20>@?A0xe9eda812@@$0A@@tr1@std@@X@tr1@std@@UEAAPEAXI@Z 000000018000c81c f i UnityBuildCore.cpp.obj
 0001:0000b81c       ??_E?$_Impl_no_alloc0@U?$_Callable_obj@V<lambda220>@?A0xe9eda812@@$0A@@tr1@std@@X@tr1@std@@UEAAPEAXI@Z 000000018000c81c f i UnityBuildCore.cpp.obj
 0001:0000b81c       ??_E?$_Impl_no_alloc0@U?$_Callable_obj@V<lambda327>@?A0xe9eda812@@$0A@@tr1@std@@X@tr1@std@@UEAAPEAXI@Z 000000018000c81c f i UnityBuildCore.cpp.obj
 0001:0000b81c       ??_G?$_Impl_no_alloc0@U?$_Callable_obj@V<lambda306>@?A0xe9eda812@@$0A@@tr1@std@@X@tr1@std@@UEAAPEAXI@Z 000000018000c81c f i UnityBuildCore.cpp.obj
 0001:0000b81c       ??_G?$_Impl_no_alloc0@U?$_Callable_obj@V<lambda230>@?A0xe9eda812@@$0A@@tr1@std@@X@tr1@std@@UEAAPEAXI@Z 000000018000c81c f i UnityBuildCore.cpp.obj
 0001:0000b81c       ??_E?$_Impl_no_alloc0@U?$_Callable_obj@V<lambda240>@?A0xe9eda812@@$0A@@tr1@std@@X@tr1@std@@UEAAPEAXI@Z 000000018000c81c f i UnityBuildCore.cpp.obj
 0001:0000b81c       ??_G?$_Impl_no_alloc0@U?$_Callable_obj@V<lambda119>@?A0xe9eda812@@$0A@@tr1@std@@X@tr1@std@@UEAAPEAXI@Z 000000018000c81c f i UnityBuildCore.cpp.obj
 0001:0000b81c       ??_G?$_Impl_no_alloc0@U?$_Callable_obj@V<lambda244>@?A0xe9eda812@@$0A@@tr1@std@@X@tr1@std@@UEAAPEAXI@Z 000000018000c81c f i UnityBuildCore.cpp.obj
 0001:0000b81c       ??_G?$_Impl_no_alloc0@U?$_Callable_obj@V<lambda248>@?A0xe9eda812@@$0A@@tr1@std@@X@tr1@std@@UEAAPEAXI@Z 000000018000c81c f i UnityBuildCore.cpp.obj
 0001:0000b81c       ??_E?$_Impl_no_alloc0@U?$_Callable_obj@V<lambda66>@?A0xe9eda812@@$0A@@tr1@std@@X@tr1@std@@UEAAPEAXI@Z 000000018000c81c f i UnityBuildCore.cpp.obj
 0001:0000b81c       ??_E?$_Impl_no_alloc0@U?$_Callable_obj@V<lambda181>@?A0xe9eda812@@$0A@@tr1@std@@X@tr1@std@@UEAAPEAXI@Z 000000018000c81c f i UnityBuildCore.cpp.obj
 0001:0000b81c       ??_E?$_Impl_no_alloc0@U?$_Callable_obj@V<lambda206>@?A0xe9eda812@@$0A@@tr1@std@@X@tr1@std@@UEAAPEAXI@Z 000000018000c81c f i UnityBuildCore.cpp.obj
 0001:0000b81c       ??_G?$_Impl_no_alloc0@U?$_Callable_obj@V<lambda322>@?A0xe9eda812@@$0A@@tr1@std@@X@tr1@std@@UEAAPEAXI@Z 000000018000c81c f i UnityBuildCore.cpp.obj
 0001:0000b81c       ??_E?$_Impl_no_alloc0@U?$_Callable_obj@V<lambda285>@?A0xe9eda812@@$0A@@tr1@std@@X@tr1@std@@UEAAPEAXI@Z 000000018000c81c f i UnityBuildCore.cpp.obj
 0001:0000b81c       ??_E?$_Impl_no_alloc0@U?$_Callable_obj@V<lambda214>@?A0xe9eda812@@$0A@@tr1@std@@X@tr1@std@@UEAAPEAXI@Z 000000018000c81c f i UnityBuildCore.cpp.obj
 0001:0000b81c       ??_E?$_Impl_no_alloc0@U?$_Callable_obj@V<lambda205>@?A0xe9eda812@@$0A@@tr1@std@@X@tr1@std@@UEAAPEAXI@Z 000000018000c81c f i UnityBuildCore.cpp.obj
 0001:0000b81c       ??_E?$_Impl_no_alloc0@U?$_Callable_obj@V<lambda17>@?A0xe9eda812@@$0A@@tr1@std@@X@tr1@std@@UEAAPEAXI@Z 000000018000c81c f i UnityBuildCore.cpp.obj
 0001:0000b81c       ??_E?$_Impl_no_alloc0@U?$_Callable_obj@V<lambda259>@?A0xe9eda812@@$0A@@tr1@std@@X@tr1@std@@UEAAPEAXI@Z 000000018000c81c f i UnityBuildCore.cpp.obj
 0001:0000b81c       ??_G?$_Impl_no_alloc0@U?$_Callable_obj@V<lambda187>@?A0xe9eda812@@$0A@@tr1@std@@X@tr1@std@@UEAAPEAXI@Z 000000018000c81c f i UnityBuildCore.cpp.obj
 0001:0000b81c       ??_E?$_Impl_no_alloc0@U?$_Callable_obj@V<lambda107>@?A0xe9eda812@@$0A@@tr1@std@@X@tr1@std@@UEAAPEAXI@Z 000000018000c81c f i UnityBuildCore.cpp.obj
 0001:0000b81c       ??_E?$_Impl_no_alloc0@U?$_Callable_obj@V<lambda111>@?A0xe9eda812@@$0A@@tr1@std@@X@tr1@std@@UEAAPEAXI@Z 000000018000c81c f i UnityBuildCore.cpp.obj
 0001:0000b81c       ??_E?$_Impl_no_alloc0@U?$_Callable_obj@V<lambda193>@?A0xe9eda812@@$0A@@tr1@std@@X@tr1@std@@UEAAPEAXI@Z 000000018000c81c f i UnityBuildCore.cpp.obj
 0001:0000b844       ?_Copy@?$_Impl_no_alloc0@U?$_Callable_obj@V<lambda135>@?A0xe9eda812@@$0A@@tr1@std@@X@tr1@std@@UEAAPEAV?$_Impl_base0@X@23@PEAX@Z 000000018000c844 f i UnityBuildCore.cpp.obj
 0001:0000b8b0       ?_Target_type@?$_Impl_no_alloc0@U?$_Callable_obj@V<lambda137>@?A0xe9eda812@@$0A@@tr1@std@@X@tr1@std@@UEBAAEBVtype_info@@XZ 000000018000c8b0 f i UnityBuildCore.cpp.obj
 0001:0000b8b8       ?_Copy@?$_Impl_no_alloc0@U?$_Callable_obj@V<lambda137>@?A0xe9eda812@@$0A@@tr1@std@@X@tr1@std@@UEAAPEAV?$_Impl_base0@X@23@PEAX@Z 000000018000c8b8 f i UnityBuildCore.cpp.obj
 0001:0000b924       ?_Target_type@?$_Impl_no_alloc0@U?$_Callable_obj@V<lambda138>@?A0xe9eda812@@$0A@@tr1@std@@X@tr1@std@@UEBAAEBVtype_info@@XZ 000000018000c924 f i UnityBuildCore.cpp.obj
 0001:0000b92c       ?_Copy@?$_Impl_no_alloc0@U?$_Callable_obj@V<lambda138>@?A0xe9eda812@@$0A@@tr1@std@@X@tr1@std@@UEAAPEAV?$_Impl_base0@X@23@PEAX@Z 000000018000c92c f i UnityBuildCore.cpp.obj
 0001:0000b998       ?_Target_type@?$_Impl_no_alloc0@U?$_Callable_obj@V<lambda141>@?A0xe9eda812@@$0A@@tr1@std@@X@tr1@std@@UEBAAEBVtype_info@@XZ 000000018000c998 f i UnityBuildCore.cpp.obj
 0001:0000b9a0       ?_Copy@?$_Impl_no_alloc0@U?$_Callable_obj@V<lambda141>@?A0xe9eda812@@$0A@@tr1@std@@X@tr1@std@@UEAAPEAV?$_Impl_base0@X@23@PEAX@Z 000000018000c9a0 f i UnityBuildCore.cpp.obj
 0001:0000ba0c       ?_Target_type@?$_Impl_no_alloc0@U?$_Callable_obj@V<lambda142>@?A0xe9eda812@@$0A@@tr1@std@@X@tr1@std@@UEBAAEBVtype_info@@XZ 000000018000ca0c f i UnityBuildCore.cpp.obj
 0001:0000ba14       ?_Copy@?$_Impl_no_alloc0@U?$_Callable_obj@V<lambda142>@?A0xe9eda812@@$0A@@tr1@std@@X@tr1@std@@UEAAPEAV?$_Impl_base0@X@23@PEAX@Z 000000018000ca14 f i UnityBuildCore.cpp.obj
 0001:0000ba80       ?_Target_type@?$_Impl_no_alloc0@U?$_Callable_obj@V<lambda143>@?A0xe9eda812@@$0A@@tr1@std@@X@tr1@std@@UEBAAEBVtype_info@@XZ 000000018000ca80 f i UnityBuildCore.cpp.obj
 0001:0000ba88       ?_Copy@?$_Impl_no_alloc0@U?$_Callable_obj@V<lambda143>@?A0xe9eda812@@$0A@@tr1@std@@X@tr1@std@@UEAAPEAV?$_Impl_base0@X@23@PEAX@Z 000000018000ca88 f i UnityBuildCore.cpp.obj
 0001:0000baf4       ?_Target_type@?$_Impl_no_alloc0@U?$_Callable_obj@V<lambda145>@?A0xe9eda812@@$0A@@tr1@std@@X@tr1@std@@UEBAAEBVtype_info@@XZ 000000018000caf4 f i UnityBuildCore.cpp.obj
 0001:0000bafc       ?_Copy@?$_Impl_no_alloc0@U?$_Callable_obj@V<lambda145>@?A0xe9eda812@@$0A@@tr1@std@@X@tr1@std@@UEAAPEAV?$_Impl_base0@X@23@PEAX@Z 000000018000cafc f i UnityBuildCore.cpp.obj
 0001:0000bb68       ?_Target_type@?$_Impl_no_alloc0@U?$_Callable_obj@V<lambda146>@?A0xe9eda812@@$0A@@tr1@std@@X@tr1@std@@UEBAAEBVtype_info@@XZ 000000018000cb68 f i UnityBuildCore.cpp.obj
 0001:0000bb70       ?_Copy@?$_Impl_no_alloc0@U?$_Callable_obj@V<lambda146>@?A0xe9eda812@@$0A@@tr1@std@@X@tr1@std@@UEAAPEAV?$_Impl_base0@X@23@PEAX@Z 000000018000cb70 f i UnityBuildCore.cpp.obj
 0001:0000bbdc       ?_Target_type@?$_Impl_no_alloc0@U?$_Callable_obj@V<lambda147>@?A0xe9eda812@@$0A@@tr1@std@@X@tr1@std@@UEBAAEBVtype_info@@XZ 000000018000cbdc f i UnityBuildCore.cpp.obj
 0001:0000bbe4       ?_Copy@?$_Impl_no_alloc0@U?$_Callable_obj@V<lambda147>@?A0xe9eda812@@$0A@@tr1@std@@X@tr1@std@@UEAAPEAV?$_Impl_base0@X@23@PEAX@Z 000000018000cbe4 f i UnityBuildCore.cpp.obj
 0001:0000bc50       ?_Target_type@?$_Impl_no_alloc0@U?$_Callable_obj@V<lambda148>@?A0xe9eda812@@$0A@@tr1@std@@X@tr1@std@@UEBAAEBVtype_info@@XZ 000000018000cc50 f i UnityBuildCore.cpp.obj
 0001:0000bc58       ?_Copy@?$_Impl_no_alloc0@U?$_Callable_obj@V<lambda148>@?A0xe9eda812@@$0A@@tr1@std@@X@tr1@std@@UEAAPEAV?$_Impl_base0@X@23@PEAX@Z 000000018000cc58 f i UnityBuildCore.cpp.obj
 0001:0000bcc4       ?_Target_type@?$_Impl_no_alloc0@U?$_Callable_obj@V<lambda155>@?A0xe9eda812@@$0A@@tr1@std@@X@tr1@std@@UEBAAEBVtype_info@@XZ 000000018000ccc4 f i UnityBuildCore.cpp.obj
 0001:0000bccc       ?_Copy@?$_Impl_no_alloc0@U?$_Callable_obj@V<lambda155>@?A0xe9eda812@@$0A@@tr1@std@@X@tr1@std@@UEAAPEAV?$_Impl_base0@X@23@PEAX@Z 000000018000cccc f i UnityBuildCore.cpp.obj
 0001:0000bd38       ?_Target_type@?$_Impl_no_alloc0@U?$_Callable_obj@V<lambda158>@?A0xe9eda812@@$0A@@tr1@std@@X@tr1@std@@UEBAAEBVtype_info@@XZ 000000018000cd38 f i UnityBuildCore.cpp.obj
 0001:0000bd40       ?_Copy@?$_Impl_no_alloc0@U?$_Callable_obj@V<lambda158>@?A0xe9eda812@@$0A@@tr1@std@@X@tr1@std@@UEAAPEAV?$_Impl_base0@X@23@PEAX@Z 000000018000cd40 f i UnityBuildCore.cpp.obj
 0001:0000bdac       ?_Target_type@?$_Impl_no_alloc0@U?$_Callable_obj@V<lambda162>@?A0xe9eda812@@$0A@@tr1@std@@X@tr1@std@@UEBAAEBVtype_info@@XZ 000000018000cdac f i UnityBuildCore.cpp.obj
 0001:0000bdb4       ?_Copy@?$_Impl_no_alloc0@U?$_Callable_obj@V<lambda162>@?A0xe9eda812@@$0A@@tr1@std@@X@tr1@std@@UEAAPEAV?$_Impl_base0@X@23@PEAX@Z 000000018000cdb4 f i UnityBuildCore.cpp.obj
 0001:0000be20       ?_Target_type@?$_Impl_no_alloc0@U?$_Callable_obj@V<lambda163>@?A0xe9eda812@@$0A@@tr1@std@@X@tr1@std@@UEBAAEBVtype_info@@XZ 000000018000ce20 f i UnityBuildCore.cpp.obj
 0001:0000be28       ?_Copy@?$_Impl_no_alloc0@U?$_Callable_obj@V<lambda163>@?A0xe9eda812@@$0A@@tr1@std@@X@tr1@std@@UEAAPEAV?$_Impl_base0@X@23@PEAX@Z 000000018000ce28 f i UnityBuildCore.cpp.obj
 0001:0000be94       ?_Target_type@?$_Impl_no_alloc0@U?$_Callable_obj@V<lambda164>@?A0xe9eda812@@$0A@@tr1@std@@X@tr1@std@@UEBAAEBVtype_info@@XZ 000000018000ce94 f i UnityBuildCore.cpp.obj
 0001:0000be9c       ?_Copy@?$_Impl_no_alloc0@U?$_Callable_obj@V<lambda164>@?A0xe9eda812@@$0A@@tr1@std@@X@tr1@std@@UEAAPEAV?$_Impl_base0@X@23@PEAX@Z 000000018000ce9c f i UnityBuildCore.cpp.obj
 0001:0000bf08       ?_Target_type@?$_Impl_no_alloc0@U?$_Callable_obj@V<lambda165>@?A0xe9eda812@@$0A@@tr1@std@@X@tr1@std@@UEBAAEBVtype_info@@XZ 000000018000cf08 f i UnityBuildCore.cpp.obj
 0001:0000bf10       ?_Copy@?$_Impl_no_alloc0@U?$_Callable_obj@V<lambda165>@?A0xe9eda812@@$0A@@tr1@std@@X@tr1@std@@UEAAPEAV?$_Impl_base0@X@23@PEAX@Z 000000018000cf10 f i UnityBuildCore.cpp.obj
 0001:0000bf7c       ?_Target_type@?$_Impl_no_alloc0@U?$_Callable_obj@V<lambda166>@?A0xe9eda812@@$0A@@tr1@std@@X@tr1@std@@UEBAAEBVtype_info@@XZ 000000018000cf7c f i UnityBuildCore.cpp.obj
 0001:0000bf84       ?_Copy@?$_Impl_no_alloc0@U?$_Callable_obj@V<lambda166>@?A0xe9eda812@@$0A@@tr1@std@@X@tr1@std@@UEAAPEAV?$_Impl_base0@X@23@PEAX@Z 000000018000cf84 f i UnityBuildCore.cpp.obj
 0001:0000bff0       ?_Target_type@?$_Impl_no_alloc0@U?$_Callable_obj@V<lambda167>@?A0xe9eda812@@$0A@@tr1@std@@X@tr1@std@@UEBAAEBVtype_info@@XZ 000000018000cff0 f i UnityBuildCore.cpp.obj
 0001:0000bff8       ?_Copy@?$_Impl_no_alloc0@U?$_Callable_obj@V<lambda167>@?A0xe9eda812@@$0A@@tr1@std@@X@tr1@std@@UEAAPEAV?$_Impl_base0@X@23@PEAX@Z 000000018000cff8 f i UnityBuildCore.cpp.obj
 0001:0000c064       ?_Target_type@?$_Impl_no_alloc0@U?$_Callable_obj@V<lambda172>@?A0xe9eda812@@$0A@@tr1@std@@X@tr1@std@@UEBAAEBVtype_info@@XZ 000000018000d064 f i UnityBuildCore.cpp.obj
 0001:0000c06c       ?_Copy@?$_Impl_no_alloc0@U?$_Callable_obj@V<lambda172>@?A0xe9eda812@@$0A@@tr1@std@@X@tr1@std@@UEAAPEAV?$_Impl_base0@X@23@PEAX@Z 000000018000d06c f i UnityBuildCore.cpp.obj
 0001:0000c0d8       ?_Target_type@?$_Impl_no_alloc0@U?$_Callable_obj@V<lambda175>@?A0xe9eda812@@$0A@@tr1@std@@X@tr1@std@@UEBAAEBVtype_info@@XZ 000000018000d0d8 f i UnityBuildCore.cpp.obj
 0001:0000c0e0       ?_Copy@?$_Impl_no_alloc0@U?$_Callable_obj@V<lambda175>@?A0xe9eda812@@$0A@@tr1@std@@X@tr1@std@@UEAAPEAV?$_Impl_base0@X@23@PEAX@Z 000000018000d0e0 f i UnityBuildCore.cpp.obj
 0001:0000c14c       ?_Target_type@?$_Impl_no_alloc0@U?$_Callable_obj@V<lambda177>@?A0xe9eda812@@$0A@@tr1@std@@X@tr1@std@@UEBAAEBVtype_info@@XZ 000000018000d14c f i UnityBuildCore.cpp.obj
 0001:0000c154       ?_Copy@?$_Impl_no_alloc0@U?$_Callable_obj@V<lambda177>@?A0xe9eda812@@$0A@@tr1@std@@X@tr1@std@@UEAAPEAV?$_Impl_base0@X@23@PEAX@Z 000000018000d154 f i UnityBuildCore.cpp.obj
 0001:0000c1c0       ?_Target_type@?$_Impl_no_alloc0@U?$_Callable_obj@V<lambda178>@?A0xe9eda812@@$0A@@tr1@std@@X@tr1@std@@UEBAAEBVtype_info@@XZ 000000018000d1c0 f i UnityBuildCore.cpp.obj
 0001:0000c1c8       ?_Copy@?$_Impl_no_alloc0@U?$_Callable_obj@V<lambda178>@?A0xe9eda812@@$0A@@tr1@std@@X@tr1@std@@UEAAPEAV?$_Impl_base0@X@23@PEAX@Z 000000018000d1c8 f i UnityBuildCore.cpp.obj
 0001:0000c234       ?_Target_type@?$_Impl_no_alloc0@U?$_Callable_obj@V<lambda179>@?A0xe9eda812@@$0A@@tr1@std@@X@tr1@std@@UEBAAEBVtype_info@@XZ 000000018000d234 f i UnityBuildCore.cpp.obj
 0001:0000c23c       ?_Copy@?$_Impl_no_alloc0@U?$_Callable_obj@V<lambda179>@?A0xe9eda812@@$0A@@tr1@std@@X@tr1@std@@UEAAPEAV?$_Impl_base0@X@23@PEAX@Z 000000018000d23c f i UnityBuildCore.cpp.obj
 0001:0000c2a8       ?_Target_type@?$_Impl_no_alloc0@U?$_Callable_obj@V<lambda181>@?A0xe9eda812@@$0A@@tr1@std@@X@tr1@std@@UEBAAEBVtype_info@@XZ 000000018000d2a8 f i UnityBuildCore.cpp.obj
 0001:0000c2b0       ?_Copy@?$_Impl_no_alloc0@U?$_Callable_obj@V<lambda181>@?A0xe9eda812@@$0A@@tr1@std@@X@tr1@std@@UEAAPEAV?$_Impl_base0@X@23@PEAX@Z 000000018000d2b0 f i UnityBuildCore.cpp.obj
 0001:0000c31c       ?_Target_type@?$_Impl_no_alloc0@U?$_Callable_obj@V<lambda183>@?A0xe9eda812@@$0A@@tr1@std@@X@tr1@std@@UEBAAEBVtype_info@@XZ 000000018000d31c f i UnityBuildCore.cpp.obj
 0001:0000c324       ?_Copy@?$_Impl_no_alloc0@U?$_Callable_obj@V<lambda183>@?A0xe9eda812@@$0A@@tr1@std@@X@tr1@std@@UEAAPEAV?$_Impl_base0@X@23@PEAX@Z 000000018000d324 f i UnityBuildCore.cpp.obj
 0001:0000c390       ?_Target_type@?$_Impl_no_alloc0@U?$_Callable_obj@V<lambda185>@?A0xe9eda812@@$0A@@tr1@std@@X@tr1@std@@UEBAAEBVtype_info@@XZ 000000018000d390 f i UnityBuildCore.cpp.obj
 0001:0000c398       ?_Copy@?$_Impl_no_alloc0@U?$_Callable_obj@V<lambda185>@?A0xe9eda812@@$0A@@tr1@std@@X@tr1@std@@UEAAPEAV?$_Impl_base0@X@23@PEAX@Z 000000018000d398 f i UnityBuildCore.cpp.obj
 0001:0000c414       ?_Target_type@?$_Impl_no_alloc0@U?$_Callable_obj@V<lambda186>@?A0xe9eda812@@$0A@@tr1@std@@X@tr1@std@@UEBAAEBVtype_info@@XZ 000000018000d414 f i UnityBuildCore.cpp.obj
 0001:0000c41c       ?_Copy@?$_Impl_no_alloc0@U?$_Callable_obj@V<lambda186>@?A0xe9eda812@@$0A@@tr1@std@@X@tr1@std@@UEAAPEAV?$_Impl_base0@X@23@PEAX@Z 000000018000d41c f i UnityBuildCore.cpp.obj
 0001:0000c488       ?_Target_type@?$_Impl_no_alloc0@U?$_Callable_obj@V<lambda187>@?A0xe9eda812@@$0A@@tr1@std@@X@tr1@std@@UEBAAEBVtype_info@@XZ 000000018000d488 f i UnityBuildCore.cpp.obj
 0001:0000c490       ?_Copy@?$_Impl_no_alloc0@U?$_Callable_obj@V<lambda187>@?A0xe9eda812@@$0A@@tr1@std@@X@tr1@std@@UEAAPEAV?$_Impl_base0@X@23@PEAX@Z 000000018000d490 f i UnityBuildCore.cpp.obj
 0001:0000c4fc       ?_Target_type@?$_Impl_no_alloc0@U?$_Callable_obj@V<lambda188>@?A0xe9eda812@@$0A@@tr1@std@@X@tr1@std@@UEBAAEBVtype_info@@XZ 000000018000d4fc f i UnityBuildCore.cpp.obj
 0001:0000c504       ?_Copy@?$_Impl_no_alloc0@U?$_Callable_obj@V<lambda188>@?A0xe9eda812@@$0A@@tr1@std@@X@tr1@std@@UEAAPEAV?$_Impl_base0@X@23@PEAX@Z 000000018000d504 f i UnityBuildCore.cpp.obj
 0001:0000c580       ?_Target_type@?$_Impl_no_alloc0@U?$_Callable_obj@V<lambda189>@?A0xe9eda812@@$0A@@tr1@std@@X@tr1@std@@UEBAAEBVtype_info@@XZ 000000018000d580 f i UnityBuildCore.cpp.obj
 0001:0000c588       ?_Copy@?$_Impl_no_alloc0@U?$_Callable_obj@V<lambda189>@?A0xe9eda812@@$0A@@tr1@std@@X@tr1@std@@UEAAPEAV?$_Impl_base0@X@23@PEAX@Z 000000018000d588 f i UnityBuildCore.cpp.obj
 0001:0000c604       ?_Target_type@?$_Impl_no_alloc0@U?$_Callable_obj@V<lambda191>@?A0xe9eda812@@$0A@@tr1@std@@X@tr1@std@@UEBAAEBVtype_info@@XZ 000000018000d604 f i UnityBuildCore.cpp.obj
 0001:0000c60c       ?_Copy@?$_Impl_no_alloc0@U?$_Callable_obj@V<lambda191>@?A0xe9eda812@@$0A@@tr1@std@@X@tr1@std@@UEAAPEAV?$_Impl_base0@X@23@PEAX@Z 000000018000d60c f i UnityBuildCore.cpp.obj
 0001:0000c690       ?_Target_type@?$_Impl_no_alloc0@U?$_Callable_obj@V<lambda193>@?A0xe9eda812@@$0A@@tr1@std@@X@tr1@std@@UEBAAEBVtype_info@@XZ 000000018000d690 f i UnityBuildCore.cpp.obj
 0001:0000c698       ?_Copy@?$_Impl_no_alloc0@U?$_Callable_obj@V<lambda193>@?A0xe9eda812@@$0A@@tr1@std@@X@tr1@std@@UEAAPEAV?$_Impl_base0@X@23@PEAX@Z 000000018000d698 f i UnityBuildCore.cpp.obj
 0001:0000c704       ?_Target_type@?$_Impl_no_alloc0@U?$_Callable_obj@V<lambda194>@?A0xe9eda812@@$0A@@tr1@std@@X@tr1@std@@UEBAAEBVtype_info@@XZ 000000018000d704 f i UnityBuildCore.cpp.obj
 0001:0000c70c       ?_Copy@?$_Impl_no_alloc0@U?$_Callable_obj@V<lambda194>@?A0xe9eda812@@$0A@@tr1@std@@X@tr1@std@@UEAAPEAV?$_Impl_base0@X@23@PEAX@Z 000000018000d70c f i UnityBuildCore.cpp.obj
 0001:0000c778       ?_Target_type@?$_Impl_no_alloc0@U?$_Callable_obj@V<lambda195>@?A0xe9eda812@@$0A@@tr1@std@@X@tr1@std@@UEBAAEBVtype_info@@XZ 000000018000d778 f i UnityBuildCore.cpp.obj
 0001:0000c780       ?_Copy@?$_Impl_no_alloc0@U?$_Callable_obj@V<lambda195>@?A0xe9eda812@@$0A@@tr1@std@@X@tr1@std@@UEAAPEAV?$_Impl_base0@X@23@PEAX@Z 000000018000d780 f i UnityBuildCore.cpp.obj
 0001:0000c7fc       ?_Target_type@?$_Impl_no_alloc0@U?$_Callable_obj@V<lambda196>@?A0xe9eda812@@$0A@@tr1@std@@X@tr1@std@@UEBAAEBVtype_info@@XZ 000000018000d7fc f i UnityBuildCore.cpp.obj
 0001:0000c804       ?_Copy@?$_Impl_no_alloc0@U?$_Callable_obj@V<lambda196>@?A0xe9eda812@@$0A@@tr1@std@@X@tr1@std@@UEAAPEAV?$_Impl_base0@X@23@PEAX@Z 000000018000d804 f i UnityBuildCore.cpp.obj
 0001:0000c870       ?_Target_type@?$_Impl_no_alloc0@U?$_Callable_obj@V<lambda199>@?A0xe9eda812@@$0A@@tr1@std@@X@tr1@std@@UEBAAEBVtype_info@@XZ 000000018000d870 f i UnityBuildCore.cpp.obj
 0001:0000c878       ?_Copy@?$_Impl_no_alloc0@U?$_Callable_obj@V<lambda199>@?A0xe9eda812@@$0A@@tr1@std@@X@tr1@std@@UEAAPEAV?$_Impl_base0@X@23@PEAX@Z 000000018000d878 f i UnityBuildCore.cpp.obj
 0001:0000c8f4       ?_Target_type@?$_Impl_no_alloc0@U?$_Callable_obj@V<lambda200>@?A0xe9eda812@@$0A@@tr1@std@@X@tr1@std@@UEBAAEBVtype_info@@XZ 000000018000d8f4 f i UnityBuildCore.cpp.obj
 0001:0000c8fc       ?_Copy@?$_Impl_no_alloc0@U?$_Callable_obj@V<lambda200>@?A0xe9eda812@@$0A@@tr1@std@@X@tr1@std@@UEAAPEAV?$_Impl_base0@X@23@PEAX@Z 000000018000d8fc f i UnityBuildCore.cpp.obj
 0001:0000c968       ?_Target_type@?$_Impl_no_alloc0@U?$_Callable_obj@V<lambda201>@?A0xe9eda812@@$0A@@tr1@std@@X@tr1@std@@UEBAAEBVtype_info@@XZ 000000018000d968 f i UnityBuildCore.cpp.obj
 0001:0000c970       ?_Copy@?$_Impl_no_alloc0@U?$_Callable_obj@V<lambda201>@?A0xe9eda812@@$0A@@tr1@std@@X@tr1@std@@UEAAPEAV?$_Impl_base0@X@23@PEAX@Z 000000018000d970 f i UnityBuildCore.cpp.obj
 0001:0000c9dc       ?_Target_type@?$_Impl_no_alloc0@U?$_Callable_obj@V<lambda202>@?A0xe9eda812@@$0A@@tr1@std@@X@tr1@std@@UEBAAEBVtype_info@@XZ 000000018000d9dc f i UnityBuildCore.cpp.obj
 0001:0000c9e4       ?_Copy@?$_Impl_no_alloc0@U?$_Callable_obj@V<lambda202>@?A0xe9eda812@@$0A@@tr1@std@@X@tr1@std@@UEAAPEAV?$_Impl_base0@X@23@PEAX@Z 000000018000d9e4 f i UnityBuildCore.cpp.obj
 0001:0000ca50       ?_Target_type@?$_Impl_no_alloc0@U?$_Callable_obj@V<lambda204>@?A0xe9eda812@@$0A@@tr1@std@@X@tr1@std@@UEBAAEBVtype_info@@XZ 000000018000da50 f i UnityBuildCore.cpp.obj
 0001:0000ca58       ?_Copy@?$_Impl_no_alloc0@U?$_Callable_obj@V<lambda204>@?A0xe9eda812@@$0A@@tr1@std@@X@tr1@std@@UEAAPEAV?$_Impl_base0@X@23@PEAX@Z 000000018000da58 f i UnityBuildCore.cpp.obj
 0001:0000cac4       ?_Target_type@?$_Impl_no_alloc0@U?$_Callable_obj@V<lambda205>@?A0xe9eda812@@$0A@@tr1@std@@X@tr1@std@@UEBAAEBVtype_info@@XZ 000000018000dac4 f i UnityBuildCore.cpp.obj
 0001:0000cacc       ?_Copy@?$_Impl_no_alloc0@U?$_Callable_obj@V<lambda205>@?A0xe9eda812@@$0A@@tr1@std@@X@tr1@std@@UEAAPEAV?$_Impl_base0@X@23@PEAX@Z 000000018000dacc f i UnityBuildCore.cpp.obj
 0001:0000cb38       ?_Target_type@?$_Impl_no_alloc0@U?$_Callable_obj@V<lambda206>@?A0xe9eda812@@$0A@@tr1@std@@X@tr1@std@@UEBAAEBVtype_info@@XZ 000000018000db38 f i UnityBuildCore.cpp.obj
 0001:0000cb40       ?_Copy@?$_Impl_no_alloc0@U?$_Callable_obj@V<lambda206>@?A0xe9eda812@@$0A@@tr1@std@@X@tr1@std@@UEAAPEAV?$_Impl_base0@X@23@PEAX@Z 000000018000db40 f i UnityBuildCore.cpp.obj
 0001:0000cbc4       ?_Target_type@?$_Impl_no_alloc0@U?$_Callable_obj@V<lambda208>@?A0xe9eda812@@$0A@@tr1@std@@X@tr1@std@@UEBAAEBVtype_info@@XZ 000000018000dbc4 f i UnityBuildCore.cpp.obj
 0001:0000cbcc       ?_Copy@?$_Impl_no_alloc0@U?$_Callable_obj@V<lambda208>@?A0xe9eda812@@$0A@@tr1@std@@X@tr1@std@@UEAAPEAV?$_Impl_base0@X@23@PEAX@Z 000000018000dbcc f i UnityBuildCore.cpp.obj
 0001:0000cc38       ?_Target_type@?$_Impl_no_alloc0@U?$_Callable_obj@V<lambda209>@?A0xe9eda812@@$0A@@tr1@std@@X@tr1@std@@UEBAAEBVtype_info@@XZ 000000018000dc38 f i UnityBuildCore.cpp.obj
 0001:0000cc40       ?_Copy@?$_Impl_no_alloc0@U?$_Callable_obj@V<lambda209>@?A0xe9eda812@@$0A@@tr1@std@@X@tr1@std@@UEAAPEAV?$_Impl_base0@X@23@PEAX@Z 000000018000dc40 f i UnityBuildCore.cpp.obj
 0001:0000ccac       ?_Target_type@?$_Impl_no_alloc0@U?$_Callable_obj@V<lambda211>@?A0xe9eda812@@$0A@@tr1@std@@X@tr1@std@@UEBAAEBVtype_info@@XZ 000000018000dcac f i UnityBuildCore.cpp.obj
 0001:0000ccb4       ?_Copy@?$_Impl_no_alloc0@U?$_Callable_obj@V<lambda211>@?A0xe9eda812@@$0A@@tr1@std@@X@tr1@std@@UEAAPEAV?$_Impl_base0@X@23@PEAX@Z 000000018000dcb4 f i UnityBuildCore.cpp.obj
 0001:0000cd20       ?_Target_type@?$_Impl_no_alloc0@U?$_Callable_obj@V<lambda213>@?A0xe9eda812@@$0A@@tr1@std@@X@tr1@std@@UEBAAEBVtype_info@@XZ 000000018000dd20 f i UnityBuildCore.cpp.obj
 0001:0000cd28       ?_Copy@?$_Impl_no_alloc0@U?$_Callable_obj@V<lambda213>@?A0xe9eda812@@$0A@@tr1@std@@X@tr1@std@@UEAAPEAV?$_Impl_base0@X@23@PEAX@Z 000000018000dd28 f i UnityBuildCore.cpp.obj
 0001:0000cd94       ?_Target_type@?$_Impl_no_alloc0@U?$_Callable_obj@V<lambda214>@?A0xe9eda812@@$0A@@tr1@std@@X@tr1@std@@UEBAAEBVtype_info@@XZ 000000018000dd94 f i UnityBuildCore.cpp.obj
 0001:0000cd9c       ?_Copy@?$_Impl_no_alloc0@U?$_Callable_obj@V<lambda214>@?A0xe9eda812@@$0A@@tr1@std@@X@tr1@std@@UEAAPEAV?$_Impl_base0@X@23@PEAX@Z 000000018000dd9c f i UnityBuildCore.cpp.obj
 0001:0000ce20       ?_Target_type@?$_Impl_no_alloc0@U?$_Callable_obj@V<lambda216>@?A0xe9eda812@@$0A@@tr1@std@@X@tr1@std@@UEBAAEBVtype_info@@XZ 000000018000de20 f i UnityBuildCore.cpp.obj
 0001:0000ce28       ?_Copy@?$_Impl_no_alloc0@U?$_Callable_obj@V<lambda216>@?A0xe9eda812@@$0A@@tr1@std@@X@tr1@std@@UEAAPEAV?$_Impl_base0@X@23@PEAX@Z 000000018000de28 f i UnityBuildCore.cpp.obj
 0001:0000ce94       ?_Target_type@?$_Impl_no_alloc0@U?$_Callable_obj@V<lambda217>@?A0xe9eda812@@$0A@@tr1@std@@X@tr1@std@@UEBAAEBVtype_info@@XZ 000000018000de94 f i UnityBuildCore.cpp.obj
 0001:0000ce9c       ?_Copy@?$_Impl_no_alloc0@U?$_Callable_obj@V<lambda217>@?A0xe9eda812@@$0A@@tr1@std@@X@tr1@std@@UEAAPEAV?$_Impl_base0@X@23@PEAX@Z 000000018000de9c f i UnityBuildCore.cpp.obj
 0001:0000cf08       ?_Target_type@?$_Impl_no_alloc0@U?$_Callable_obj@V<lambda218>@?A0xe9eda812@@$0A@@tr1@std@@X@tr1@std@@UEBAAEBVtype_info@@XZ 000000018000df08 f i UnityBuildCore.cpp.obj
 0001:0000cf10       ?_Copy@?$_Impl_no_alloc0@U?$_Callable_obj@V<lambda218>@?A0xe9eda812@@$0A@@tr1@std@@X@tr1@std@@UEAAPEAV?$_Impl_base0@X@23@PEAX@Z 000000018000df10 f i UnityBuildCore.cpp.obj
 0001:0000cf7c       ?_Target_type@?$_Impl_no_alloc0@U?$_Callable_obj@V<lambda219>@?A0xe9eda812@@$0A@@tr1@std@@X@tr1@std@@UEBAAEBVtype_info@@XZ 000000018000df7c f i UnityBuildCore.cpp.obj
 0001:0000cf84       ?_Copy@?$_Impl_no_alloc0@U?$_Callable_obj@V<lambda219>@?A0xe9eda812@@$0A@@tr1@std@@X@tr1@std@@UEAAPEAV?$_Impl_base0@X@23@PEAX@Z 000000018000df84 f i UnityBuildCore.cpp.obj
 0001:0000d000       ?_Target_type@?$_Impl_no_alloc0@U?$_Callable_obj@V<lambda220>@?A0xe9eda812@@$0A@@tr1@std@@X@tr1@std@@UEBAAEBVtype_info@@XZ 000000018000e000 f i UnityBuildCore.cpp.obj
 0001:0000d008       ?_Copy@?$_Impl_no_alloc0@U?$_Callable_obj@V<lambda220>@?A0xe9eda812@@$0A@@tr1@std@@X@tr1@std@@UEAAPEAV?$_Impl_base0@X@23@PEAX@Z 000000018000e008 f i UnityBuildCore.cpp.obj
 0001:0000d08c       ?_Target_type@?$_Impl_no_alloc0@U?$_Callable_obj@V<lambda222>@?A0xe9eda812@@$0A@@tr1@std@@X@tr1@std@@UEBAAEBVtype_info@@XZ 000000018000e08c f i UnityBuildCore.cpp.obj
 0001:0000d094       ?_Copy@?$_Impl_no_alloc0@U?$_Callable_obj@V<lambda222>@?A0xe9eda812@@$0A@@tr1@std@@X@tr1@std@@UEAAPEAV?$_Impl_base0@X@23@PEAX@Z 000000018000e094 f i UnityBuildCore.cpp.obj
 0001:0000d100       ?_Target_type@?$_Impl_no_alloc0@U?$_Callable_obj@V<lambda223>@?A0xe9eda812@@$0A@@tr1@std@@X@tr1@std@@UEBAAEBVtype_info@@XZ 000000018000e100 f i UnityBuildCore.cpp.obj
 0001:0000d108       ?_Copy@?$_Impl_no_alloc0@U?$_Callable_obj@V<lambda223>@?A0xe9eda812@@$0A@@tr1@std@@X@tr1@std@@UEAAPEAV?$_Impl_base0@X@23@PEAX@Z 000000018000e108 f i UnityBuildCore.cpp.obj
 0001:0000d174       ?_Target_type@?$_Impl_no_alloc0@U?$_Callable_obj@V<lambda224>@?A0xe9eda812@@$0A@@tr1@std@@X@tr1@std@@UEBAAEBVtype_info@@XZ 000000018000e174 f i UnityBuildCore.cpp.obj
 0001:0000d17c       ?_Copy@?$_Impl_no_alloc0@U?$_Callable_obj@V<lambda224>@?A0xe9eda812@@$0A@@tr1@std@@X@tr1@std@@UEAAPEAV?$_Impl_base0@X@23@PEAX@Z 000000018000e17c f i UnityBuildCore.cpp.obj
 0001:0000d1f8       ?_Target_type@?$_Impl_no_alloc0@U?$_Callable_obj@V<lambda225>@?A0xe9eda812@@$0A@@tr1@std@@X@tr1@std@@UEBAAEBVtype_info@@XZ 000000018000e1f8 f i UnityBuildCore.cpp.obj
 0001:0000d200       ?_Copy@?$_Impl_no_alloc0@U?$_Callable_obj@V<lambda225>@?A0xe9eda812@@$0A@@tr1@std@@X@tr1@std@@UEAAPEAV?$_Impl_base0@X@23@PEAX@Z 000000018000e200 f i UnityBuildCore.cpp.obj
 0001:0000d284       ?_Target_type@?$_Impl_no_alloc0@U?$_Callable_obj@V<lambda227>@?A0xe9eda812@@$0A@@tr1@std@@X@tr1@std@@UEBAAEBVtype_info@@XZ 000000018000e284 f i UnityBuildCore.cpp.obj
 0001:0000d28c       ?_Copy@?$_Impl_no_alloc0@U?$_Callable_obj@V<lambda227>@?A0xe9eda812@@$0A@@tr1@std@@X@tr1@std@@UEAAPEAV?$_Impl_base0@X@23@PEAX@Z 000000018000e28c f i UnityBuildCore.cpp.obj
 0001:0000d2f8       ?_Target_type@?$_Impl_no_alloc0@U?$_Callable_obj@V<lambda228>@?A0xe9eda812@@$0A@@tr1@std@@X@tr1@std@@UEBAAEBVtype_info@@XZ 000000018000e2f8 f i UnityBuildCore.cpp.obj
 0001:0000d300       ?_Copy@?$_Impl_no_alloc0@U?$_Callable_obj@V<lambda228>@?A0xe9eda812@@$0A@@tr1@std@@X@tr1@std@@UEAAPEAV?$_Impl_base0@X@23@PEAX@Z 000000018000e300 f i UnityBuildCore.cpp.obj
 0001:0000d36c       ?_Target_type@?$_Impl_no_alloc0@U?$_Callable_obj@V<lambda230>@?A0xe9eda812@@$0A@@tr1@std@@X@tr1@std@@UEBAAEBVtype_info@@XZ 000000018000e36c f i UnityBuildCore.cpp.obj
 0001:0000d374       ?_Copy@?$_Impl_no_alloc0@U?$_Callable_obj@V<lambda230>@?A0xe9eda812@@$0A@@tr1@std@@X@tr1@std@@UEAAPEAV?$_Impl_base0@X@23@PEAX@Z 000000018000e374 f i UnityBuildCore.cpp.obj
 0001:0000d3e0       ?_Target_type@?$_Impl_no_alloc0@U?$_Callable_obj@V<lambda231>@?A0xe9eda812@@$0A@@tr1@std@@X@tr1@std@@UEBAAEBVtype_info@@XZ 000000018000e3e0 f i UnityBuildCore.cpp.obj
 0001:0000d3e8       ?_Copy@?$_Impl_no_alloc0@U?$_Callable_obj@V<lambda231>@?A0xe9eda812@@$0A@@tr1@std@@X@tr1@std@@UEAAPEAV?$_Impl_base0@X@23@PEAX@Z 000000018000e3e8 f i UnityBuildCore.cpp.obj
 0001:0000d464       ?_Target_type@?$_Impl_no_alloc0@U?$_Callable_obj@V<lambda232>@?A0xe9eda812@@$0A@@tr1@std@@X@tr1@std@@UEBAAEBVtype_info@@XZ 000000018000e464 f i UnityBuildCore.cpp.obj
 0001:0000d46c       ?_Copy@?$_Impl_no_alloc0@U?$_Callable_obj@V<lambda232>@?A0xe9eda812@@$0A@@tr1@std@@X@tr1@std@@UEAAPEAV?$_Impl_base0@X@23@PEAX@Z 000000018000e46c f i UnityBuildCore.cpp.obj
 0001:0000d4d8       ?_Target_type@?$_Impl_no_alloc0@U?$_Callable_obj@V<lambda233>@?A0xe9eda812@@$0A@@tr1@std@@X@tr1@std@@UEBAAEBVtype_info@@XZ 000000018000e4d8 f i UnityBuildCore.cpp.obj
 0001:0000d4e0       ?_Copy@?$_Impl_no_alloc0@U?$_Callable_obj@V<lambda233>@?A0xe9eda812@@$0A@@tr1@std@@X@tr1@std@@UEAAPEAV?$_Impl_base0@X@23@PEAX@Z 000000018000e4e0 f i UnityBuildCore.cpp.obj
 0001:0000d54c       ?_Target_type@?$_Impl_no_alloc0@U?$_Callable_obj@V<lambda234>@?A0xe9eda812@@$0A@@tr1@std@@X@tr1@std@@UEBAAEBVtype_info@@XZ 000000018000e54c f i UnityBuildCore.cpp.obj
 0001:0000d554       ?_Copy@?$_Impl_no_alloc0@U?$_Callable_obj@V<lambda234>@?A0xe9eda812@@$0A@@tr1@std@@X@tr1@std@@UEAAPEAV?$_Impl_base0@X@23@PEAX@Z 000000018000e554 f i UnityBuildCore.cpp.obj
 0001:0000d5c0       ?_Target_type@?$_Impl_no_alloc0@U?$_Callable_obj@V<lambda236>@?A0xe9eda812@@$0A@@tr1@std@@X@tr1@std@@UEBAAEBVtype_info@@XZ 000000018000e5c0 f i UnityBuildCore.cpp.obj
 0001:0000d5c8       ?_Copy@?$_Impl_no_alloc0@U?$_Callable_obj@V<lambda236>@?A0xe9eda812@@$0A@@tr1@std@@X@tr1@std@@UEAAPEAV?$_Impl_base0@X@23@PEAX@Z 000000018000e5c8 f i UnityBuildCore.cpp.obj
 0001:0000d634       ?_Target_type@?$_Impl_no_alloc0@U?$_Callable_obj@V<lambda238>@?A0xe9eda812@@$0A@@tr1@std@@X@tr1@std@@UEBAAEBVtype_info@@XZ 000000018000e634 f i UnityBuildCore.cpp.obj
 0001:0000d63c       ?_Copy@?$_Impl_no_alloc0@U?$_Callable_obj@V<lambda238>@?A0xe9eda812@@$0A@@tr1@std@@X@tr1@std@@UEAAPEAV?$_Impl_base0@X@23@PEAX@Z 000000018000e63c f i UnityBuildCore.cpp.obj
 0001:0000d6a8       ?_Target_type@?$_Impl_no_alloc0@U?$_Callable_obj@V<lambda240>@?A0xe9eda812@@$0A@@tr1@std@@X@tr1@std@@UEBAAEBVtype_info@@XZ 000000018000e6a8 f i UnityBuildCore.cpp.obj
 0001:0000d6b0       ?_Copy@?$_Impl_no_alloc0@U?$_Callable_obj@V<lambda240>@?A0xe9eda812@@$0A@@tr1@std@@X@tr1@std@@UEAAPEAV?$_Impl_base0@X@23@PEAX@Z 000000018000e6b0 f i UnityBuildCore.cpp.obj
 0001:0000d71c       ?_Target_type@?$_Impl_no_alloc0@U?$_Callable_obj@V<lambda241>@?A0xe9eda812@@$0A@@tr1@std@@X@tr1@std@@UEBAAEBVtype_info@@XZ 000000018000e71c f i UnityBuildCore.cpp.obj
 0001:0000d724       ?_Copy@?$_Impl_no_alloc0@U?$_Callable_obj@V<lambda241>@?A0xe9eda812@@$0A@@tr1@std@@X@tr1@std@@UEAAPEAV?$_Impl_base0@X@23@PEAX@Z 000000018000e724 f i UnityBuildCore.cpp.obj
 0001:0000d790       ?_Target_type@?$_Impl_no_alloc0@U?$_Callable_obj@V<lambda243>@?A0xe9eda812@@$0A@@tr1@std@@X@tr1@std@@UEBAAEBVtype_info@@XZ 000000018000e790 f i UnityBuildCore.cpp.obj
 0001:0000d798       ?_Copy@?$_Impl_no_alloc0@U?$_Callable_obj@V<lambda243>@?A0xe9eda812@@$0A@@tr1@std@@X@tr1@std@@UEAAPEAV?$_Impl_base0@X@23@PEAX@Z 000000018000e798 f i UnityBuildCore.cpp.obj
 0001:0000d804       ?_Target_type@?$_Impl_no_alloc0@U?$_Callable_obj@V<lambda246>@?A0xe9eda812@@$0A@@tr1@std@@X@tr1@std@@UEBAAEBVtype_info@@XZ 000000018000e804 f i UnityBuildCore.cpp.obj
 0001:0000d80c       ?_Copy@?$_Impl_no_alloc0@U?$_Callable_obj@V<lambda246>@?A0xe9eda812@@$0A@@tr1@std@@X@tr1@std@@UEAAPEAV?$_Impl_base0@X@23@PEAX@Z 000000018000e80c f i UnityBuildCore.cpp.obj
 0001:0000d878       ?_Target_type@?$_Impl_no_alloc0@U?$_Callable_obj@V<lambda248>@?A0xe9eda812@@$0A@@tr1@std@@X@tr1@std@@UEBAAEBVtype_info@@XZ 000000018000e878 f i UnityBuildCore.cpp.obj
 0001:0000d880       ?_Copy@?$_Impl_no_alloc0@U?$_Callable_obj@V<lambda248>@?A0xe9eda812@@$0A@@tr1@std@@X@tr1@std@@UEAAPEAV?$_Impl_base0@X@23@PEAX@Z 000000018000e880 f i UnityBuildCore.cpp.obj
 0001:0000d8ec       ?_Target_type@?$_Impl_no_alloc0@U?$_Callable_obj@V<lambda250>@?A0xe9eda812@@$0A@@tr1@std@@X@tr1@std@@UEBAAEBVtype_info@@XZ 000000018000e8ec f i UnityBuildCore.cpp.obj
 0001:0000d8f4       ?_Copy@?$_Impl_no_alloc0@U?$_Callable_obj@V<lambda250>@?A0xe9eda812@@$0A@@tr1@std@@X@tr1@std@@UEAAPEAV?$_Impl_base0@X@23@PEAX@Z 000000018000e8f4 f i UnityBuildCore.cpp.obj
 0001:0000d960       ?_Target_type@?$_Impl_no_alloc0@U?$_Callable_obj@V<lambda253>@?A0xe9eda812@@$0A@@tr1@std@@X@tr1@std@@UEBAAEBVtype_info@@XZ 000000018000e960 f i UnityBuildCore.cpp.obj
 0001:0000d968       ?_Copy@?$_Impl_no_alloc0@U?$_Callable_obj@V<lambda253>@?A0xe9eda812@@$0A@@tr1@std@@X@tr1@std@@UEAAPEAV?$_Impl_base0@X@23@PEAX@Z 000000018000e968 f i UnityBuildCore.cpp.obj
 0001:0000d9d4       ?_Target_type@?$_Impl_no_alloc0@U?$_Callable_obj@V<lambda254>@?A0xe9eda812@@$0A@@tr1@std@@X@tr1@std@@UEBAAEBVtype_info@@XZ 000000018000e9d4 f i UnityBuildCore.cpp.obj
 0001:0000d9dc       ?_Copy@?$_Impl_no_alloc0@U?$_Callable_obj@V<lambda254>@?A0xe9eda812@@$0A@@tr1@std@@X@tr1@std@@UEAAPEAV?$_Impl_base0@X@23@PEAX@Z 000000018000e9dc f i UnityBuildCore.cpp.obj
 0001:0000da48       ?_Target_type@?$_Impl_no_alloc0@U?$_Callable_obj@V<lambda255>@?A0xe9eda812@@$0A@@tr1@std@@X@tr1@std@@UEBAAEBVtype_info@@XZ 000000018000ea48 f i UnityBuildCore.cpp.obj
 0001:0000da50       ?_Copy@?$_Impl_no_alloc0@U?$_Callable_obj@V<lambda255>@?A0xe9eda812@@$0A@@tr1@std@@X@tr1@std@@UEAAPEAV?$_Impl_base0@X@23@PEAX@Z 000000018000ea50 f i UnityBuildCore.cpp.obj
 0001:0000dabc       ?_Target_type@?$_Impl_no_alloc0@U?$_Callable_obj@V<lambda257>@?A0xe9eda812@@$0A@@tr1@std@@X@tr1@std@@UEBAAEBVtype_info@@XZ 000000018000eabc f i UnityBuildCore.cpp.obj
 0001:0000dac4       ?_Copy@?$_Impl_no_alloc0@U?$_Callable_obj@V<lambda257>@?A0xe9eda812@@$0A@@tr1@std@@X@tr1@std@@UEAAPEAV?$_Impl_base0@X@23@PEAX@Z 000000018000eac4 f i UnityBuildCore.cpp.obj
 0001:0000db30       ?_Target_type@?$_Impl_no_alloc0@U?$_Callable_obj@V<lambda259>@?A0xe9eda812@@$0A@@tr1@std@@X@tr1@std@@UEBAAEBVtype_info@@XZ 000000018000eb30 f i UnityBuildCore.cpp.obj
 0001:0000db38       ?_Copy@?$_Impl_no_alloc0@U?$_Callable_obj@V<lambda259>@?A0xe9eda812@@$0A@@tr1@std@@X@tr1@std@@UEAAPEAV?$_Impl_base0@X@23@PEAX@Z 000000018000eb38 f i UnityBuildCore.cpp.obj
 0001:0000dba4       ?_Target_type@?$_Impl_no_alloc0@U?$_Callable_obj@V<lambda262>@?A0xe9eda812@@$0A@@tr1@std@@X@tr1@std@@UEBAAEBVtype_info@@XZ 000000018000eba4 f i UnityBuildCore.cpp.obj
 0001:0000dbac       ?_Copy@?$_Impl_no_alloc0@U?$_Callable_obj@V<lambda262>@?A0xe9eda812@@$0A@@tr1@std@@X@tr1@std@@UEAAPEAV?$_Impl_base0@X@23@PEAX@Z 000000018000ebac f i UnityBuildCore.cpp.obj
 0001:0000dc18       ?_Target_type@?$_Impl_no_alloc0@U?$_Callable_obj@V<lambda263>@?A0xe9eda812@@$0A@@tr1@std@@X@tr1@std@@UEBAAEBVtype_info@@XZ 000000018000ec18 f i UnityBuildCore.cpp.obj
 0001:0000dc20       ?_Copy@?$_Impl_no_alloc0@U?$_Callable_obj@V<lambda263>@?A0xe9eda812@@$0A@@tr1@std@@X@tr1@std@@UEAAPEAV?$_Impl_base0@X@23@PEAX@Z 000000018000ec20 f i UnityBuildCore.cpp.obj
 0001:0000dc8c       ?_Target_type@?$_Impl_no_alloc0@U?$_Callable_obj@V<lambda265>@?A0xe9eda812@@$0A@@tr1@std@@X@tr1@std@@UEBAAEBVtype_info@@XZ 000000018000ec8c f i UnityBuildCore.cpp.obj
 0001:0000dc94       ?_Copy@?$_Impl_no_alloc0@U?$_Callable_obj@V<lambda265>@?A0xe9eda812@@$0A@@tr1@std@@X@tr1@std@@UEAAPEAV?$_Impl_base0@X@23@PEAX@Z 000000018000ec94 f i UnityBuildCore.cpp.obj
 0001:0000dd00       ?_Target_type@?$_Impl_no_alloc0@U?$_Callable_obj@V<lambda267>@?A0xe9eda812@@$0A@@tr1@std@@X@tr1@std@@UEBAAEBVtype_info@@XZ 000000018000ed00 f i UnityBuildCore.cpp.obj
 0001:0000dd08       ?_Copy@?$_Impl_no_alloc0@U?$_Callable_obj@V<lambda267>@?A0xe9eda812@@$0A@@tr1@std@@X@tr1@std@@UEAAPEAV?$_Impl_base0@X@23@PEAX@Z 000000018000ed08 f i UnityBuildCore.cpp.obj
 0001:0000dd74       ?_Target_type@?$_Impl_no_alloc0@U?$_Callable_obj@V<lambda269>@?A0xe9eda812@@$0A@@tr1@std@@X@tr1@std@@UEBAAEBVtype_info@@XZ 000000018000ed74 f i UnityBuildCore.cpp.obj
 0001:0000dd7c       ?_Copy@?$_Impl_no_alloc0@U?$_Callable_obj@V<lambda269>@?A0xe9eda812@@$0A@@tr1@std@@X@tr1@std@@UEAAPEAV?$_Impl_base0@X@23@PEAX@Z 000000018000ed7c f i UnityBuildCore.cpp.obj
 0001:0000dde8       ?_Target_type@?$_Impl_no_alloc0@U?$_Callable_obj@V<lambda273>@?A0xe9eda812@@$0A@@tr1@std@@X@tr1@std@@UEBAAEBVtype_info@@XZ 000000018000ede8 f i UnityBuildCore.cpp.obj
 0001:0000ddf0       ?_Copy@?$_Impl_no_alloc0@U?$_Callable_obj@V<lambda273>@?A0xe9eda812@@$0A@@tr1@std@@X@tr1@std@@UEAAPEAV?$_Impl_base0@X@23@PEAX@Z 000000018000edf0 f i UnityBuildCore.cpp.obj
 0001:0000de5c       ?_Target_type@?$_Impl_no_alloc0@U?$_Callable_obj@V<lambda274>@?A0xe9eda812@@$0A@@tr1@std@@X@tr1@std@@UEBAAEBVtype_info@@XZ 000000018000ee5c f i UnityBuildCore.cpp.obj
 0001:0000de64       ?_Copy@?$_Impl_no_alloc0@U?$_Callable_obj@V<lambda274>@?A0xe9eda812@@$0A@@tr1@std@@X@tr1@std@@UEAAPEAV?$_Impl_base0@X@23@PEAX@Z 000000018000ee64 f i UnityBuildCore.cpp.obj
 0001:0000ded0       ?Change@TFarDialogContainer@@MEAAXXZ 000000018000eed0 f i UnityBuildMain.cpp.obj
 0001:0000ded0       ?_Do_call@?$_Impl_no_alloc0@U?$_Callable_obj@V<lambda356>@?A0xe9eda812@@$0A@@tr1@std@@X@tr1@std@@UEAAXXZ 000000018000eed0 f i UnityBuildCore.cpp.obj
 0001:0000ded0       ?Notify@TList@@UEAAXPEAXW4TListNotification@@@Z 000000018000eed0 f i UnityBuildCore.cpp.obj
 0001:0000ded0       ?_Do_call@?$_Impl_no_alloc0@U?$_Callable_obj@V<lambda60>@?A0xe9eda812@@$0A@@tr1@std@@X@tr1@std@@UEAAXXZ 000000018000eed0 f i UnityBuildCore.cpp.obj
 0001:0000ded0       ?LogSocketMessageRaw@CAsyncSocketEx@@MEAAXHPEB_W@Z 000000018000eed0 f i UnityBuildFilezilla.cpp.obj
 0001:0000ded0       ?_Do_call@?$_Impl_no_alloc0@U?$_Callable_obj@V<lambda300>@?A0xe9eda812@@$0A@@tr1@std@@X@tr1@std@@UEAAXXZ 000000018000eed0 f i UnityBuildCore.cpp.obj
 0001:0000ded0       ?_Do_call@?$_Impl_no_alloc0@U?$_Callable_obj@V<lambda259>@?A0xe9eda812@@$0A@@tr1@std@@X@tr1@std@@UEAAXXZ 000000018000eed0 f i UnityBuildCore.cpp.obj
 0001:0000ded0       ?_Do_call@?$_Impl_no_alloc0@U?$_Callable_obj@V<lambda105>@?A0xe9eda812@@$0A@@tr1@std@@X@tr1@std@@UEAAXXZ 000000018000eed0 f i UnityBuildCore.cpp.obj
 0001:0000ded0       ?DoFocus@TFarLister@@MEAAXXZ 000000018000eed0 f i UnityBuildMain.cpp.obj
 0001:0000ded0       ?_Do_call@?$_Impl_no_alloc0@U?$_Callable_obj@V<lambda12>@?A0xe9eda812@@$0A@@tr1@std@@X@tr1@std@@UEAAXXZ 000000018000eed0 f i UnityBuildCore.cpp.obj
 0001:0000ded0       ?_Do_call@?$_Impl_no_alloc0@U?$_Callable_obj@V<lambda113>@?A0xe9eda812@@$0A@@tr1@std@@X@tr1@std@@UEAAXXZ 000000018000eed0 f i UnityBuildCore.cpp.obj
 0001:0000ded0       ?_Do_call@?$_Impl_no_alloc0@U?$_Callable_obj@V<lambda181>@?A0xe9eda812@@$0A@@tr1@std@@X@tr1@std@@UEAAXXZ 000000018000eed0 f i UnityBuildCore.cpp.obj
 0001:0000ded0       ?_Do_call@?$_Impl_no_alloc0@U?$_Callable_obj@V<lambda55>@?A0xe9eda812@@$0A@@tr1@std@@X@tr1@std@@UEAAXXZ 000000018000eed0 f i UnityBuildCore.cpp.obj
 0001:0000ded0       ?_Do_call@?$_Impl_no_alloc0@U?$_Callable_obj@V<lambda236>@?A0xe9eda812@@$0A@@tr1@std@@X@tr1@std@@UEAAXXZ 000000018000eed0 f i UnityBuildCore.cpp.obj
 0001:0000ded0       pinger_reconfig            000000018000eed0 f i UnityBuildCore.cpp.obj
 0001:0000ded0       ?_Do_call@?$_Impl_no_alloc0@U?$_Callable_obj@V<lambda338>@?A0xe9eda812@@$0A@@tr1@std@@X@tr1@std@@UEAAXXZ 000000018000eed0 f i UnityBuildCore.cpp.obj
 0001:0000ded0       ?_Do_call@?$_Impl_no_alloc0@U?$_Callable_obj@V<lambda79>@?A0xe9eda812@@$0A@@tr1@std@@X@tr1@std@@UEAAXXZ 000000018000eed0 f i UnityBuildCore.cpp.obj
 0001:0000ded0       ?_Do_call@?$_Impl_no_alloc0@U?$_Callable_obj@V<lambda234>@?A0xe9eda812@@$0A@@tr1@std@@X@tr1@std@@UEAAXXZ 000000018000eed0 f i UnityBuildCore.cpp.obj
 0001:0000ded0       ?_Do_call@?$_Impl_no_alloc0@U?$_Callable_obj@V<lambda213>@?A0xe9eda812@@$0A@@tr1@std@@X@tr1@std@@UEAAXXZ 000000018000eed0 f i UnityBuildCore.cpp.obj
 0001:0000ded0       ?_Do_call@?$_Impl_no_alloc0@U?$_Callable_obj@V<lambda162>@?A0xe9eda812@@$0A@@tr1@std@@X@tr1@std@@UEAAXXZ 000000018000eed0 f i UnityBuildCore.cpp.obj
 0001:0000ded0       ?_Do_call@?$_Impl_no_alloc0@U?$_Callable_obj@V<lambda95>@?A0xe9eda812@@$0A@@tr1@std@@X@tr1@std@@UEAAXXZ 000000018000eed0 f i UnityBuildCore.cpp.obj
 0001:0000ded0       ?_Do_call@?$_Impl_no_alloc0@U?$_Callable_obj@V<lambda308>@?A0xe9eda812@@$0A@@tr1@std@@X@tr1@std@@UEAAXXZ 000000018000eed0 f i UnityBuildCore.cpp.obj
 0001:0000ded0       ?_Do_call@?$_Impl_no_alloc0@U?$_Callable_obj@V<lambda99>@?A0xe9eda812@@$0A@@tr1@std@@X@tr1@std@@UEAAXXZ 000000018000eed0 f i UnityBuildCore.cpp.obj
 0001:0000ded0       ?_Do_call@?$_Impl_no_alloc0@U?$_Callable_obj@V<lambda106>@?A0xe9eda812@@$0A@@tr1@std@@X@tr1@std@@UEAAXXZ 000000018000eed0 f i UnityBuildCore.cpp.obj
 0001:0000ded0       ?_Do_call@?$_Impl_no_alloc0@U?$_Callable_obj@V<lambda65>@?A0xe9eda812@@$0A@@tr1@std@@X@tr1@std@@UEAAXXZ 000000018000eed0 f i UnityBuildCore.cpp.obj
 0001:0000ded0       ?ConfigureSocket@CAsyncSocketEx@@MEAAXXZ 000000018000eed0 f i UnityBuildFilezilla.cpp.obj
 0001:0000ded0       ?_Do_call@?$_Impl_no_alloc0@U?$_Callable_obj@V<lambda208>@?A0xe9eda812@@$0A@@tr1@std@@X@tr1@std@@UEAAXXZ 000000018000eed0 f i UnityBuildCore.cpp.obj
 0001:0000ded0       ?Changed@TObject@@UEAAXXZ  000000018000eed0 f i UnityBuildCore.cpp.obj
 0001:0000ded0       ?_Do_call@?$_Impl_no_alloc0@U?$_Callable_obj@V<lambda194>@?A0xe9eda812@@$0A@@tr1@std@@X@tr1@std@@UEAAXXZ 000000018000eed0 f i UnityBuildCore.cpp.obj
 0001:0000ded0       ?_Do_call@?$_Impl_no_alloc0@U?$_Callable_obj@V<lambda98>@?A0xe9eda812@@$0A@@tr1@std@@X@tr1@std@@UEAAXXZ 000000018000eed0 f i UnityBuildCore.cpp.obj
 0001:0000ded0       ?_Do_call@?$_Impl_no_alloc0@U?$_Callable_obj@V<lambda233>@?A0xe9eda812@@$0A@@tr1@std@@X@tr1@std@@UEAAXXZ 000000018000eed0 f i UnityBuildCore.cpp.obj
 0001:0000ded0       ?_Do_call@?$_Impl_no_alloc0@U?$_Callable_obj@V<lambda274>@?A0xe9eda812@@$0A@@tr1@std@@X@tr1@std@@UEAAXXZ 000000018000eed0 f i UnityBuildCore.cpp.obj
 0001:0000ded0       ?_Do_call@?$_Impl_no_alloc0@U?$_Callable_obj@V<lambda317>@?A0xe9eda812@@$0A@@tr1@std@@X@tr1@std@@UEAAXXZ 000000018000eed0 f i UnityBuildCore.cpp.obj
 0001:0000ded0       ?_Do_call@?$_Impl_no_alloc0@U?$_Callable_obj@V<lambda337>@?A0xe9eda812@@$0A@@tr1@std@@X@tr1@std@@UEAAXXZ 000000018000eed0 f i UnityBuildCore.cpp.obj
 0001:0000ded0       update_specials_menu       000000018000eed0 f i UnityBuildCore.cpp.obj
 0001:0000ded0       ?_Do_call@?$_Impl_no_alloc0@U?$_Callable_obj@V<lambda63>@?A0xe9eda812@@$0A@@tr1@std@@X@tr1@std@@UEAAXXZ 000000018000eed0 f i UnityBuildCore.cpp.obj
 0001:0000ded0       ?TerminalClose@TWinSCPFileSystem@@AEAAXPEAVTObject@@@Z 000000018000eed0 f i UnityBuildMain.cpp.obj
 0001:0000ded0       ?imbue@?$basic_streambuf@_WU?$char_traits@_W@std@@@std@@MEAAXAEBVlocale@2@@Z 000000018000eed0 f i UnityBuildCore.cpp.obj
 0001:0000ded0       ?_Do_call@?$_Impl_no_alloc0@U?$_Callable_obj@V<lambda50>@?A0xe9eda812@@$0A@@tr1@std@@X@tr1@std@@UEAAXXZ 000000018000eed0 f i UnityBuildCore.cpp.obj
 0001:0000ded0       ?UpdateFromMain@TFTPFileSystem@@UEAAXPEAVTCustomFileSystem@@@Z 000000018000eed0 f i UnityBuildCore.cpp.obj
 0001:0000ded0       ?_Do_call@?$_Impl_no_alloc0@U?$_Callable_obj@V<lambda240>@?A0xe9eda812@@$0A@@tr1@std@@X@tr1@std@@UEAAXXZ 000000018000eed0 f i UnityBuildCore.cpp.obj
 0001:0000ded0       ?_Do_call@?$_Impl_no_alloc0@U?$_Callable_obj@V<lambda343>@?A0xe9eda812@@$0A@@tr1@std@@X@tr1@std@@UEAAXXZ 000000018000eed0 f i UnityBuildCore.cpp.obj
 0001:0000ded0       ?_Do_call@?$_Impl_no_alloc0@U?$_Callable_obj@V<lambda163>@?A0xe9eda812@@$0A@@tr1@std@@X@tr1@std@@UEAAXXZ 000000018000eed0 f i UnityBuildCore.cpp.obj
 0001:0000ded0       ?_Do_call@?$_Impl_no_alloc0@U?$_Callable_obj@V<lambda121>@?A0xe9eda812@@$0A@@tr1@std@@X@tr1@std@@UEAAXXZ 000000018000eed0 f i UnityBuildCore.cpp.obj
 0001:0000ded0       ?CollectUsage@TSCPFileSystem@@UEAAXXZ 000000018000eed0 f i UnityBuildCore.cpp.obj
 0001:0000ded0       ?_Do_call@?$_Impl_no_alloc0@U?$_Callable_obj@V<lambda200>@?A0xe9eda812@@$0A@@tr1@std@@X@tr1@std@@UEAAXXZ 000000018000eed0 f i UnityBuildCore.cpp.obj
 0001:0000ded0       ?_Do_call@?$_Impl_no_alloc0@U?$_Callable_obj@V<lambda74>@?A0xe9eda812@@$0A@@tr1@std@@X@tr1@std@@UEAAXXZ 000000018000eed0 f i UnityBuildCore.cpp.obj
 0001:0000ded0       ?Closed@TTunnelUI@@UEAAXXZ 000000018000eed0 f i UnityBuildCore.cpp.obj
 0001:0000ded0       ?_Do_call@?$_Impl_no_alloc0@U?$_Callable_obj@V<lambda306>@?A0xe9eda812@@$0A@@tr1@std@@X@tr1@std@@UEAAXXZ 000000018000eed0 f i UnityBuildCore.cpp.obj
 0001:0000ded0       ?_Do_call@?$_Impl_no_alloc0@U?$_Callable_obj@V<lambda344>@?A0xe9eda812@@$0A@@tr1@std@@X@tr1@std@@UEAAXXZ 000000018000eed0 f i UnityBuildCore.cpp.obj
 0001:0000ded0       ?_Do_call@?$_Impl_no_alloc0@U?$_Callable_obj@V<lambda148>@?A0xe9eda812@@$0A@@tr1@std@@X@tr1@std@@UEAAXXZ 000000018000eed0 f i UnityBuildCore.cpp.obj
 0001:0000ded0       ?_Do_call@?$_Impl_no_alloc0@U?$_Callable_obj@V<lambda238>@?A0xe9eda812@@$0A@@tr1@std@@X@tr1@std@@UEAAXXZ 000000018000eed0 f i UnityBuildCore.cpp.obj
 0001:0000ded0       ?_Do_call@?$_Impl_no_alloc0@U?$_Callable_obj@V<lambda278>@?A0xe9eda812@@$0A@@tr1@std@@X@tr1@std@@UEAAXXZ 000000018000eed0 f i UnityBuildCore.cpp.obj
 0001:0000ded0       ?_Do_call@?$_Impl_no_alloc0@U?$_Callable_obj@V<lambda364>@?A0xe9eda812@@$0A@@tr1@std@@X@tr1@std@@UEAAXXZ 000000018000eed0 f i UnityBuildCore.cpp.obj
 0001:0000ded0       ?_Do_call@?$_Impl_no_alloc0@U?$_Callable_obj@V<lambda352>@?A0xe9eda812@@$0A@@tr1@std@@X@tr1@std@@UEAAXXZ 000000018000eed0 f i UnityBuildCore.cpp.obj
 0001:0000ded0       platform_ssh_share_cleanup 000000018000eed0 f i putty:noshare.c.obj
 0001:0000ded0       ?_Do_call@?$_Impl_no_alloc0@U?$_Callable_obj@V<lambda31>@?A0xe9eda812@@$0A@@tr1@std@@X@tr1@std@@UEAAXXZ 000000018000eed0 f i UnityBuildCore.cpp.obj
 0001:0000ded0       ?_Do_call@?$_Impl_no_alloc0@U?$_Callable_obj@V<lambda102>@?A0xe9eda812@@$0A@@tr1@std@@X@tr1@std@@UEAAXXZ 000000018000eed0 f i UnityBuildCore.cpp.obj
 0001:0000ded0       ?_Do_call@?$_Impl_no_alloc0@U?$_Callable_obj@V<lambda53>@?A0xe9eda812@@$0A@@tr1@std@@X@tr1@std@@UEAAXXZ 000000018000eed0 f i UnityBuildCore.cpp.obj
 0001:0000ded0       ?UpdateFromMain@TSCPFileSystem@@UEAAXPEAVTCustomFileSystem@@@Z 000000018000eed0 f i UnityBuildCore.cpp.obj
 0001:0000ded0       ?_Do_call@?$_Impl_no_alloc0@U?$_Callable_obj@V<lambda165>@?A0xe9eda812@@$0A@@tr1@std@@X@tr1@std@@UEAAXXZ 000000018000eed0 f i UnityBuildCore.cpp.obj
 0001:0000ded0       ?AnnounceFileListOperation@TSCPFileSystem@@UEAAXXZ 000000018000eed0 f i UnityBuildCore.cpp.obj
 0001:0000ded0       ?_Do_call@?$_Impl_no_alloc0@U?$_Callable_obj@V<lambda335>@?A0xe9eda812@@$0A@@tr1@std@@X@tr1@std@@UEAAXXZ 000000018000eed0 f i UnityBuildCore.cpp.obj
 0001:0000ded0       ?_Do_call@?$_Impl_no_alloc0@U?$_Callable_obj@V<lambda243>@?A0xe9eda812@@$0A@@tr1@std@@X@tr1@std@@UEAAXXZ 000000018000eed0 f i UnityBuildCore.cpp.obj
 0001:0000ded0       ?_Do_call@?$_Impl_no_alloc0@U?$_Callable_obj@V<lambda354>@?A0xe9eda812@@$0A@@tr1@std@@X@tr1@std@@UEAAXXZ 000000018000eed0 f i UnityBuildCore.cpp.obj
 0001:0000ded0       ?Idle@TFarDialog@@MEAAXXZ  000000018000eed0 f i UnityBuildMain.cpp.obj
 0001:0000ded0       ?Finished@TSimpleThread@@MEAAXXZ 000000018000eed0 f i UnityBuildCore.cpp.obj
 0001:0000ded0       ?_Do_call@?$_Impl_no_alloc0@U?$_Callable_obj@V<lambda311>@?A0xe9eda812@@$0A@@tr1@std@@X@tr1@std@@UEAAXXZ 000000018000eed0 f i UnityBuildCore.cpp.obj
 0001:0000ded0       ?_Do_call@?$_Impl_no_alloc0@U?$_Callable_obj@V<lambda246>@?A0xe9eda812@@$0A@@tr1@std@@X@tr1@std@@UEAAXXZ 000000018000eed0 f i UnityBuildCore.cpp.obj
 0001:0000ded0       ?_Do_call@?$_Impl_no_alloc0@U?$_Callable_obj@V<lambda138>@?A0xe9eda812@@$0A@@tr1@std@@X@tr1@std@@UEAAXXZ 000000018000eed0 f i UnityBuildCore.cpp.obj
 0001:0000ded0       notify_remote_exit         000000018000eed0 f i UnityBuildCore.cpp.obj
 0001:0000ded0       ?Init@THierarchicalStorage@@UEAAXXZ 000000018000eed0 f i UnityBuildCore.cpp.obj
 0001:0000ded0       ?ProcessGUI@TTunnelUI@@UEAAXXZ 000000018000eed0 f i UnityBuildCore.cpp.obj
 0001:0000ded0       ?_Do_call@?$_Impl_no_alloc0@U?$_Callable_obj@V<lambda155>@?A0xe9eda812@@$0A@@tr1@std@@X@tr1@std@@UEAAXXZ 000000018000eed0 f i UnityBuildCore.cpp.obj
 0001:0000ded0       ?DoFocus@TFarDialogItem@@UEAAXXZ 000000018000eed0 f i UnityBuildMain.cpp.obj
 0001:0000ded0       ?_Do_call@?$_Impl_no_alloc0@U?$_Callable_obj@V<lambda36>@?A0xe9eda812@@$0A@@tr1@std@@X@tr1@std@@UEAAXXZ 000000018000eed0 f i UnityBuildCore.cpp.obj
 0001:0000ded0       ?LookupUsersGroups@TFTPFileSystem@@UEAAXXZ 000000018000eed0 f i UnityBuildCore.cpp.obj
 0001:0000ded0       ?_Do_call@?$_Impl_no_alloc0@U?$_Callable_obj@V<lambda253>@?A0xe9eda812@@$0A@@tr1@std@@X@tr1@std@@UEAAXXZ 000000018000eed0 f i UnityBuildCore.cpp.obj
 0001:0000ded0       ?_Do_call@?$_Impl_no_alloc0@U?$_Callable_obj@V<lambda257>@?A0xe9eda812@@$0A@@tr1@std@@X@tr1@std@@UEAAXXZ 000000018000eed0 f i UnityBuildCore.cpp.obj
 0001:0000ded0       ?_Do_call@?$_Impl_no_alloc0@U?$_Callable_obj@V<lambda346>@?A0xe9eda812@@$0A@@tr1@std@@X@tr1@std@@UEAAXXZ 000000018000eed0 f i UnityBuildCore.cpp.obj
 0001:0000ded0       ?_Do_call@?$_Impl_no_alloc0@U?$_Callable_obj@V<lambda20>@?A0xe9eda812@@$0A@@tr1@std@@X@tr1@std@@UEAAXXZ 000000018000eed0 f i UnityBuildCore.cpp.obj
 0001:0000ded0       ?_Do_call@?$_Impl_no_alloc0@U?$_Callable_obj@V<lambda117>@?A0xe9eda812@@$0A@@tr1@std@@X@tr1@std@@UEAAXXZ 000000018000eed0 f i UnityBuildCore.cpp.obj
 0001:0000ded0       ?UpdateStaticUsage@TGUIConfiguration@@UEAAXXZ 000000018000eed0 f i UnityBuildCore.cpp.obj
 0001:0000ded0       ?Saved@TConfiguration@@UEAAXXZ 000000018000eed0 f i UnityBuildCore.cpp.obj
 0001:0000ded0       ?GetData@TFarPanelItem@@MEAAXAEA_KAEAVUnicodeString@@AEA_J0AEAVTDateTime@@3011AEAPEAX0@Z 000000018000eed0 f i UnityBuildMain.cpp.obj
 0001:0000ded0       ?_Do_call@?$_Impl_no_alloc0@U?$_Callable_obj@V<lambda166>@?A0xe9eda812@@$0A@@tr1@std@@X@tr1@std@@UEAAXXZ 000000018000eed0 f i UnityBuildCore.cpp.obj
 0001:0000ded0       ?_Do_call@?$_Impl_no_alloc0@U?$_Callable_obj@V<lambda172>@?A0xe9eda812@@$0A@@tr1@std@@X@tr1@std@@UEAAXXZ 000000018000eed0 f i UnityBuildCore.cpp.obj
 0001:0000ded0       ?_Do_call@?$_Impl_no_alloc0@U?$_Callable_obj@V<lambda255>@?A0xe9eda812@@$0A@@tr1@std@@X@tr1@std@@UEAAXXZ 000000018000eed0 f i UnityBuildCore.cpp.obj
 0001:0000ded0       ?_Do_call@?$_Impl_no_alloc0@U?$_Callable_obj@V<lambda254>@?A0xe9eda812@@$0A@@tr1@std@@X@tr1@std@@UEAAXXZ 000000018000eed0 f i UnityBuildCore.cpp.obj
 0001:0000ded0       expire_timer_context       000000018000eed0 f i UnityBuildCore.cpp.obj
 0001:0000ded0       ?ExitFAR@TCustomFarPlugin@@UEAAXXZ 000000018000eed0 f i UnityBuildMain.cpp.obj
 0001:0000ded0       ?_Do_call@?$_Impl_no_alloc0@U?$_Callable_obj@V<lambda93>@?A0xe9eda812@@$0A@@tr1@std@@X@tr1@std@@UEAAXXZ 000000018000eed0 f i UnityBuildCore.cpp.obj
 0001:0000ded0       ??1AFX_MAINTAIN_STATE2@@QEAA@XZ 000000018000eed0 f i atlmfc:mfc4.cpp.obj
 0001:0000ded0       ?_Do_call@?$_Impl_no_alloc0@U?$_Callable_obj@V<lambda201>@?A0xe9eda812@@$0A@@tr1@std@@X@tr1@std@@UEAAXXZ 000000018000eed0 f i UnityBuildCore.cpp.obj
 0001:0000ded0       OPENSSL_cpuid_setup        000000018000eed0 f i libcrypto:cryptlib.c.obj
 0001:0000ded0       ?_Do_call@?$_Impl_no_alloc0@U?$_Callable_obj@V<lambda82>@?A0xe9eda812@@$0A@@tr1@std@@X@tr1@std@@UEAAXXZ 000000018000eed0 f i UnityBuildCore.cpp.obj
 0001:0000ded0       ?_Do_call@?$_Impl_no_alloc0@U?$_Callable_obj@V<lambda345>@?A0xe9eda812@@$0A@@tr1@std@@X@tr1@std@@UEAAXXZ 000000018000eed0 f i UnityBuildCore.cpp.obj
 0001:0000ded0       ?_Do_call@?$_Impl_no_alloc0@U?$_Callable_obj@V<lambda24>@?A0xe9eda812@@$0A@@tr1@std@@X@tr1@std@@UEAAXXZ 000000018000eed0 f i UnityBuildCore.cpp.obj
 0001:0000ded0       ?_Do_call@?$_Impl_no_alloc0@U?$_Callable_obj@V<lambda330>@?A0xe9eda812@@$0A@@tr1@std@@X@tr1@std@@UEAAXXZ 000000018000eed0 f i UnityBuildCore.cpp.obj
 0001:0000ded0       ?_Do_call@?$_Impl_no_alloc0@U?$_Callable_obj@V<lambda361>@?A0xe9eda812@@$0A@@tr1@std@@X@tr1@std@@UEAAXXZ 000000018000eed0 f i UnityBuildCore.cpp.obj
 0001:0000ded0       ?_Do_call@?$_Impl_no_alloc0@U?$_Callable_obj@V<lambda269>@?A0xe9eda812@@$0A@@tr1@std@@X@tr1@std@@UEAAXXZ 000000018000eed0 f i UnityBuildCore.cpp.obj
 0001:0000ded0       ?_Do_call@?$_Impl_no_alloc0@U?$_Callable_obj@V<lambda248>@?A0xe9eda812@@$0A@@tr1@std@@X@tr1@std@@UEAAXXZ 000000018000eed0 f i UnityBuildCore.cpp.obj
 0001:0000ded0       ?_Do_call@?$_Impl_no_alloc0@U?$_Callable_obj@V<lambda44>@?A0xe9eda812@@$0A@@tr1@std@@X@tr1@std@@UEAAXXZ 000000018000eed0 f i UnityBuildCore.cpp.obj
 0001:0000ded0       ?_Do_call@?$_Impl_no_alloc0@U?$_Callable_obj@V<lambda17>@?A0xe9eda812@@$0A@@tr1@std@@X@tr1@std@@UEAAXXZ 000000018000eed0 f i UnityBuildCore.cpp.obj
 0001:0000ded0       ?_Do_call@?$_Impl_no_alloc0@U?$_Callable_obj@V<lambda288>@?A0xe9eda812@@$0A@@tr1@std@@X@tr1@std@@UEAAXXZ 000000018000eed0 f i UnityBuildCore.cpp.obj
 0001:0000ded0       ?_Do_call@?$_Impl_no_alloc0@U?$_Callable_obj@V<lambda333>@?A0xe9eda812@@$0A@@tr1@std@@X@tr1@std@@UEAAXXZ 000000018000eed0 f i UnityBuildCore.cpp.obj
 0001:0000ded0       ?SetUpdateState@TStrings@@UEAAX_N@Z 000000018000eed0 f i UnityBuildCore.cpp.obj
 0001:0000ded0       old_keyfile_warning        000000018000eed0 f i UnityBuildCore.cpp.obj
 0001:0000ded0       ?_Do_call@?$_Impl_no_alloc0@U?$_Callable_obj@V<lambda38>@?A0xe9eda812@@$0A@@tr1@std@@X@tr1@std@@UEAAXXZ 000000018000eed0 f i UnityBuildCore.cpp.obj
 0001:0000ded0       ?_Do_call@?$_Impl_no_alloc0@U?$_Callable_obj@V<lambda137>@?A0xe9eda812@@$0A@@tr1@std@@X@tr1@std@@UEAAXXZ 000000018000eed0 f i UnityBuildCore.cpp.obj
 0001:0000ded0       ?DelimitReplacement@TLocalCustomCommand@@MEAAXAEAVUnicodeString@@_W@Z 000000018000eed0 f i UnityBuildCore.cpp.obj
 0001:0000ded0       ?UpdateFromMain@TSFTPFileSystem@@UEAAXPEAVTCustomFileSystem@@@Z 000000018000eed0 f i UnityBuildCore.cpp.obj
 0001:0000ded0       ?CollectUsage@TFTPFileSystem@@UEAAXXZ 000000018000eed0 f i UnityBuildCore.cpp.obj
 0001:0000ded0       ?_Do_call@?$_Impl_no_alloc0@U?$_Callable_obj@V<lambda209>@?A0xe9eda812@@$0A@@tr1@std@@X@tr1@std@@UEAAXXZ 000000018000eed0 f i UnityBuildCore.cpp.obj
 0001:0000ded0       ?_Do_call@?$_Impl_no_alloc0@U?$_Callable_obj@V<lambda141>@?A0xe9eda812@@$0A@@tr1@std@@X@tr1@std@@UEAAXXZ 000000018000eed0 f i UnityBuildCore.cpp.obj
 0001:0000ded0       ?OnSend@CAsyncSocketEx@@UEAAXH@Z 000000018000eed0 f i UnityBuildFilezilla.cpp.obj
 0001:0000ded0       ?_Do_call@?$_Impl_no_alloc0@U?$_Callable_obj@V<lambda158>@?A0xe9eda812@@$0A@@tr1@std@@X@tr1@std@@UEAAXXZ 000000018000eed0 f i UnityBuildCore.cpp.obj
 0001:0000ded0       ?_Do_call@?$_Impl_no_alloc0@U?$_Callable_obj@V<lambda186>@?A0xe9eda812@@$0A@@tr1@std@@X@tr1@std@@UEAAXXZ 000000018000eed0 f i UnityBuildCore.cpp.obj
 0001:0000ded0       ??_VTinyLog@tinylog@@SAXPEAX0@Z 000000018000eed0 f i tinylog:TinyLog.cpp.obj
 0001:0000ded0       ?_Do_call@?$_Impl_no_alloc0@U?$_Callable_obj@V<lambda359>@?A0xe9eda812@@$0A@@tr1@std@@X@tr1@std@@UEAAXXZ 000000018000eed0 f i UnityBuildCore.cpp.obj
 0001:0000ded0       ?UpdateStaticUsage@TConfiguration@@UEAAXXZ 000000018000eed0 f i UnityBuildCore.cpp.obj
 0001:0000ded0       ?_Do_call@?$_Impl_no_alloc0@U?$_Callable_obj@V<lambda262>@?A0xe9eda812@@$0A@@tr1@std@@X@tr1@std@@UEAAXXZ 000000018000eed0 f i UnityBuildCore.cpp.obj
 0001:0000ded0       ?_Do_call@?$_Impl_no_alloc0@U?$_Callable_obj@V<lambda216>@?A0xe9eda812@@$0A@@tr1@std@@X@tr1@std@@UEAAXXZ 000000018000eed0 f i UnityBuildCore.cpp.obj
 0001:0000ded0       ?_Do_call@?$_Impl_no_alloc0@U?$_Callable_obj@V<lambda135>@?A0xe9eda812@@$0A@@tr1@std@@X@tr1@std@@UEAAXXZ 000000018000eed0 f i UnityBuildCore.cpp.obj
 0001:0000ded0       ?_Do_call@?$_Impl_no_alloc0@U?$_Callable_obj@V<lambda372>@?A0xe9eda812@@$0A@@tr1@std@@X@tr1@std@@UEAAXXZ 000000018000eed0 f i UnityBuildCore.cpp.obj
 0001:0000ded0       ?_Do_call@?$_Impl_no_alloc0@U?$_Callable_obj@V<lambda35>@?A0xe9eda812@@$0A@@tr1@std@@X@tr1@std@@UEAAXXZ 000000018000eed0 f i UnityBuildCore.cpp.obj
 0001:0000ded0       ?FileTransferProgress@TWebDAVFileSystem@@UEAAX_J0@Z 000000018000eed0 f i UnityBuildCore.cpp.obj
 0001:0000ded0       ?_Do_call@?$_Impl_no_alloc0@U?$_Callable_obj@V<lambda167>@?A0xe9eda812@@$0A@@tr1@std@@X@tr1@std@@UEAAXXZ 000000018000eed0 f i UnityBuildCore.cpp.obj
 0001:0000ded0       ?_Do_call@?$_Impl_no_alloc0@U?$_Callable_obj@V<lambda30>@?A0xe9eda812@@$0A@@tr1@std@@X@tr1@std@@UEAAXXZ 000000018000eed0 f i UnityBuildCore.cpp.obj
 0001:0000ded0       ?_Do_call@?$_Impl_no_alloc0@U?$_Callable_obj@V<lambda164>@?A0xe9eda812@@$0A@@tr1@std@@X@tr1@std@@UEAAXXZ 000000018000eed0 f i UnityBuildCore.cpp.obj
 0001:0000ded0       ?_Do_call@?$_Impl_no_alloc0@U?$_Callable_obj@V<lambda81>@?A0xe9eda812@@$0A@@tr1@std@@X@tr1@std@@UEAAXXZ 000000018000eed0 f i UnityBuildCore.cpp.obj
 0001:0000ded0       ?_Do_call@?$_Impl_no_alloc0@U?$_Callable_obj@V<lambda52>@?A0xe9eda812@@$0A@@tr1@std@@X@tr1@std@@UEAAXXZ 000000018000eed0 f i UnityBuildCore.cpp.obj
 0001:0000ded0       ?_Do_call@?$_Impl_no_alloc0@U?$_Callable_obj@V<lambda183>@?A0xe9eda812@@$0A@@tr1@std@@X@tr1@std@@UEAAXXZ 000000018000eed0 f i UnityBuildCore.cpp.obj
 0001:0000ded0       ?_Do_call@?$_Impl_no_alloc0@U?$_Callable_obj@V<lambda26>@?A0xe9eda812@@$0A@@tr1@std@@X@tr1@std@@UEAAXXZ 000000018000eed0 f i UnityBuildCore.cpp.obj
 0001:0000ded0       agent_cancel_query         000000018000eed0 f i putty:winpgntc.c.obj
 0001:0000ded0       ?_Do_call@?$_Impl_no_alloc0@U?$_Callable_obj@V<lambda265>@?A0xe9eda812@@$0A@@tr1@std@@X@tr1@std@@UEAAXXZ 000000018000eed0 f i UnityBuildCore.cpp.obj
 0001:0000ded0       ?_Do_call@?$_Impl_no_alloc0@U?$_Callable_obj@V<lambda303>@?A0xe9eda812@@$0A@@tr1@std@@X@tr1@std@@UEAAXXZ 000000018000eed0 f i UnityBuildCore.cpp.obj
 0001:0000ded0       ?_Do_call@?$_Impl_no_alloc0@U?$_Callable_obj@V<lambda80>@?A0xe9eda812@@$0A@@tr1@std@@X@tr1@std@@UEAAXXZ 000000018000eed0 f i UnityBuildCore.cpp.obj
 0001:0000ded0       ?_Do_call@?$_Impl_no_alloc0@U?$_Callable_obj@V<lambda131>@?A0xe9eda812@@$0A@@tr1@std@@X@tr1@std@@UEAAXXZ 000000018000eed0 f i UnityBuildCore.cpp.obj
 0001:0000ded0       ?LookupUsersGroups@TWebDAVFileSystem@@UEAAXXZ 000000018000eed0 f i UnityBuildCore.cpp.obj
 0001:0000ded0       ?_Do_call@?$_Impl_no_alloc0@U?$_Callable_obj@V<lambda320>@?A0xe9eda812@@$0A@@tr1@std@@X@tr1@std@@UEAAXXZ 000000018000eed0 f i UnityBuildCore.cpp.obj
 0001:0000ded0       ?_Do_call@?$_Impl_no_alloc0@U?$_Callable_obj@V<lambda327>@?A0xe9eda812@@$0A@@tr1@std@@X@tr1@std@@UEAAXXZ 000000018000eed0 f i UnityBuildCore.cpp.obj
 0001:0000ded0       ?_Do_call@?$_Impl_no_alloc0@U?$_Callable_obj@V<lambda133>@?A0xe9eda812@@$0A@@tr1@std@@X@tr1@std@@UEAAXXZ 000000018000eed0 f i UnityBuildCore.cpp.obj
 0001:0000ded0       ?OnClose@CAsyncSocketEx@@UEAAXH@Z 000000018000eed0 f i UnityBuildFilezilla.cpp.obj
 0001:0000ded0       ?_Do_call@?$_Impl_no_alloc0@U?$_Callable_obj@V<lambda143>@?A0xe9eda812@@$0A@@tr1@std@@X@tr1@std@@UEAAXXZ 000000018000eed0 f i UnityBuildCore.cpp.obj
 0001:0000ded0       ?_Do_call@?$_Impl_no_alloc0@U?$_Callable_obj@V<lambda40>@?A0xe9eda812@@$0A@@tr1@std@@X@tr1@std@@UEAAXXZ 000000018000eed0 f i UnityBuildCore.cpp.obj
 0001:0000ded0       ?_Do_call@?$_Impl_no_alloc0@U?$_Callable_obj@V<lambda48>@?A0xe9eda812@@$0A@@tr1@std@@X@tr1@std@@UEAAXXZ 000000018000eed0 f i UnityBuildCore.cpp.obj
 0001:0000ded0       ?_Do_call@?$_Impl_no_alloc0@U?$_Callable_obj@V<lambda250>@?A0xe9eda812@@$0A@@tr1@std@@X@tr1@std@@UEAAXXZ 000000018000eed0 f i UnityBuildCore.cpp.obj
 0001:0000ded0       ?_Do_call@?$_Impl_no_alloc0@U?$_Callable_obj@V<lambda59>@?A0xe9eda812@@$0A@@tr1@std@@X@tr1@std@@UEAAXXZ 000000018000eed0 f i UnityBuildCore.cpp.obj
 0001:0000ded0       ?_Do_call@?$_Impl_no_alloc0@U?$_Callable_obj@V<lambda230>@?A0xe9eda812@@$0A@@tr1@std@@X@tr1@std@@UEAAXXZ 000000018000eed0 f i UnityBuildCore.cpp.obj
 0001:0000ded0       ??3TinyLog@tinylog@@SAXPEAX0@Z 000000018000eed0 f i tinylog:TinyLog.cpp.obj
 0001:0000ded0       set_busy_status            000000018000eed0 f i UnityBuildCore.cpp.obj
 0001:0000ded0       engine_load_rdrand_int     000000018000eed0 f i libcrypto:eng_rdrand.c.obj
 0001:0000ded0       ?_Do_call@?$_Impl_no_alloc0@U?$_Callable_obj@V<lambda146>@?A0xe9eda812@@$0A@@tr1@std@@X@tr1@std@@UEAAXXZ 000000018000eed0 f i UnityBuildCore.cpp.obj
 0001:0000ded0       ?_Do_call@?$_Impl_no_alloc0@U?$_Callable_obj@V<lambda339>@?A0xe9eda812@@$0A@@tr1@std@@X@tr1@std@@UEAAXXZ 000000018000eed0 f i UnityBuildCore.cpp.obj
 0001:0000ded0       ?_Do_call@?$_Impl_no_alloc0@U?$_Callable_obj@V<lambda273>@?A0xe9eda812@@$0A@@tr1@std@@X@tr1@std@@UEAAXXZ 000000018000eed0 f i UnityBuildCore.cpp.obj
 0001:0000ded0       ?_Do_call@?$_Impl_no_alloc0@U?$_Callable_obj@V<lambda19>@?A0xe9eda812@@$0A@@tr1@std@@X@tr1@std@@UEAAXXZ 000000018000eed0 f i UnityBuildCore.cpp.obj
 0001:0000ded0       ?_Do_call@?$_Impl_no_alloc0@U?$_Callable_obj@V<lambda232>@?A0xe9eda812@@$0A@@tr1@std@@X@tr1@std@@UEAAXXZ 000000018000eed0 f i UnityBuildCore.cpp.obj
 0001:0000ded0       ?_Do_call@?$_Impl_no_alloc0@U?$_Callable_obj@V<lambda142>@?A0xe9eda812@@$0A@@tr1@std@@X@tr1@std@@UEAAXXZ 000000018000eed0 f i UnityBuildCore.cpp.obj
 0001:0000ded0       ?_Do_call@?$_Impl_no_alloc0@U?$_Callable_obj@V<lambda42>@?A0xe9eda812@@$0A@@tr1@std@@X@tr1@std@@UEAAXXZ 000000018000eed0 f i UnityBuildCore.cpp.obj
 0001:0000ded0       ?_Do_call@?$_Impl_no_alloc0@U?$_Callable_obj@V<lambda296>@?A0xe9eda812@@$0A@@tr1@std@@X@tr1@std@@UEAAXXZ 000000018000eed0 f i UnityBuildCore.cpp.obj
 0001:0000ded0       ?_Do_call@?$_Impl_no_alloc0@U?$_Callable_obj@V<lambda241>@?A0xe9eda812@@$0A@@tr1@std@@X@tr1@std@@UEAAXXZ 000000018000eed0 f i UnityBuildCore.cpp.obj
 0001:0000ded0       ?_Do_call@?$_Impl_no_alloc0@U?$_Callable_obj@V<lambda84>@?A0xe9eda812@@$0A@@tr1@std@@X@tr1@std@@UEAAXXZ 000000018000eed0 f i UnityBuildCore.cpp.obj
 0001:0000ded0       ?OnReceive@CAsyncSocketEx@@UEAAXH@Z 000000018000eed0 f i UnityBuildFilezilla.cpp.obj
 0001:0000ded0       ?TermExtensionModule@@YAXXZ 000000018000eed0 f i UnityBuildFilezilla.cpp.obj
 0001:0000ded0       ??3TObject@@SAXPEAX0@Z     000000018000eed0 f i UnityBuildCore.cpp.obj
 0001:0000ded0       ?_Do_call@?$_Impl_no_alloc0@U?$_Callable_obj@V<lambda222>@?A0xe9eda812@@$0A@@tr1@std@@X@tr1@std@@UEAAXXZ 000000018000eed0 f i UnityBuildCore.cpp.obj
 0001:0000ded0       ?_Do_call@?$_Impl_no_alloc0@U?$_Callable_obj@V<lambda129>@?A0xe9eda812@@$0A@@tr1@std@@X@tr1@std@@UEAAXXZ 000000018000eed0 f i UnityBuildCore.cpp.obj
 0001:0000ded0       ?AnnounceFileListOperation@TSFTPFileSystem@@UEAAXXZ 000000018000eed0 f i UnityBuildCore.cpp.obj
 0001:0000ded0       ?_Do_call@?$_Impl_no_alloc0@U?$_Callable_obj@V<lambda28>@?A0xe9eda812@@$0A@@tr1@std@@X@tr1@std@@UEAAXXZ 000000018000eed0 f i UnityBuildCore.cpp.obj
 0001:0000ded0       ?_Do_call@?$_Impl_no_alloc0@U?$_Callable_obj@V<lambda22>@?A0xe9eda812@@$0A@@tr1@std@@X@tr1@std@@UEAAXXZ 000000018000eed0 f i UnityBuildCore.cpp.obj
 0001:0000ded0       ?_Do_call@?$_Impl_no_alloc0@U?$_Callable_obj@V<lambda179>@?A0xe9eda812@@$0A@@tr1@std@@X@tr1@std@@UEAAXXZ 000000018000eed0 f i UnityBuildCore.cpp.obj
 0001:0000ded0       platform_get_x11_auth      000000018000eed0 f i UnityBuildCore.cpp.obj
 0001:0000ded0       ?_Do_call@?$_Impl_no_alloc0@U?$_Callable_obj@V<lambda336>@?A0xe9eda812@@$0A@@tr1@std@@X@tr1@std@@UEAAXXZ 000000018000eed0 f i UnityBuildCore.cpp.obj
 0001:0000ded0       ?_Do_call@?$_Impl_no_alloc0@U?$_Callable_obj@V<lambda263>@?A0xe9eda812@@$0A@@tr1@std@@X@tr1@std@@UEAAXXZ 000000018000eed0 f i UnityBuildCore.cpp.obj
 0001:0000ded0       ?_Do_call@?$_Impl_no_alloc0@U?$_Callable_obj@V<lambda178>@?A0xe9eda812@@$0A@@tr1@std@@X@tr1@std@@UEAAXXZ 000000018000eed0 f i UnityBuildCore.cpp.obj
 0001:0000ded0       ?OnAccept@CAsyncSocketEx@@UEAAXH@Z 000000018000eed0 f i UnityBuildFilezilla.cpp.obj
 0001:0000ded0       ?_Do_call@?$_Impl_no_alloc0@U?$_Callable_obj@V<lambda107>@?A0xe9eda812@@$0A@@tr1@std@@X@tr1@std@@UEAAXXZ 000000018000eed0 f i UnityBuildCore.cpp.obj
 0001:0000ded0       ?_Do_call@?$_Impl_no_alloc0@U?$_Callable_obj@V<lambda285>@?A0xe9eda812@@$0A@@tr1@std@@X@tr1@std@@UEAAXXZ 000000018000eed0 f i UnityBuildCore.cpp.obj
 0001:0000ded0       ?_Do_call@?$_Impl_no_alloc0@U?$_Callable_obj@V<lambda177>@?A0xe9eda812@@$0A@@tr1@std@@X@tr1@std@@UEAAXXZ 000000018000eed0 f i UnityBuildCore.cpp.obj
 0001:0000ded0       ?ReadSymlink@TWebDAVFileSystem@@UEAAXPEAVTRemoteFile@@AEAPEAV2@@Z 000000018000eed0 f i UnityBuildCore.cpp.obj
 0001:0000ded0       ?_Do_call@?$_Impl_no_alloc0@U?$_Callable_obj@V<lambda340>@?A0xe9eda812@@$0A@@tr1@std@@X@tr1@std@@UEAAXXZ 000000018000eed0 f i UnityBuildCore.cpp.obj
 0001:0000ded0       ?_Do_call@?$_Impl_no_alloc0@U?$_Callable_obj@V<lambda145>@?A0xe9eda812@@$0A@@tr1@std@@X@tr1@std@@UEAAXXZ 000000018000eed0 f i UnityBuildCore.cpp.obj
 0001:0000ded0       ?_Do_call@?$_Impl_no_alloc0@U?$_Callable_obj@V<lambda211>@?A0xe9eda812@@$0A@@tr1@std@@X@tr1@std@@UEAAXXZ 000000018000eed0 f i UnityBuildCore.cpp.obj
 0001:0000ded0       pinger_free                000000018000eed0 f i UnityBuildCore.cpp.obj
 0001:0000ded0       ?Idle@TWebDAVFileSystem@@UEAAXXZ 000000018000eed0 f i UnityBuildCore.cpp.obj
 0001:0000ded0       ?_Do_call@?$_Impl_no_alloc0@U?$_Callable_obj@V<lambda32>@?A0xe9eda812@@$0A@@tr1@std@@X@tr1@std@@UEAAXXZ 000000018000eed0 f i UnityBuildCore.cpp.obj
 0001:0000ded0       ?FileTransferProgress@TSFTPFileSystem@@UEAAX_J0@Z 000000018000eed0 f i UnityBuildCore.cpp.obj
 0001:0000ded0       ?OnConnect@CAsyncSocketEx@@UEAAXH@Z 000000018000eed0 f i UnityBuildFilezilla.cpp.obj
 0001:0000ded0       comp_zlib_cleanup_int      000000018000eed0 f i libcrypto:c_zlib.c.obj
 0001:0000ded0       ?_Do_call@?$_Impl_no_alloc0@U?$_Callable_obj@V<lambda366>@?A0xe9eda812@@$0A@@tr1@std@@X@tr1@std@@UEAAXXZ 000000018000eed0 f i UnityBuildCore.cpp.obj
 0001:0000ded0       ?ProgressUpdated@TQueueItem@@UEAAXXZ 000000018000eed0 f i UnityBuildCore.cpp.obj
 0001:0000ded0       ?_Do_call@?$_Impl_no_alloc0@U?$_Callable_obj@V<lambda61>@?A0xe9eda812@@$0A@@tr1@std@@X@tr1@std@@UEAAXXZ 000000018000eed0 f i UnityBuildCore.cpp.obj
 0001:0000ded0       ?_Do_call@?$_Impl_no_alloc0@U?$_Callable_obj@V<lambda267>@?A0xe9eda812@@$0A@@tr1@std@@X@tr1@std@@UEAAXXZ 000000018000eed0 f i UnityBuildCore.cpp.obj
 0001:0000ded0       ?_Do_call@?$_Impl_no_alloc0@U?$_Callable_obj@V<lambda196>@?A0xe9eda812@@$0A@@tr1@std@@X@tr1@std@@UEAAXXZ 000000018000eed0 f i UnityBuildCore.cpp.obj
 0001:0000ded0       ?_Do_call@?$_Impl_no_alloc0@U?$_Callable_obj@V<lambda175>@?A0xe9eda812@@$0A@@tr1@std@@X@tr1@std@@UEAAXXZ 000000018000eed0 f i UnityBuildCore.cpp.obj
 0001:0000ded0       ?_Do_call@?$_Impl_no_alloc0@U?$_Callable_obj@V<lambda115>@?A0xe9eda812@@$0A@@tr1@std@@X@tr1@std@@UEAAXXZ 000000018000eed0 f i UnityBuildCore.cpp.obj
 0001:0000ded0       ?Terminate@TSimpleThread@@UEAAXXZ 000000018000eed0 f i UnityBuildCore.cpp.obj
 0001:0000ded0       ?FileTransferProgress@TSCPFileSystem@@UEAAX_J0@Z 000000018000eed0 f i UnityBuildCore.cpp.obj
 0001:0000ded0       ?_Do_call@?$_Impl_no_alloc0@U?$_Callable_obj@V<lambda205>@?A0xe9eda812@@$0A@@tr1@std@@X@tr1@std@@UEAAXXZ 000000018000eed0 f i UnityBuildCore.cpp.obj
 0001:0000ded0       ?_Do_call@?$_Impl_no_alloc0@U?$_Callable_obj@V<lambda332>@?A0xe9eda812@@$0A@@tr1@std@@X@tr1@std@@UEAAXXZ 000000018000eed0 f i UnityBuildCore.cpp.obj
 0001:0000ded0       ?_Do_call@?$_Impl_no_alloc0@U?$_Callable_obj@V<lambda111>@?A0xe9eda812@@$0A@@tr1@std@@X@tr1@std@@UEAAXXZ 000000018000eed0 f i UnityBuildCore.cpp.obj
 0001:0000ded0       ?Flush@THierarchicalStorage@@UEAAXXZ 000000018000eed0 f i UnityBuildCore.cpp.obj
 0001:0000ded0       ??3@YAXPEAX0@Z             000000018000eed0 f i UnityBuildCore.cpp.obj
 0001:0000ded0       ?AnnounceFileListOperation@TWebDAVFileSystem@@UEAAXXZ 000000018000eed0 f i UnityBuildCore.cpp.obj
 0001:0000ded0       ?_Do_call@?$_Impl_no_alloc0@U?$_Callable_obj@V<lambda46>@?A0xe9eda812@@$0A@@tr1@std@@X@tr1@std@@UEAAXXZ 000000018000eed0 f i UnityBuildCore.cpp.obj
 0001:0000ded0       ?GetSupportedChecksumAlgs@TSCPFileSystem@@UEAAXPEAVTStrings@@@Z 000000018000eed0 f i UnityBuildCore.cpp.obj
 0001:0000ded0       ?_Do_call@?$_Impl_no_alloc0@U?$_Callable_obj@V<lambda228>@?A0xe9eda812@@$0A@@tr1@std@@X@tr1@std@@UEAAXXZ 000000018000eed0 f i UnityBuildCore.cpp.obj
 0001:0000ded0       ?_Do_call@?$_Impl_no_alloc0@U?$_Callable_obj@V<lambda147>@?A0xe9eda812@@$0A@@tr1@std@@X@tr1@std@@UEAAXXZ 000000018000eed0 f i UnityBuildCore.cpp.obj
 0001:0000ded0       ?GetSupportedChecksumAlgs@TWebDAVFileSystem@@UEAAXPEAVTStrings@@@Z 000000018000eed0 f i UnityBuildCore.cpp.obj
 0001:0000ded0       ?_Do_call@?$_Impl_no_alloc0@U?$_Callable_obj@V<lambda119>@?A0xe9eda812@@$0A@@tr1@std@@X@tr1@std@@UEAAXXZ 000000018000eed0 f i UnityBuildCore.cpp.obj
 0001:0000ded4       ?_Target_type@?$_Impl_no_alloc0@U?$_Callable_obj@V<lambda275>@?A0xe9eda812@@$0A@@tr1@std@@X@tr1@std@@UEBAAEBVtype_info@@XZ 000000018000eed4 f i UnityBuildCore.cpp.obj
 0001:0000dedc       ?_Copy@?$_Impl_no_alloc0@U?$_Callable_obj@V<lambda275>@?A0xe9eda812@@$0A@@tr1@std@@X@tr1@std@@UEAAPEAV?$_Impl_base0@X@23@PEAX@Z 000000018000eedc f i UnityBuildCore.cpp.obj
 0001:0000df48       ?_Target_type@?$_Impl_no_alloc0@U?$_Callable_obj@V<lambda276>@?A0xe9eda812@@$0A@@tr1@std@@X@tr1@std@@UEBAAEBVtype_info@@XZ 000000018000ef48 f i UnityBuildCore.cpp.obj
 0001:0000df50       ?_Copy@?$_Impl_no_alloc0@U?$_Callable_obj@V<lambda276>@?A0xe9eda812@@$0A@@tr1@std@@X@tr1@std@@UEAAPEAV?$_Impl_base0@X@23@PEAX@Z 000000018000ef50 f i UnityBuildCore.cpp.obj
 0001:0000dfcc       ?_Target_type@?$_Impl_no_alloc0@U?$_Callable_obj@V<lambda277>@?A0xe9eda812@@$0A@@tr1@std@@X@tr1@std@@UEBAAEBVtype_info@@XZ 000000018000efcc f i UnityBuildCore.cpp.obj
 0001:0000dfd4       ?_Copy@?$_Impl_no_alloc0@U?$_Callable_obj@V<lambda277>@?A0xe9eda812@@$0A@@tr1@std@@X@tr1@std@@UEAAPEAV?$_Impl_base0@X@23@PEAX@Z 000000018000efd4 f i UnityBuildCore.cpp.obj
 0001:0000e058       ?_Target_type@?$_Impl_no_alloc0@U?$_Callable_obj@V<lambda278>@?A0xe9eda812@@$0A@@tr1@std@@X@tr1@std@@UEBAAEBVtype_info@@XZ 000000018000f058 f i UnityBuildCore.cpp.obj
 0001:0000e060       ?_Copy@?$_Impl_no_alloc0@U?$_Callable_obj@V<lambda278>@?A0xe9eda812@@$0A@@tr1@std@@X@tr1@std@@UEAAPEAV?$_Impl_base0@X@23@PEAX@Z 000000018000f060 f i UnityBuildCore.cpp.obj
 0001:0000e0cc       ?_Target_type@?$_Impl_no_alloc0@U?$_Callable_obj@V<lambda279>@?A0xe9eda812@@$0A@@tr1@std@@X@tr1@std@@UEBAAEBVtype_info@@XZ 000000018000f0cc f i UnityBuildCore.cpp.obj
 0001:0000e0d4       ?_Copy@?$_Impl_no_alloc0@U?$_Callable_obj@V<lambda279>@?A0xe9eda812@@$0A@@tr1@std@@X@tr1@std@@UEAAPEAV?$_Impl_base0@X@23@PEAX@Z 000000018000f0d4 f i UnityBuildCore.cpp.obj
 0001:0000e140       ?_Target_type@?$_Impl_no_alloc0@U?$_Callable_obj@V<lambda280>@?A0xe9eda812@@$0A@@tr1@std@@X@tr1@std@@UEBAAEBVtype_info@@XZ 000000018000f140 f i UnityBuildCore.cpp.obj
 0001:0000e148       ?_Copy@?$_Impl_no_alloc0@U?$_Callable_obj@V<lambda280>@?A0xe9eda812@@$0A@@tr1@std@@X@tr1@std@@UEAAPEAV?$_Impl_base0@X@23@PEAX@Z 000000018000f148 f i UnityBuildCore.cpp.obj
 0001:0000e1c4       ?_Target_type@?$_Impl_no_alloc0@U?$_Callable_obj@V<lambda281>@?A0xe9eda812@@$0A@@tr1@std@@X@tr1@std@@UEBAAEBVtype_info@@XZ 000000018000f1c4 f i UnityBuildCore.cpp.obj
 0001:0000e1cc       ?_Copy@?$_Impl_no_alloc0@U?$_Callable_obj@V<lambda281>@?A0xe9eda812@@$0A@@tr1@std@@X@tr1@std@@UEAAPEAV?$_Impl_base0@X@23@PEAX@Z 000000018000f1cc f i UnityBuildCore.cpp.obj
 0001:0000e250       ?_Target_type@?$_Impl_no_alloc0@U?$_Callable_obj@V<lambda282>@?A0xe9eda812@@$0A@@tr1@std@@X@tr1@std@@UEBAAEBVtype_info@@XZ 000000018000f250 f i UnityBuildCore.cpp.obj
 0001:0000e258       ?_Copy@?$_Impl_no_alloc0@U?$_Callable_obj@V<lambda282>@?A0xe9eda812@@$0A@@tr1@std@@X@tr1@std@@UEAAPEAV?$_Impl_base0@X@23@PEAX@Z 000000018000f258 f i UnityBuildCore.cpp.obj
 0001:0000e2dc       ?_Target_type@?$_Impl_no_alloc0@U?$_Callable_obj@V<lambda284>@?A0xe9eda812@@$0A@@tr1@std@@X@tr1@std@@UEBAAEBVtype_info@@XZ 000000018000f2dc f i UnityBuildCore.cpp.obj
 0001:0000e2e4       ?_Copy@?$_Impl_no_alloc0@U?$_Callable_obj@V<lambda284>@?A0xe9eda812@@$0A@@tr1@std@@X@tr1@std@@UEAAPEAV?$_Impl_base0@X@23@PEAX@Z 000000018000f2e4 f i UnityBuildCore.cpp.obj
 0001:0000e350       ?_Target_type@?$_Impl_no_alloc0@U?$_Callable_obj@V<lambda285>@?A0xe9eda812@@$0A@@tr1@std@@X@tr1@std@@UEBAAEBVtype_info@@XZ 000000018000f350 f i UnityBuildCore.cpp.obj
 0001:0000e358       ?_Copy@?$_Impl_no_alloc0@U?$_Callable_obj@V<lambda285>@?A0xe9eda812@@$0A@@tr1@std@@X@tr1@std@@UEAAPEAV?$_Impl_base0@X@23@PEAX@Z 000000018000f358 f i UnityBuildCore.cpp.obj
 0001:0000e3c4       ?_Target_type@?$_Impl_no_alloc0@U?$_Callable_obj@V<lambda286>@?A0xe9eda812@@$0A@@tr1@std@@X@tr1@std@@UEBAAEBVtype_info@@XZ 000000018000f3c4 f i UnityBuildCore.cpp.obj
 0001:0000e3cc       ?_Copy@?$_Impl_no_alloc0@U?$_Callable_obj@V<lambda286>@?A0xe9eda812@@$0A@@tr1@std@@X@tr1@std@@UEAAPEAV?$_Impl_base0@X@23@PEAX@Z 000000018000f3cc f i UnityBuildCore.cpp.obj
 0001:0000e448       ?_Target_type@?$_Impl_no_alloc0@U?$_Callable_obj@V<lambda288>@?A0xe9eda812@@$0A@@tr1@std@@X@tr1@std@@UEBAAEBVtype_info@@XZ 000000018000f448 f i UnityBuildCore.cpp.obj
 0001:0000e450       ?_Copy@?$_Impl_no_alloc0@U?$_Callable_obj@V<lambda288>@?A0xe9eda812@@$0A@@tr1@std@@X@tr1@std@@UEAAPEAV?$_Impl_base0@X@23@PEAX@Z 000000018000f450 f i UnityBuildCore.cpp.obj
 0001:0000e4bc       ?_Target_type@?$_Impl_no_alloc0@U?$_Callable_obj@V<lambda289>@?A0xe9eda812@@$0A@@tr1@std@@X@tr1@std@@UEBAAEBVtype_info@@XZ 000000018000f4bc f i UnityBuildCore.cpp.obj
 0001:0000e4c4       ?_Copy@?$_Impl_no_alloc0@U?$_Callable_obj@V<lambda289>@?A0xe9eda812@@$0A@@tr1@std@@X@tr1@std@@UEAAPEAV?$_Impl_base0@X@23@PEAX@Z 000000018000f4c4 f i UnityBuildCore.cpp.obj
 0001:0000e530       ?_Target_type@?$_Impl_no_alloc0@U?$_Callable_obj@V<lambda290>@?A0xe9eda812@@$0A@@tr1@std@@X@tr1@std@@UEBAAEBVtype_info@@XZ 000000018000f530 f i UnityBuildCore.cpp.obj
 0001:0000e538       ?_Copy@?$_Impl_no_alloc0@U?$_Callable_obj@V<lambda290>@?A0xe9eda812@@$0A@@tr1@std@@X@tr1@std@@UEAAPEAV?$_Impl_base0@X@23@PEAX@Z 000000018000f538 f i UnityBuildCore.cpp.obj
 0001:0000e5a4       ?_Target_type@?$_Impl_no_alloc0@U?$_Callable_obj@V<lambda291>@?A0xe9eda812@@$0A@@tr1@std@@X@tr1@std@@UEBAAEBVtype_info@@XZ 000000018000f5a4 f i UnityBuildCore.cpp.obj
 0001:0000e5ac       ?_Copy@?$_Impl_no_alloc0@U?$_Callable_obj@V<lambda291>@?A0xe9eda812@@$0A@@tr1@std@@X@tr1@std@@UEAAPEAV?$_Impl_base0@X@23@PEAX@Z 000000018000f5ac f i UnityBuildCore.cpp.obj
 0001:0000e628       ?_Target_type@?$_Impl_no_alloc0@U?$_Callable_obj@V<lambda293>@?A0xe9eda812@@$0A@@tr1@std@@X@tr1@std@@UEBAAEBVtype_info@@XZ 000000018000f628 f i UnityBuildCore.cpp.obj
 0001:0000e630       ?_Copy@?$_Impl_no_alloc0@U?$_Callable_obj@V<lambda293>@?A0xe9eda812@@$0A@@tr1@std@@X@tr1@std@@UEAAPEAV?$_Impl_base0@X@23@PEAX@Z 000000018000f630 f i UnityBuildCore.cpp.obj
 0001:0000e69c       ?_Target_type@?$_Impl_no_alloc0@U?$_Callable_obj@V<lambda294>@?A0xe9eda812@@$0A@@tr1@std@@X@tr1@std@@UEBAAEBVtype_info@@XZ 000000018000f69c f i UnityBuildCore.cpp.obj
 0001:0000e6a4       ?_Get@?$_Impl_no_alloc0@U?$_Callable_obj@V<lambda143>@?A0xe9eda812@@$0A@@tr1@std@@X@tr1@std@@EEBAPEBXXZ 000000018000f6a4 f i UnityBuildCore.cpp.obj
 0001:0000e6a4       ?_Get@?$_Impl_no_alloc0@U?$_Callable_obj@V<lambda187>@?A0xe9eda812@@$0A@@tr1@std@@X@tr1@std@@EEBAPEBXXZ 000000018000f6a4 f i UnityBuildCore.cpp.obj
 0001:0000e6a4       ?_Get@?$_Impl_no_alloc0@U?$_Callable_obj@V<lambda44>@?A0xe9eda812@@$0A@@tr1@std@@X@tr1@std@@EEBAPEBXXZ 000000018000f6a4 f i UnityBuildCore.cpp.obj
 0001:0000e6a4       ?_Get@?$_Impl_no_alloc0@U?$_Callable_obj@V<lambda61>@?A0xe9eda812@@$0A@@tr1@std@@X@tr1@std@@EEBAPEBXXZ 000000018000f6a4 f i UnityBuildCore.cpp.obj
 0001:0000e6a4       ?_Get@?$_Impl_no_alloc0@U?$_Callable_obj@V<lambda82>@?A0xe9eda812@@$0A@@tr1@std@@X@tr1@std@@EEBAPEBXXZ 000000018000f6a4 f i UnityBuildCore.cpp.obj
 0001:0000e6a4       ?_Get@?$_Impl_no_alloc0@U?$_Callable_obj@V<lambda352>@?A0xe9eda812@@$0A@@tr1@std@@X@tr1@std@@EEBAPEBXXZ 000000018000f6a4 f i UnityBuildCore.cpp.obj
 0001:0000e6a4       ?_Get@?$_Impl_no_alloc0@U?$_Callable_obj@V<lambda172>@?A0xe9eda812@@$0A@@tr1@std@@X@tr1@std@@EEBAPEBXXZ 000000018000f6a4 f i UnityBuildCore.cpp.obj
 0001:0000e6a4       ?_Get@?$_Impl_no_alloc0@U?$_Callable_obj@V<lambda343>@?A0xe9eda812@@$0A@@tr1@std@@X@tr1@std@@EEBAPEBXXZ 000000018000f6a4 f i UnityBuildCore.cpp.obj
 0001:0000e6a4       ?_Get@?$_Impl_no_alloc0@U?$_Callable_obj@V<lambda302>@?A0xe9eda812@@$0A@@tr1@std@@X@tr1@std@@EEBAPEBXXZ 000000018000f6a4 f i UnityBuildCore.cpp.obj
 0001:0000e6a4       ?_Get@?$_Impl_no_alloc0@U?$_Callable_obj@V<lambda321>@?A0xe9eda812@@$0A@@tr1@std@@X@tr1@std@@EEBAPEBXXZ 000000018000f6a4 f i UnityBuildCore.cpp.obj
 0001:0000e6a4       ?_Get@?$_Impl_no_alloc0@U?$_Callable_obj@V<lambda273>@?A0xe9eda812@@$0A@@tr1@std@@X@tr1@std@@EEBAPEBXXZ 000000018000f6a4 f i UnityBuildCore.cpp.obj
 0001:0000e6a4       ?_Get@?$_Impl_no_alloc0@U?$_Callable_obj@V<lambda102>@?A0xe9eda812@@$0A@@tr1@std@@X@tr1@std@@EEBAPEBXXZ 000000018000f6a4 f i UnityBuildCore.cpp.obj
 0001:0000e6a4       ?_Get@?$_Impl_no_alloc0@U?$_Callable_obj@V<lambda293>@?A0xe9eda812@@$0A@@tr1@std@@X@tr1@std@@EEBAPEBXXZ 000000018000f6a4 f i UnityBuildCore.cpp.obj
 0001:0000e6a4       ?_Get@?$_Impl_no_alloc0@U?$_Callable_obj@V<lambda222>@?A0xe9eda812@@$0A@@tr1@std@@X@tr1@std@@EEBAPEBXXZ 000000018000f6a4 f i UnityBuildCore.cpp.obj
 0001:0000e6a4       ?_Get@?$_Impl_no_alloc0@U?$_Callable_obj@V<lambda269>@?A0xe9eda812@@$0A@@tr1@std@@X@tr1@std@@EEBAPEBXXZ 000000018000f6a4 f i UnityBuildCore.cpp.obj
 0001:0000e6a4       ?_Get@?$_Impl_no_alloc0@U?$_Callable_obj@V<lambda274>@?A0xe9eda812@@$0A@@tr1@std@@X@tr1@std@@EEBAPEBXXZ 000000018000f6a4 f i UnityBuildCore.cpp.obj
 0001:0000e6a4       ?_Get@?$_Impl_no_alloc0@U?$_Callable_obj@V<lambda246>@?A0xe9eda812@@$0A@@tr1@std@@X@tr1@std@@EEBAPEBXXZ 000000018000f6a4 f i UnityBuildCore.cpp.obj
 0001:0000e6a4       ?_Get@?$_Impl_no_alloc0@U?$_Callable_obj@V<lambda254>@?A0xe9eda812@@$0A@@tr1@std@@X@tr1@std@@EEBAPEBXXZ 000000018000f6a4 f i UnityBuildCore.cpp.obj
 0001:0000e6a4       X509_get_serialNumber      000000018000f6a4 f i libcrypto:x509_cmp.c.obj
 0001:0000e6a4       ?_Get@?$_Impl_no_alloc0@U?$_Callable_obj@V<lambda228>@?A0xe9eda812@@$0A@@tr1@std@@X@tr1@std@@EEBAPEBXXZ 000000018000f6a4 f i UnityBuildCore.cpp.obj
 0001:0000e6a4       ?_Get@?$_Impl_no_alloc0@U?$_Callable_obj@V<lambda327>@?A0xe9eda812@@$0A@@tr1@std@@X@tr1@std@@EEBAPEBXXZ 000000018000f6a4 f i UnityBuildCore.cpp.obj
 0001:0000e6a4       ?_Get@?$_Impl_no_alloc0@U?$_Callable_obj@V<lambda359>@?A0xe9eda812@@$0A@@tr1@std@@X@tr1@std@@EEBAPEBXXZ 000000018000f6a4 f i UnityBuildCore.cpp.obj
 0001:0000e6a4       ?_Get@?$_Impl_no_alloc0@U?$_Callable_obj@V<lambda17>@?A0xe9eda812@@$0A@@tr1@std@@X@tr1@std@@EEBAPEBXXZ 000000018000f6a4 f i UnityBuildCore.cpp.obj
 0001:0000e6a4       ?_Get@?$_Impl_no_alloc0@U?$_Callable_obj@V<lambda308>@?A0xe9eda812@@$0A@@tr1@std@@X@tr1@std@@EEBAPEBXXZ 000000018000f6a4 f i UnityBuildCore.cpp.obj
 0001:0000e6a4       ?_Get@?$_Impl_no_alloc0@U?$_Callable_obj@V<lambda214>@?A0xe9eda812@@$0A@@tr1@std@@X@tr1@std@@EEBAPEBXXZ 000000018000f6a4 f i UnityBuildCore.cpp.obj
 0001:0000e6a4       ?_Get@?$_Impl_no_alloc0@U?$_Callable_obj@V<lambda333>@?A0xe9eda812@@$0A@@tr1@std@@X@tr1@std@@EEBAPEBXXZ 000000018000f6a4 f i UnityBuildCore.cpp.obj
 0001:0000e6a4       ?_Get@?$_Impl_no_alloc0@U?$_Callable_obj@V<lambda280>@?A0xe9eda812@@$0A@@tr1@std@@X@tr1@std@@EEBAPEBXXZ 000000018000f6a4 f i UnityBuildCore.cpp.obj
 0001:0000e6a4       ?_Get@?$_Impl_no_alloc0@U?$_Callable_obj@V<lambda216>@?A0xe9eda812@@$0A@@tr1@std@@X@tr1@std@@EEBAPEBXXZ 000000018000f6a4 f i UnityBuildCore.cpp.obj
 0001:0000e6a4       ?_Get@?$_Impl_no_alloc0@U?$_Callable_obj@V<lambda131>@?A0xe9eda812@@$0A@@tr1@std@@X@tr1@std@@EEBAPEBXXZ 000000018000f6a4 f i UnityBuildCore.cpp.obj
 0001:0000e6a4       ?_Get@?$_Impl_no_alloc0@U?$_Callable_obj@V<lambda217>@?A0xe9eda812@@$0A@@tr1@std@@X@tr1@std@@EEBAPEBXXZ 000000018000f6a4 f i UnityBuildCore.cpp.obj
 0001:0000e6a4       ?_Get@?$_Impl_no_alloc0@U?$_Callable_obj@V<lambda188>@?A0xe9eda812@@$0A@@tr1@std@@X@tr1@std@@EEBAPEBXXZ 000000018000f6a4 f i UnityBuildCore.cpp.obj
 0001:0000e6a4       ?_Get@?$_Impl_no_alloc0@U?$_Callable_obj@V<lambda196>@?A0xe9eda812@@$0A@@tr1@std@@X@tr1@std@@EEBAPEBXXZ 000000018000f6a4 f i UnityBuildCore.cpp.obj
 0001:0000e6a4       ?_Get@?$_Impl_no_alloc0@U?$_Callable_obj@V<lambda195>@?A0xe9eda812@@$0A@@tr1@std@@X@tr1@std@@EEBAPEBXXZ 000000018000f6a4 f i UnityBuildCore.cpp.obj
 0001:0000e6a4       ?_Get@?$_Impl_no_alloc0@U?$_Callable_obj@V<lambda296>@?A0xe9eda812@@$0A@@tr1@std@@X@tr1@std@@EEBAPEBXXZ 000000018000f6a4 f i UnityBuildCore.cpp.obj
 0001:0000e6a4       ?_Get@?$_Impl_no_alloc0@U?$_Callable_obj@V<lambda167>@?A0xe9eda812@@$0A@@tr1@std@@X@tr1@std@@EEBAPEBXXZ 000000018000f6a4 f i UnityBuildCore.cpp.obj
 0001:0000e6a4       ?_Get@?$_Impl_no_alloc0@U?$_Callable_obj@V<lambda312>@?A0xe9eda812@@$0A@@tr1@std@@X@tr1@std@@EEBAPEBXXZ 000000018000f6a4 f i UnityBuildCore.cpp.obj
 0001:0000e6a4       ?_Get@?$_Impl_no_alloc0@U?$_Callable_obj@V<lambda24>@?A0xe9eda812@@$0A@@tr1@std@@X@tr1@std@@EEBAPEBXXZ 000000018000f6a4 f i UnityBuildCore.cpp.obj
 0001:0000e6a4       ?_Get@?$_Impl_no_alloc0@U?$_Callable_obj@V<lambda238>@?A0xe9eda812@@$0A@@tr1@std@@X@tr1@std@@EEBAPEBXXZ 000000018000f6a4 f i UnityBuildCore.cpp.obj
 0001:0000e6a4       ?_Get@?$_Impl_no_alloc0@U?$_Callable_obj@V<lambda146>@?A0xe9eda812@@$0A@@tr1@std@@X@tr1@std@@EEBAPEBXXZ 000000018000f6a4 f i UnityBuildCore.cpp.obj
 0001:0000e6a4       ?_Get@?$_Impl_no_alloc0@U?$_Callable_obj@V<lambda163>@?A0xe9eda812@@$0A@@tr1@std@@X@tr1@std@@EEBAPEBXXZ 000000018000f6a4 f i UnityBuildCore.cpp.obj
 0001:0000e6a4       ?_Get@?$_Impl_no_alloc0@U?$_Callable_obj@V<lambda108>@?A0xe9eda812@@$0A@@tr1@std@@X@tr1@std@@EEBAPEBXXZ 000000018000f6a4 f i UnityBuildCore.cpp.obj
 0001:0000e6a4       ?_Get@?$_Impl_no_alloc0@U?$_Callable_obj@V<lambda193>@?A0xe9eda812@@$0A@@tr1@std@@X@tr1@std@@EEBAPEBXXZ 000000018000f6a4 f i UnityBuildCore.cpp.obj
 0001:0000e6a4       ?_Get@?$_Impl_no_alloc0@U?$_Callable_obj@V<lambda31>@?A0xe9eda812@@$0A@@tr1@std@@X@tr1@std@@EEBAPEBXXZ 000000018000f6a4 f i UnityBuildCore.cpp.obj
 0001:0000e6a4       ?_Get@?$_Impl_no_alloc0@U?$_Callable_obj@V<lambda320>@?A0xe9eda812@@$0A@@tr1@std@@X@tr1@std@@EEBAPEBXXZ 000000018000f6a4 f i UnityBuildCore.cpp.obj
 0001:0000e6a4       ?_Get@?$_Impl_no_alloc0@U?$_Callable_obj@V<lambda165>@?A0xe9eda812@@$0A@@tr1@std@@X@tr1@std@@EEBAPEBXXZ 000000018000f6a4 f i UnityBuildCore.cpp.obj
 0001:0000e6a4       ?_Get@?$_Impl_no_alloc0@U?$_Callable_obj@V<lambda219>@?A0xe9eda812@@$0A@@tr1@std@@X@tr1@std@@EEBAPEBXXZ 000000018000f6a4 f i UnityBuildCore.cpp.obj
 0001:0000e6a4       ?_Get@?$_Impl_no_alloc0@U?$_Callable_obj@V<lambda330>@?A0xe9eda812@@$0A@@tr1@std@@X@tr1@std@@EEBAPEBXXZ 000000018000f6a4 f i UnityBuildCore.cpp.obj
 0001:0000e6a4       ?_Get@?$_Impl_no_alloc0@U?$_Callable_obj@V<lambda223>@?A0xe9eda812@@$0A@@tr1@std@@X@tr1@std@@EEBAPEBXXZ 000000018000f6a4 f i UnityBuildCore.cpp.obj
 0001:0000e6a4       ?_Get@?$_Impl_no_alloc0@U?$_Callable_obj@V<lambda372>@?A0xe9eda812@@$0A@@tr1@std@@X@tr1@std@@EEBAPEBXXZ 000000018000f6a4 f i UnityBuildCore.cpp.obj
 0001:0000e6a4       ?_Get@?$_Impl_no_alloc0@U?$_Callable_obj@V<lambda155>@?A0xe9eda812@@$0A@@tr1@std@@X@tr1@std@@EEBAPEBXXZ 000000018000f6a4 f i UnityBuildCore.cpp.obj
 0001:0000e6a4       ?_Get@?$_Impl_no_alloc0@U?$_Callable_obj@V<lambda162>@?A0xe9eda812@@$0A@@tr1@std@@X@tr1@std@@EEBAPEBXXZ 000000018000f6a4 f i UnityBuildCore.cpp.obj
 0001:0000e6a4       ?_Get@?$_Impl_no_alloc0@U?$_Callable_obj@V<lambda279>@?A0xe9eda812@@$0A@@tr1@std@@X@tr1@std@@EEBAPEBXXZ 000000018000f6a4 f i UnityBuildCore.cpp.obj
 0001:0000e6a4       ?_Get@?$_Impl_no_alloc0@U?$_Callable_obj@V<lambda257>@?A0xe9eda812@@$0A@@tr1@std@@X@tr1@std@@EEBAPEBXXZ 000000018000f6a4 f i UnityBuildCore.cpp.obj
 0001:0000e6a4       ?_Get@?$_Impl_no_alloc0@U?$_Callable_obj@V<lambda78>@?A0xe9eda812@@$0A@@tr1@std@@X@tr1@std@@EEBAPEBXXZ 000000018000f6a4 f i UnityBuildCore.cpp.obj
 0001:0000e6a4       ?_Get@?$_Impl_no_alloc0@U?$_Callable_obj@V<lambda204>@?A0xe9eda812@@$0A@@tr1@std@@X@tr1@std@@EEBAPEBXXZ 000000018000f6a4 f i UnityBuildCore.cpp.obj
 0001:0000e6a4       ?_Get@?$_Impl_no_alloc0@U?$_Callable_obj@V<lambda313>@?A0xe9eda812@@$0A@@tr1@std@@X@tr1@std@@EEBAPEBXXZ 000000018000f6a4 f i UnityBuildCore.cpp.obj
 0001:0000e6a4       ?_Get@?$_Impl_no_alloc0@U?$_Callable_obj@V<lambda93>@?A0xe9eda812@@$0A@@tr1@std@@X@tr1@std@@EEBAPEBXXZ 000000018000f6a4 f i UnityBuildCore.cpp.obj
 0001:0000e6a4       ?_Get@?$_Impl_no_alloc0@U?$_Callable_obj@V<lambda74>@?A0xe9eda812@@$0A@@tr1@std@@X@tr1@std@@EEBAPEBXXZ 000000018000f6a4 f i UnityBuildCore.cpp.obj
 0001:0000e6a4       ?_Get@?$_Impl_no_alloc0@U?$_Callable_obj@V<lambda55>@?A0xe9eda812@@$0A@@tr1@std@@X@tr1@std@@EEBAPEBXXZ 000000018000f6a4 f i UnityBuildCore.cpp.obj
 0001:0000e6a4       ?_Get@?$_Impl_no_alloc0@U?$_Callable_obj@V<lambda36>@?A0xe9eda812@@$0A@@tr1@std@@X@tr1@std@@EEBAPEBXXZ 000000018000f6a4 f i UnityBuildCore.cpp.obj
 0001:0000e6a4       ?_Get@?$_Impl_no_alloc0@U?$_Callable_obj@V<lambda300>@?A0xe9eda812@@$0A@@tr1@std@@X@tr1@std@@EEBAPEBXXZ 000000018000f6a4 f i UnityBuildCore.cpp.obj
 0001:0000e6a4       ?_Get@?$_Impl_no_alloc0@U?$_Callable_obj@V<lambda243>@?A0xe9eda812@@$0A@@tr1@std@@X@tr1@std@@EEBAPEBXXZ 000000018000f6a4 f i UnityBuildCore.cpp.obj
 0001:0000e6a4       ?_Get@?$_Impl_no_alloc0@U?$_Callable_obj@V<lambda289>@?A0xe9eda812@@$0A@@tr1@std@@X@tr1@std@@EEBAPEBXXZ 000000018000f6a4 f i UnityBuildCore.cpp.obj
 0001:0000e6a4       ?_Get@?$_Impl_no_alloc0@U?$_Callable_obj@V<lambda181>@?A0xe9eda812@@$0A@@tr1@std@@X@tr1@std@@EEBAPEBXXZ 000000018000f6a4 f i UnityBuildCore.cpp.obj
 0001:0000e6a4       ?_Get@?$_Impl_no_alloc0@U?$_Callable_obj@V<lambda164>@?A0xe9eda812@@$0A@@tr1@std@@X@tr1@std@@EEBAPEBXXZ 000000018000f6a4 f i UnityBuildCore.cpp.obj
 0001:0000e6a4       ?_Get@?$_Impl_no_alloc0@U?$_Callable_obj@V<lambda354>@?A0xe9eda812@@$0A@@tr1@std@@X@tr1@std@@EEBAPEBXXZ 000000018000f6a4 f i UnityBuildCore.cpp.obj
 0001:0000e6a4       ?_Get@?$_Impl_no_alloc0@U?$_Callable_obj@V<lambda200>@?A0xe9eda812@@$0A@@tr1@std@@X@tr1@std@@EEBAPEBXXZ 000000018000f6a4 f i UnityBuildCore.cpp.obj
 0001:0000e6a4       ?_Get@?$_Impl_no_alloc0@U?$_Callable_obj@V<lambda290>@?A0xe9eda812@@$0A@@tr1@std@@X@tr1@std@@EEBAPEBXXZ 000000018000f6a4 f i UnityBuildCore.cpp.obj
 0001:0000e6a4       ?_Get@?$_Impl_no_alloc0@U?$_Callable_obj@V<lambda158>@?A0xe9eda812@@$0A@@tr1@std@@X@tr1@std@@EEBAPEBXXZ 000000018000f6a4 f i UnityBuildCore.cpp.obj
 0001:0000e6a4       ?_Get@?$_Impl_no_alloc0@U?$_Callable_obj@V<lambda206>@?A0xe9eda812@@$0A@@tr1@std@@X@tr1@std@@EEBAPEBXXZ 000000018000f6a4 f i UnityBuildCore.cpp.obj
 0001:0000e6a4       ?_Get@?$_Impl_no_alloc0@U?$_Callable_obj@V<lambda225>@?A0xe9eda812@@$0A@@tr1@std@@X@tr1@std@@EEBAPEBXXZ 000000018000f6a4 f i UnityBuildCore.cpp.obj
 0001:0000e6a4       ?_Get@?$_Impl_no_alloc0@U?$_Callable_obj@V<lambda179>@?A0xe9eda812@@$0A@@tr1@std@@X@tr1@std@@EEBAPEBXXZ 000000018000f6a4 f i UnityBuildCore.cpp.obj
 0001:0000e6a4       ?_Get@?$_Impl_no_alloc0@U?$_Callable_obj@V<lambda194>@?A0xe9eda812@@$0A@@tr1@std@@X@tr1@std@@EEBAPEBXXZ 000000018000f6a4 f i UnityBuildCore.cpp.obj
 0001:0000e6a4       ?_Get@?$_Impl_no_alloc0@U?$_Callable_obj@V<lambda310>@?A0xe9eda812@@$0A@@tr1@std@@X@tr1@std@@EEBAPEBXXZ 000000018000f6a4 f i UnityBuildCore.cpp.obj
 0001:0000e6a4       ?_Get@?$_Impl_no_alloc0@U?$_Callable_obj@V<lambda40>@?A0xe9eda812@@$0A@@tr1@std@@X@tr1@std@@EEBAPEBXXZ 000000018000f6a4 f i UnityBuildCore.cpp.obj
 0001:0000e6a4       ?_Get@?$_Impl_no_alloc0@U?$_Callable_obj@V<lambda317>@?A0xe9eda812@@$0A@@tr1@std@@X@tr1@std@@EEBAPEBXXZ 000000018000f6a4 f i UnityBuildCore.cpp.obj
 0001:0000e6a4       ?_Get@?$_Impl_no_alloc0@U?$_Callable_obj@V<lambda12>@?A0xe9eda812@@$0A@@tr1@std@@X@tr1@std@@EEBAPEBXXZ 000000018000f6a4 f i UnityBuildCore.cpp.obj
 0001:0000e6a4       ?_Get@?$_Impl_no_alloc0@U?$_Callable_obj@V<lambda267>@?A0xe9eda812@@$0A@@tr1@std@@X@tr1@std@@EEBAPEBXXZ 000000018000f6a4 f i UnityBuildCore.cpp.obj
 0001:0000e6a4       ?_Get@?$_Impl_no_alloc0@U?$_Callable_obj@V<lambda338>@?A0xe9eda812@@$0A@@tr1@std@@X@tr1@std@@EEBAPEBXXZ 000000018000f6a4 f i UnityBuildCore.cpp.obj
 0001:0000e6a4       ?_Get@?$_Impl_no_alloc0@U?$_Callable_obj@V<lambda218>@?A0xe9eda812@@$0A@@tr1@std@@X@tr1@std@@EEBAPEBXXZ 000000018000f6a4 f i UnityBuildCore.cpp.obj
 0001:0000e6a4       ?_Get@?$_Impl_no_alloc0@U?$_Callable_obj@V<lambda263>@?A0xe9eda812@@$0A@@tr1@std@@X@tr1@std@@EEBAPEBXXZ 000000018000f6a4 f i UnityBuildCore.cpp.obj
 0001:0000e6a4       ?_Get@?$_Impl_no_alloc0@U?$_Callable_obj@V<lambda324>@?A0xe9eda812@@$0A@@tr1@std@@X@tr1@std@@EEBAPEBXXZ 000000018000f6a4 f i UnityBuildCore.cpp.obj
 0001:0000e6a4       ?_Get@?$_Impl_no_alloc0@U?$_Callable_obj@V<lambda175>@?A0xe9eda812@@$0A@@tr1@std@@X@tr1@std@@EEBAPEBXXZ 000000018000f6a4 f i UnityBuildCore.cpp.obj
 0001:0000e6a4       ?_Get@?$_Impl_no_alloc0@U?$_Callable_obj@V<lambda121>@?A0xe9eda812@@$0A@@tr1@std@@X@tr1@std@@EEBAPEBXXZ 000000018000f6a4 f i UnityBuildCore.cpp.obj
 0001:0000e6a4       ?_Get@?$_Impl_no_alloc0@U?$_Callable_obj@V<lambda288>@?A0xe9eda812@@$0A@@tr1@std@@X@tr1@std@@EEBAPEBXXZ 000000018000f6a4 f i UnityBuildCore.cpp.obj
 0001:0000e6a4       ?_Get@?$_Impl_no_alloc0@U?$_Callable_obj@V<lambda52>@?A0xe9eda812@@$0A@@tr1@std@@X@tr1@std@@EEBAPEBXXZ 000000018000f6a4 f i UnityBuildCore.cpp.obj
 0001:0000e6a4       ?_Get@?$_Impl_no_alloc0@U?$_Callable_obj@V<lambda301>@?A0xe9eda812@@$0A@@tr1@std@@X@tr1@std@@EEBAPEBXXZ 000000018000f6a4 f i UnityBuildCore.cpp.obj
 0001:0000e6a4       ?_Get@?$_Impl_no_alloc0@U?$_Callable_obj@V<lambda105>@?A0xe9eda812@@$0A@@tr1@std@@X@tr1@std@@EEBAPEBXXZ 000000018000f6a4 f i UnityBuildCore.cpp.obj
 0001:0000e6a4       ne_ssl_cert_issuer         000000018000f6a4 f i neon:ne_openssl.c.obj
 0001:0000e6a4       ?_Get@?$_Impl_no_alloc0@U?$_Callable_obj@V<lambda133>@?A0xe9eda812@@$0A@@tr1@std@@X@tr1@std@@EEBAPEBXXZ 000000018000f6a4 f i UnityBuildCore.cpp.obj
 0001:0000e6a4       ?_Get@?$_Impl_no_alloc0@U?$_Callable_obj@V<lambda147>@?A0xe9eda812@@$0A@@tr1@std@@X@tr1@std@@EEBAPEBXXZ 000000018000f6a4 f i UnityBuildCore.cpp.obj
 0001:0000e6a4       ?_Get@?$_Impl_no_alloc0@U?$_Callable_obj@V<lambda69>@?A0xe9eda812@@$0A@@tr1@std@@X@tr1@std@@EEBAPEBXXZ 000000018000f6a4 f i UnityBuildCore.cpp.obj
 0001:0000e6a4       ?_Get@?$_Impl_no_alloc0@U?$_Callable_obj@V<lambda50>@?A0xe9eda812@@$0A@@tr1@std@@X@tr1@std@@EEBAPEBXXZ 000000018000f6a4 f i UnityBuildCore.cpp.obj
 0001:0000e6a4       ?_Get@?$_Impl_no_alloc0@U?$_Callable_obj@V<lambda232>@?A0xe9eda812@@$0A@@tr1@std@@X@tr1@std@@EEBAPEBXXZ 000000018000f6a4 f i UnityBuildCore.cpp.obj
 0001:0000e6a4       ?_Get@?$_Impl_no_alloc0@U?$_Callable_obj@V<lambda107>@?A0xe9eda812@@$0A@@tr1@std@@X@tr1@std@@EEBAPEBXXZ 000000018000f6a4 f i UnityBuildCore.cpp.obj
 0001:0000e6a4       ?_Get@?$_Impl_no_alloc0@U?$_Callable_obj@V<lambda35>@?A0xe9eda812@@$0A@@tr1@std@@X@tr1@std@@EEBAPEBXXZ 000000018000f6a4 f i UnityBuildCore.cpp.obj
 0001:0000e6a4       ?_Get@?$_Impl_no_alloc0@U?$_Callable_obj@V<lambda119>@?A0xe9eda812@@$0A@@tr1@std@@X@tr1@std@@EEBAPEBXXZ 000000018000f6a4 f i UnityBuildCore.cpp.obj
 0001:0000e6a4       ?_Get@?$_Impl_no_alloc0@U?$_Callable_obj@V<lambda138>@?A0xe9eda812@@$0A@@tr1@std@@X@tr1@std@@EEBAPEBXXZ 000000018000f6a4 f i UnityBuildCore.cpp.obj
 0001:0000e6a4       ?_Get@?$_Impl_no_alloc0@U?$_Callable_obj@V<lambda145>@?A0xe9eda812@@$0A@@tr1@std@@X@tr1@std@@EEBAPEBXXZ 000000018000f6a4 f i UnityBuildCore.cpp.obj
 0001:0000e6a4       ?_Get@?$_Impl_no_alloc0@U?$_Callable_obj@V<lambda209>@?A0xe9eda812@@$0A@@tr1@std@@X@tr1@std@@EEBAPEBXXZ 000000018000f6a4 f i UnityBuildCore.cpp.obj
 0001:0000e6a4       ?_Get@?$_Impl_no_alloc0@U?$_Callable_obj@V<lambda42>@?A0xe9eda812@@$0A@@tr1@std@@X@tr1@std@@EEBAPEBXXZ 000000018000f6a4 f i UnityBuildCore.cpp.obj
 0001:0000e6a4       ?_Get@?$_Impl_no_alloc0@U?$_Callable_obj@V<lambda80>@?A0xe9eda812@@$0A@@tr1@std@@X@tr1@std@@EEBAPEBXXZ 000000018000f6a4 f i UnityBuildCore.cpp.obj
 0001:0000e6a4       ?_Get@?$_Impl_no_alloc0@U?$_Callable_obj@V<lambda234>@?A0xe9eda812@@$0A@@tr1@std@@X@tr1@std@@EEBAPEBXXZ 000000018000f6a4 f i UnityBuildCore.cpp.obj
 0001:0000e6a4       ?_Get@?$_Impl_no_alloc0@U?$_Callable_obj@V<lambda67>@?A0xe9eda812@@$0A@@tr1@std@@X@tr1@std@@EEBAPEBXXZ 000000018000f6a4 f i UnityBuildCore.cpp.obj
 0001:0000e6a4       ?_Get@?$_Impl_no_alloc0@U?$_Callable_obj@V<lambda142>@?A0xe9eda812@@$0A@@tr1@std@@X@tr1@std@@EEBAPEBXXZ 000000018000f6a4 f i UnityBuildCore.cpp.obj
 0001:0000e6a4       ?_Get@?$_Impl_no_alloc0@U?$_Callable_obj@V<lambda284>@?A0xe9eda812@@$0A@@tr1@std@@X@tr1@std@@EEBAPEBXXZ 000000018000f6a4 f i UnityBuildCore.cpp.obj
 0001:0000e6a4       ?_Get@?$_Impl_no_alloc0@U?$_Callable_obj@V<lambda186>@?A0xe9eda812@@$0A@@tr1@std@@X@tr1@std@@EEBAPEBXXZ 000000018000f6a4 f i UnityBuildCore.cpp.obj
 0001:0000e6a4       ?_Get@?$_Impl_no_alloc0@U?$_Callable_obj@V<lambda30>@?A0xe9eda812@@$0A@@tr1@std@@X@tr1@std@@EEBAPEBXXZ 000000018000f6a4 f i UnityBuildCore.cpp.obj
 0001:0000e6a4       ?_Get@?$_Impl_no_alloc0@U?$_Callable_obj@V<lambda364>@?A0xe9eda812@@$0A@@tr1@std@@X@tr1@std@@EEBAPEBXXZ 000000018000f6a4 f i UnityBuildCore.cpp.obj
 0001:0000e6a4       ?_Get@?$_Impl_no_alloc0@U?$_Callable_obj@V<lambda311>@?A0xe9eda812@@$0A@@tr1@std@@X@tr1@std@@EEBAPEBXXZ 000000018000f6a4 f i UnityBuildCore.cpp.obj
 0001:0000e6a4       ?_Get@?$_Impl_no_alloc0@U?$_Callable_obj@V<lambda332>@?A0xe9eda812@@$0A@@tr1@std@@X@tr1@std@@EEBAPEBXXZ 000000018000f6a4 f i UnityBuildCore.cpp.obj
 0001:0000e6a4       ?_Get@?$_Impl_no_alloc0@U?$_Callable_obj@V<lambda28>@?A0xe9eda812@@$0A@@tr1@std@@X@tr1@std@@EEBAPEBXXZ 000000018000f6a4 f i UnityBuildCore.cpp.obj
 0001:0000e6a4       ?_Get@?$_Impl_no_alloc0@U?$_Callable_obj@V<lambda278>@?A0xe9eda812@@$0A@@tr1@std@@X@tr1@std@@EEBAPEBXXZ 000000018000f6a4 f i UnityBuildCore.cpp.obj
 0001:0000e6a4       ?_Get@?$_Impl_no_alloc0@U?$_Callable_obj@V<lambda265>@?A0xe9eda812@@$0A@@tr1@std@@X@tr1@std@@EEBAPEBXXZ 000000018000f6a4 f i UnityBuildCore.cpp.obj
 0001:0000e6a4       ?_Get@?$_Impl_no_alloc0@U?$_Callable_obj@V<lambda297>@?A0xe9eda812@@$0A@@tr1@std@@X@tr1@std@@EEBAPEBXXZ 000000018000f6a4 f i UnityBuildCore.cpp.obj
 0001:0000e6a4       ?_Get@?$_Impl_no_alloc0@U?$_Callable_obj@V<lambda227>@?A0xe9eda812@@$0A@@tr1@std@@X@tr1@std@@EEBAPEBXXZ 000000018000f6a4 f i UnityBuildCore.cpp.obj
 0001:0000e6a4       ?_Get@?$_Impl_no_alloc0@U?$_Callable_obj@V<lambda199>@?A0xe9eda812@@$0A@@tr1@std@@X@tr1@std@@EEBAPEBXXZ 000000018000f6a4 f i UnityBuildCore.cpp.obj
 0001:0000e6a4       ?_Get@?$_Impl_no_alloc0@U?$_Callable_obj@V<lambda346>@?A0xe9eda812@@$0A@@tr1@std@@X@tr1@std@@EEBAPEBXXZ 000000018000f6a4 f i UnityBuildCore.cpp.obj
 0001:0000e6a4       ?_Get@?$_Impl_no_alloc0@U?$_Callable_obj@V<lambda117>@?A0xe9eda812@@$0A@@tr1@std@@X@tr1@std@@EEBAPEBXXZ 000000018000f6a4 f i UnityBuildCore.cpp.obj
 0001:0000e6a4       ?_Get@?$_Impl_no_alloc0@U?$_Callable_obj@V<lambda361>@?A0xe9eda812@@$0A@@tr1@std@@X@tr1@std@@EEBAPEBXXZ 000000018000f6a4 f i UnityBuildCore.cpp.obj
 0001:0000e6a4       ?_Get@?$_Impl_no_alloc0@U?$_Callable_obj@V<lambda185>@?A0xe9eda812@@$0A@@tr1@std@@X@tr1@std@@EEBAPEBXXZ 000000018000f6a4 f i UnityBuildCore.cpp.obj
 0001:0000e6a4       ?_Get@?$_Impl_no_alloc0@U?$_Callable_obj@V<lambda318>@?A0xe9eda812@@$0A@@tr1@std@@X@tr1@std@@EEBAPEBXXZ 000000018000f6a4 f i UnityBuildCore.cpp.obj
 0001:0000e6a4       ?_Get@?$_Impl_no_alloc0@U?$_Callable_obj@V<lambda366>@?A0xe9eda812@@$0A@@tr1@std@@X@tr1@std@@EEBAPEBXXZ 000000018000f6a4 f i UnityBuildCore.cpp.obj
 0001:0000e6a4       ?_Get@?$_Impl_no_alloc0@U?$_Callable_obj@V<lambda111>@?A0xe9eda812@@$0A@@tr1@std@@X@tr1@std@@EEBAPEBXXZ 000000018000f6a4 f i UnityBuildCore.cpp.obj
 0001:0000e6a4       ?_Get@?$_Impl_no_alloc0@U?$_Callable_obj@V<lambda339>@?A0xe9eda812@@$0A@@tr1@std@@X@tr1@std@@EEBAPEBXXZ 000000018000f6a4 f i UnityBuildCore.cpp.obj
 0001:0000e6a4       ?_Get@?$_Impl_no_alloc0@U?$_Callable_obj@V<lambda231>@?A0xe9eda812@@$0A@@tr1@std@@X@tr1@std@@EEBAPEBXXZ 000000018000f6a4 f i UnityBuildCore.cpp.obj
 0001:0000e6a4       ?_Get@?$_Impl_no_alloc0@U?$_Callable_obj@V<lambda344>@?A0xe9eda812@@$0A@@tr1@std@@X@tr1@std@@EEBAPEBXXZ 000000018000f6a4 f i UnityBuildCore.cpp.obj
 0001:0000e6a4       ?_Get@?$_Impl_no_alloc0@U?$_Callable_obj@V<lambda282>@?A0xe9eda812@@$0A@@tr1@std@@X@tr1@std@@EEBAPEBXXZ 000000018000f6a4 f i UnityBuildCore.cpp.obj
 0001:0000e6a4       ?_Get@?$_Impl_no_alloc0@U?$_Callable_obj@V<lambda224>@?A0xe9eda812@@$0A@@tr1@std@@X@tr1@std@@EEBAPEBXXZ 000000018000f6a4 f i UnityBuildCore.cpp.obj
 0001:0000e6a4       ?_Get@?$_Impl_no_alloc0@U?$_Callable_obj@V<lambda244>@?A0xe9eda812@@$0A@@tr1@std@@X@tr1@std@@EEBAPEBXXZ 000000018000f6a4 f i UnityBuildCore.cpp.obj
 0001:0000e6a4       ?_Get@?$_Impl_no_alloc0@U?$_Callable_obj@V<lambda277>@?A0xe9eda812@@$0A@@tr1@std@@X@tr1@std@@EEBAPEBXXZ 000000018000f6a4 f i UnityBuildCore.cpp.obj
 0001:0000e6a4       ?_Get@?$_Impl_no_alloc0@U?$_Callable_obj@V<lambda129>@?A0xe9eda812@@$0A@@tr1@std@@X@tr1@std@@EEBAPEBXXZ 000000018000f6a4 f i UnityBuildCore.cpp.obj
 0001:0000e6a4       ?_Get@?$_Impl_no_alloc0@U?$_Callable_obj@V<lambda177>@?A0xe9eda812@@$0A@@tr1@std@@X@tr1@std@@EEBAPEBXXZ 000000018000f6a4 f i UnityBuildCore.cpp.obj
 0001:0000e6a4       ?_Get@?$_Impl_no_alloc0@U?$_Callable_obj@V<lambda304>@?A0xe9eda812@@$0A@@tr1@std@@X@tr1@std@@EEBAPEBXXZ 000000018000f6a4 f i UnityBuildCore.cpp.obj
 0001:0000e6a4       ?_Get@?$_Impl_no_alloc0@U?$_Callable_obj@V<lambda323>@?A0xe9eda812@@$0A@@tr1@std@@X@tr1@std@@EEBAPEBXXZ 000000018000f6a4 f i UnityBuildCore.cpp.obj
 0001:0000e6a4       ?_Get@?$_Impl_no_alloc0@U?$_Callable_obj@V<lambda291>@?A0xe9eda812@@$0A@@tr1@std@@X@tr1@std@@EEBAPEBXXZ 000000018000f6a4 f i UnityBuildCore.cpp.obj
 0001:0000e6a4       ?_Get@?$_Impl_no_alloc0@U?$_Callable_obj@V<lambda286>@?A0xe9eda812@@$0A@@tr1@std@@X@tr1@std@@EEBAPEBXXZ 000000018000f6a4 f i UnityBuildCore.cpp.obj
 0001:0000e6a4       ?_Get@?$_Impl_no_alloc0@U?$_Callable_obj@V<lambda99>@?A0xe9eda812@@$0A@@tr1@std@@X@tr1@std@@EEBAPEBXXZ 000000018000f6a4 f i UnityBuildCore.cpp.obj
 0001:0000e6a4       ?_Get@?$_Impl_no_alloc0@U?$_Callable_obj@V<lambda345>@?A0xe9eda812@@$0A@@tr1@std@@X@tr1@std@@EEBAPEBXXZ 000000018000f6a4 f i UnityBuildCore.cpp.obj
 0001:0000e6a4       ?_Get@?$_Impl_no_alloc0@U?$_Callable_obj@V<lambda306>@?A0xe9eda812@@$0A@@tr1@std@@X@tr1@std@@EEBAPEBXXZ 000000018000f6a4 f i UnityBuildCore.cpp.obj
 0001:0000e6a4       ?_Get@?$_Impl_no_alloc0@U?$_Callable_obj@V<lambda325>@?A0xe9eda812@@$0A@@tr1@std@@X@tr1@std@@EEBAPEBXXZ 000000018000f6a4 f i UnityBuildCore.cpp.obj
 0001:0000e6a4       ?_Get@?$_Impl_no_alloc0@U?$_Callable_obj@V<lambda26>@?A0xe9eda812@@$0A@@tr1@std@@X@tr1@std@@EEBAPEBXXZ 000000018000f6a4 f i UnityBuildCore.cpp.obj
 0001:0000e6a4       ?_Get@?$_Impl_no_alloc0@U?$_Callable_obj@V<lambda189>@?A0xe9eda812@@$0A@@tr1@std@@X@tr1@std@@EEBAPEBXXZ 000000018000f6a4 f i UnityBuildCore.cpp.obj
 0001:0000e6a4       ?_Get@?$_Impl_no_alloc0@U?$_Callable_obj@V<lambda135>@?A0xe9eda812@@$0A@@tr1@std@@X@tr1@std@@EEBAPEBXXZ 000000018000f6a4 f i UnityBuildCore.cpp.obj
 0001:0000e6a4       ?_Get@?$_Impl_no_alloc0@U?$_Callable_obj@V<lambda137>@?A0xe9eda812@@$0A@@tr1@std@@X@tr1@std@@EEBAPEBXXZ 000000018000f6a4 f i UnityBuildCore.cpp.obj
 0001:0000e6a4       ?_Get@?$_Impl_no_alloc0@U?$_Callable_obj@V<lambda255>@?A0xe9eda812@@$0A@@tr1@std@@X@tr1@std@@EEBAPEBXXZ 000000018000f6a4 f i UnityBuildCore.cpp.obj
 0001:0000e6a4       ?_Get@?$_Impl_no_alloc0@U?$_Callable_obj@V<lambda233>@?A0xe9eda812@@$0A@@tr1@std@@X@tr1@std@@EEBAPEBXXZ 000000018000f6a4 f i UnityBuildCore.cpp.obj
 0001:0000e6a4       ?_Get@?$_Impl_no_alloc0@U?$_Callable_obj@V<lambda68>@?A0xe9eda812@@$0A@@tr1@std@@X@tr1@std@@EEBAPEBXXZ 000000018000f6a4 f i UnityBuildCore.cpp.obj
 0001:0000e6a4       ?_Get@?$_Impl_no_alloc0@U?$_Callable_obj@V<lambda337>@?A0xe9eda812@@$0A@@tr1@std@@X@tr1@std@@EEBAPEBXXZ 000000018000f6a4 f i UnityBuildCore.cpp.obj
 0001:0000e6a4       ?_Get@?$_Impl_no_alloc0@U?$_Callable_obj@V<lambda316>@?A0xe9eda812@@$0A@@tr1@std@@X@tr1@std@@EEBAPEBXXZ 000000018000f6a4 f i UnityBuildCore.cpp.obj
 0001:0000e6a4       ?_Get@?$_Impl_no_alloc0@U?$_Callable_obj@V<lambda166>@?A0xe9eda812@@$0A@@tr1@std@@X@tr1@std@@EEBAPEBXXZ 000000018000f6a4 f i UnityBuildCore.cpp.obj
 0001:0000e6a4       ?_Get@?$_Impl_no_alloc0@U?$_Callable_obj@V<lambda183>@?A0xe9eda812@@$0A@@tr1@std@@X@tr1@std@@EEBAPEBXXZ 000000018000f6a4 f i UnityBuildCore.cpp.obj
 0001:0000e6a4       ?_Get@?$_Impl_no_alloc0@U?$_Callable_obj@V<lambda262>@?A0xe9eda812@@$0A@@tr1@std@@X@tr1@std@@EEBAPEBXXZ 000000018000f6a4 f i UnityBuildCore.cpp.obj
 0001:0000e6a4       ?_Get@?$_Impl_no_alloc0@U?$_Callable_obj@V<lambda98>@?A0xe9eda812@@$0A@@tr1@std@@X@tr1@std@@EEBAPEBXXZ 000000018000f6a4 f i UnityBuildCore.cpp.obj
 0001:0000e6a4       ?_Get@?$_Impl_no_alloc0@U?$_Callable_obj@V<lambda328>@?A0xe9eda812@@$0A@@tr1@std@@X@tr1@std@@EEBAPEBXXZ 000000018000f6a4 f i UnityBuildCore.cpp.obj
 0001:0000e6a4       ?_Get@?$_Impl_no_alloc0@U?$_Callable_obj@V<lambda79>@?A0xe9eda812@@$0A@@tr1@std@@X@tr1@std@@EEBAPEBXXZ 000000018000f6a4 f i UnityBuildCore.cpp.obj
 0001:0000e6a4       ?_Get@?$_Impl_no_alloc0@U?$_Callable_obj@V<lambda148>@?A0xe9eda812@@$0A@@tr1@std@@X@tr1@std@@EEBAPEBXXZ 000000018000f6a4 f i UnityBuildCore.cpp.obj
 0001:0000e6a4       ?_Get@?$_Impl_no_alloc0@U?$_Callable_obj@V<lambda205>@?A0xe9eda812@@$0A@@tr1@std@@X@tr1@std@@EEBAPEBXXZ 000000018000f6a4 f i UnityBuildCore.cpp.obj
 0001:0000e6a4       ?_Get@?$_Impl_no_alloc0@U?$_Callable_obj@V<lambda106>@?A0xe9eda812@@$0A@@tr1@std@@X@tr1@std@@EEBAPEBXXZ 000000018000f6a4 f i UnityBuildCore.cpp.obj
 0001:0000e6a4       ?_Get@?$_Impl_no_alloc0@U?$_Callable_obj@V<lambda294>@?A0xe9eda812@@$0A@@tr1@std@@X@tr1@std@@EEBAPEBXXZ 000000018000f6a4 f i UnityBuildCore.cpp.obj
 0001:0000e6a4       ?_Get@?$_Impl_no_alloc0@U?$_Callable_obj@V<lambda81>@?A0xe9eda812@@$0A@@tr1@std@@X@tr1@std@@EEBAPEBXXZ 000000018000f6a4 f i UnityBuildCore.cpp.obj
 0001:0000e6a4       ?_Get@?$_Impl_no_alloc0@U?$_Callable_obj@V<lambda208>@?A0xe9eda812@@$0A@@tr1@std@@X@tr1@std@@EEBAPEBXXZ 000000018000f6a4 f i UnityBuildCore.cpp.obj
 0001:0000e6a4       ?_Get@?$_Impl_no_alloc0@U?$_Callable_obj@V<lambda60>@?A0xe9eda812@@$0A@@tr1@std@@X@tr1@std@@EEBAPEBXXZ 000000018000f6a4 f i UnityBuildCore.cpp.obj
 0001:0000e6a4       ?_Get@?$_Impl_no_alloc0@U?$_Callable_obj@V<lambda236>@?A0xe9eda812@@$0A@@tr1@std@@X@tr1@std@@EEBAPEBXXZ 000000018000f6a4 f i UnityBuildCore.cpp.obj
 0001:0000e6a4       ?_Get@?$_Impl_no_alloc0@U?$_Callable_obj@V<lambda213>@?A0xe9eda812@@$0A@@tr1@std@@X@tr1@std@@EEBAPEBXXZ 000000018000f6a4 f i UnityBuildCore.cpp.obj
 0001:0000e6a4       ?_Get@?$_Impl_no_alloc0@U?$_Callable_obj@V<lambda299>@?A0xe9eda812@@$0A@@tr1@std@@X@tr1@std@@EEBAPEBXXZ 000000018000f6a4 f i UnityBuildCore.cpp.obj
 0001:0000e6a4       ?_Get@?$_Impl_no_alloc0@U?$_Callable_obj@V<lambda340>@?A0xe9eda812@@$0A@@tr1@std@@X@tr1@std@@EEBAPEBXXZ 000000018000f6a4 f i UnityBuildCore.cpp.obj
 0001:0000e6a4       ?_Get@?$_Impl_no_alloc0@U?$_Callable_obj@V<lambda259>@?A0xe9eda812@@$0A@@tr1@std@@X@tr1@std@@EEBAPEBXXZ 000000018000f6a4 f i UnityBuildCore.cpp.obj
 0001:0000e6a4       ?_Get@?$_Impl_no_alloc0@U?$_Callable_obj@V<lambda71>@?A0xe9eda812@@$0A@@tr1@std@@X@tr1@std@@EEBAPEBXXZ 000000018000f6a4 f i UnityBuildCore.cpp.obj
 0001:0000e6a4       ?_Get@?$_Impl_no_alloc0@U?$_Callable_obj@V<lambda33>@?A0xe9eda812@@$0A@@tr1@std@@X@tr1@std@@EEBAPEBXXZ 000000018000f6a4 f i UnityBuildCore.cpp.obj
 0001:0000e6a4       ?_Get@?$_Impl_no_alloc0@U?$_Callable_obj@V<lambda22>@?A0xe9eda812@@$0A@@tr1@std@@X@tr1@std@@EEBAPEBXXZ 000000018000f6a4 f i UnityBuildCore.cpp.obj
 0001:0000e6a4       ?_Get@?$_Impl_no_alloc0@U?$_Callable_obj@V<lambda85>@?A0xe9eda812@@$0A@@tr1@std@@X@tr1@std@@EEBAPEBXXZ 000000018000f6a4 f i UnityBuildCore.cpp.obj
 0001:0000e6a4       ?_Get@?$_Impl_no_alloc0@U?$_Callable_obj@V<lambda20>@?A0xe9eda812@@$0A@@tr1@std@@X@tr1@std@@EEBAPEBXXZ 000000018000f6a4 f i UnityBuildCore.cpp.obj
 0001:0000e6a4       ?_Get@?$_Impl_no_alloc0@U?$_Callable_obj@V<lambda253>@?A0xe9eda812@@$0A@@tr1@std@@X@tr1@std@@EEBAPEBXXZ 000000018000f6a4 f i UnityBuildCore.cpp.obj
 0001:0000e6a4       ?_Get@?$_Impl_no_alloc0@U?$_Callable_obj@V<lambda115>@?A0xe9eda812@@$0A@@tr1@std@@X@tr1@std@@EEBAPEBXXZ 000000018000f6a4 f i UnityBuildCore.cpp.obj
 0001:0000e6a4       ?_Get@?$_Impl_no_alloc0@U?$_Callable_obj@V<lambda335>@?A0xe9eda812@@$0A@@tr1@std@@X@tr1@std@@EEBAPEBXXZ 000000018000f6a4 f i UnityBuildCore.cpp.obj
 0001:0000e6a4       ?_Get@?$_Impl_no_alloc0@U?$_Callable_obj@V<lambda314>@?A0xe9eda812@@$0A@@tr1@std@@X@tr1@std@@EEBAPEBXXZ 000000018000f6a4 f i UnityBuildCore.cpp.obj
 0001:0000e6a4       ?_Get@?$_Impl_no_alloc0@U?$_Callable_obj@V<lambda220>@?A0xe9eda812@@$0A@@tr1@std@@X@tr1@std@@EEBAPEBXXZ 000000018000f6a4 f i UnityBuildCore.cpp.obj
 0001:0000e6a4       ?_Get@?$_Impl_no_alloc0@U?$_Callable_obj@V<lambda241>@?A0xe9eda812@@$0A@@tr1@std@@X@tr1@std@@EEBAPEBXXZ 000000018000f6a4 f i UnityBuildCore.cpp.obj
 0001:0000e6a4       ?_Get@?$_Impl_no_alloc0@U?$_Callable_obj@V<lambda281>@?A0xe9eda812@@$0A@@tr1@std@@X@tr1@std@@EEBAPEBXXZ 000000018000f6a4 f i UnityBuildCore.cpp.obj
 0001:0000e6a4       ?_Get@?$_Impl_no_alloc0@U?$_Callable_obj@V<lambda48>@?A0xe9eda812@@$0A@@tr1@std@@X@tr1@std@@EEBAPEBXXZ 000000018000f6a4 f i UnityBuildCore.cpp.obj
 0001:0000e6a4       ?_Get@?$_Impl_no_alloc0@U?$_Callable_obj@V<lambda250>@?A0xe9eda812@@$0A@@tr1@std@@X@tr1@std@@EEBAPEBXXZ 000000018000f6a4 f i UnityBuildCore.cpp.obj
 0001:0000e6a4       ?_Get@?$_Impl_no_alloc0@U?$_Callable_obj@V<lambda178>@?A0xe9eda812@@$0A@@tr1@std@@X@tr1@std@@EEBAPEBXXZ 000000018000f6a4 f i UnityBuildCore.cpp.obj
 0001:0000e6a4       ?_Get@?$_Impl_no_alloc0@U?$_Callable_obj@V<lambda65>@?A0xe9eda812@@$0A@@tr1@std@@X@tr1@std@@EEBAPEBXXZ 000000018000f6a4 f i UnityBuildCore.cpp.obj
 0001:0000e6a4       ?_Get@?$_Impl_no_alloc0@U?$_Callable_obj@V<lambda230>@?A0xe9eda812@@$0A@@tr1@std@@X@tr1@std@@EEBAPEBXXZ 000000018000f6a4 f i UnityBuildCore.cpp.obj
 0001:0000e6a4       ?_Get@?$_Impl_no_alloc0@U?$_Callable_obj@V<lambda19>@?A0xe9eda812@@$0A@@tr1@std@@X@tr1@std@@EEBAPEBXXZ 000000018000f6a4 f i UnityBuildCore.cpp.obj
 0001:0000e6a4       ?_Get@?$_Impl_no_alloc0@U?$_Callable_obj@V<lambda72>@?A0xe9eda812@@$0A@@tr1@std@@X@tr1@std@@EEBAPEBXXZ 000000018000f6a4 f i UnityBuildCore.cpp.obj
 0001:0000e6a4       ?_Get@?$_Impl_no_alloc0@U?$_Callable_obj@V<lambda32>@?A0xe9eda812@@$0A@@tr1@std@@X@tr1@std@@EEBAPEBXXZ 000000018000f6a4 f i UnityBuildCore.cpp.obj
 0001:0000e6a4       ?_Get@?$_Impl_no_alloc0@U?$_Callable_obj@V<lambda141>@?A0xe9eda812@@$0A@@tr1@std@@X@tr1@std@@EEBAPEBXXZ 000000018000f6a4 f i UnityBuildCore.cpp.obj
 0001:0000e6a4       ?_Get@?$_Impl_no_alloc0@U?$_Callable_obj@V<lambda70>@?A0xe9eda812@@$0A@@tr1@std@@X@tr1@std@@EEBAPEBXXZ 000000018000f6a4 f i UnityBuildCore.cpp.obj
 0001:0000e6a4       ?_Get@?$_Impl_no_alloc0@U?$_Callable_obj@V<lambda275>@?A0xe9eda812@@$0A@@tr1@std@@X@tr1@std@@EEBAPEBXXZ 000000018000f6a4 f i UnityBuildCore.cpp.obj
 0001:0000e6a4       ?_Get@?$_Impl_no_alloc0@U?$_Callable_obj@V<lambda356>@?A0xe9eda812@@$0A@@tr1@std@@X@tr1@std@@EEBAPEBXXZ 000000018000f6a4 f i UnityBuildCore.cpp.obj
 0001:0000e6a4       ?_Get@?$_Impl_no_alloc0@U?$_Callable_obj@V<lambda202>@?A0xe9eda812@@$0A@@tr1@std@@X@tr1@std@@EEBAPEBXXZ 000000018000f6a4 f i UnityBuildCore.cpp.obj
 0001:0000e6a4       ?_Get@?$_Impl_no_alloc0@U?$_Callable_obj@V<lambda191>@?A0xe9eda812@@$0A@@tr1@std@@X@tr1@std@@EEBAPEBXXZ 000000018000f6a4 f i UnityBuildCore.cpp.obj
 0001:0000e6a4       ?_Get@?$_Impl_no_alloc0@U?$_Callable_obj@V<lambda66>@?A0xe9eda812@@$0A@@tr1@std@@X@tr1@std@@EEBAPEBXXZ 000000018000f6a4 f i UnityBuildCore.cpp.obj
 0001:0000e6a4       ?_Get@?$_Impl_no_alloc0@U?$_Callable_obj@V<lambda59>@?A0xe9eda812@@$0A@@tr1@std@@X@tr1@std@@EEBAPEBXXZ 000000018000f6a4 f i UnityBuildCore.cpp.obj
 0001:0000e6a4       ?_Get@?$_Impl_no_alloc0@U?$_Callable_obj@V<lambda285>@?A0xe9eda812@@$0A@@tr1@std@@X@tr1@std@@EEBAPEBXXZ 000000018000f6a4 f i UnityBuildCore.cpp.obj
 0001:0000e6a4       ?_Get@?$_Impl_no_alloc0@U?$_Callable_obj@V<lambda38>@?A0xe9eda812@@$0A@@tr1@std@@X@tr1@std@@EEBAPEBXXZ 000000018000f6a4 f i UnityBuildCore.cpp.obj
 0001:0000e6a4       ?_Get@?$_Impl_no_alloc0@U?$_Callable_obj@V<lambda53>@?A0xe9eda812@@$0A@@tr1@std@@X@tr1@std@@EEBAPEBXXZ 000000018000f6a4 f i UnityBuildCore.cpp.obj
 0001:0000e6a4       ?_Get@?$_Impl_no_alloc0@U?$_Callable_obj@V<lambda76>@?A0xe9eda812@@$0A@@tr1@std@@X@tr1@std@@EEBAPEBXXZ 000000018000f6a4 f i UnityBuildCore.cpp.obj
 0001:0000e6a4       ?_Get@?$_Impl_no_alloc0@U?$_Callable_obj@V<lambda95>@?A0xe9eda812@@$0A@@tr1@std@@X@tr1@std@@EEBAPEBXXZ 000000018000f6a4 f i UnityBuildCore.cpp.obj
 0001:0000e6a4       ?_Get@?$_Impl_no_alloc0@U?$_Callable_obj@V<lambda276>@?A0xe9eda812@@$0A@@tr1@std@@X@tr1@std@@EEBAPEBXXZ 000000018000f6a4 f i UnityBuildCore.cpp.obj
 0001:0000e6a4       ?_Get@?$_Impl_no_alloc0@U?$_Callable_obj@V<lambda240>@?A0xe9eda812@@$0A@@tr1@std@@X@tr1@std@@EEBAPEBXXZ 000000018000f6a4 f i UnityBuildCore.cpp.obj
 0001:0000e6a4       ?_Get@?$_Impl_no_alloc0@U?$_Callable_obj@V<lambda201>@?A0xe9eda812@@$0A@@tr1@std@@X@tr1@std@@EEBAPEBXXZ 000000018000f6a4 f i UnityBuildCore.cpp.obj
 0001:0000e6a4       ?_Get@?$_Impl_no_alloc0@U?$_Callable_obj@V<lambda336>@?A0xe9eda812@@$0A@@tr1@std@@X@tr1@std@@EEBAPEBXXZ 000000018000f6a4 f i UnityBuildCore.cpp.obj
 0001:0000e6a4       ?_Get@?$_Impl_no_alloc0@U?$_Callable_obj@V<lambda113>@?A0xe9eda812@@$0A@@tr1@std@@X@tr1@std@@EEBAPEBXXZ 000000018000f6a4 f i UnityBuildCore.cpp.obj
 0001:0000e6a4       ?_Get@?$_Impl_no_alloc0@U?$_Callable_obj@V<lambda322>@?A0xe9eda812@@$0A@@tr1@std@@X@tr1@std@@EEBAPEBXXZ 000000018000f6a4 f i UnityBuildCore.cpp.obj
 0001:0000e6a4       ?_Get@?$_Impl_no_alloc0@U?$_Callable_obj@V<lambda84>@?A0xe9eda812@@$0A@@tr1@std@@X@tr1@std@@EEBAPEBXXZ 000000018000f6a4 f i UnityBuildCore.cpp.obj
 0001:0000e6a4       ?_Get@?$_Impl_no_alloc0@U?$_Callable_obj@V<lambda63>@?A0xe9eda812@@$0A@@tr1@std@@X@tr1@std@@EEBAPEBXXZ 000000018000f6a4 f i UnityBuildCore.cpp.obj
 0001:0000e6a4       ?_Get@?$_Impl_no_alloc0@U?$_Callable_obj@V<lambda46>@?A0xe9eda812@@$0A@@tr1@std@@X@tr1@std@@EEBAPEBXXZ 000000018000f6a4 f i UnityBuildCore.cpp.obj
 0001:0000e6a4       ?_Get@?$_Impl_no_alloc0@U?$_Callable_obj@V<lambda303>@?A0xe9eda812@@$0A@@tr1@std@@X@tr1@std@@EEBAPEBXXZ 000000018000f6a4 f i UnityBuildCore.cpp.obj
 0001:0000e6a4       ?_Get@?$_Impl_no_alloc0@U?$_Callable_obj@V<lambda248>@?A0xe9eda812@@$0A@@tr1@std@@X@tr1@std@@EEBAPEBXXZ 000000018000f6a4 f i UnityBuildCore.cpp.obj
 0001:0000e6a4       ?_Get@?$_Impl_no_alloc0@U?$_Callable_obj@V<lambda211>@?A0xe9eda812@@$0A@@tr1@std@@X@tr1@std@@EEBAPEBXXZ 000000018000f6a4 f i UnityBuildCore.cpp.obj
 0001:0000e6ac       ?_Copy@?$_Impl_no_alloc0@U?$_Callable_obj@V<lambda294>@?A0xe9eda812@@$0A@@tr1@std@@X@tr1@std@@UEAAPEAV?$_Impl_base0@X@23@PEAX@Z 000000018000f6ac f i UnityBuildCore.cpp.obj
 0001:0000e730       ?_Target_type@?$_Impl_no_alloc0@U?$_Callable_obj@V<lambda296>@?A0xe9eda812@@$0A@@tr1@std@@X@tr1@std@@UEBAAEBVtype_info@@XZ 000000018000f730 f i UnityBuildCore.cpp.obj
 0001:0000e738       ?_Copy@?$_Impl_no_alloc0@U?$_Callable_obj@V<lambda296>@?A0xe9eda812@@$0A@@tr1@std@@X@tr1@std@@UEAAPEAV?$_Impl_base0@X@23@PEAX@Z 000000018000f738 f i UnityBuildCore.cpp.obj
 0001:0000e7a4       ?_Target_type@?$_Impl_no_alloc0@U?$_Callable_obj@V<lambda297>@?A0xe9eda812@@$0A@@tr1@std@@X@tr1@std@@UEBAAEBVtype_info@@XZ 000000018000f7a4 f i UnityBuildCore.cpp.obj
 0001:0000e7ac       ?_Copy@?$_Impl_no_alloc0@U?$_Callable_obj@V<lambda297>@?A0xe9eda812@@$0A@@tr1@std@@X@tr1@std@@UEAAPEAV?$_Impl_base0@X@23@PEAX@Z 000000018000f7ac f i UnityBuildCore.cpp.obj
 0001:0000e818       ?_Target_type@?$_Impl_no_alloc0@U?$_Callable_obj@V<lambda299>@?A0xe9eda812@@$0A@@tr1@std@@X@tr1@std@@UEBAAEBVtype_info@@XZ 000000018000f818 f i UnityBuildCore.cpp.obj
 0001:0000e820       ?_Copy@?$_Impl_no_alloc0@U?$_Callable_obj@V<lambda299>@?A0xe9eda812@@$0A@@tr1@std@@X@tr1@std@@UEAAPEAV?$_Impl_base0@X@23@PEAX@Z 000000018000f820 f i UnityBuildCore.cpp.obj
 0001:0000e88c       ?_Target_type@?$_Impl_no_alloc0@U?$_Callable_obj@V<lambda300>@?A0xe9eda812@@$0A@@tr1@std@@X@tr1@std@@UEBAAEBVtype_info@@XZ 000000018000f88c f i UnityBuildCore.cpp.obj
 0001:0000e894       ?_Copy@?$_Impl_no_alloc0@U?$_Callable_obj@V<lambda300>@?A0xe9eda812@@$0A@@tr1@std@@X@tr1@std@@UEAAPEAV?$_Impl_base0@X@23@PEAX@Z 000000018000f894 f i UnityBuildCore.cpp.obj
 0001:0000e900       ?_Target_type@?$_Impl_no_alloc0@U?$_Callable_obj@V<lambda301>@?A0xe9eda812@@$0A@@tr1@std@@X@tr1@std@@UEBAAEBVtype_info@@XZ 000000018000f900 f i UnityBuildCore.cpp.obj
 0001:0000e908       ?_Copy@?$_Impl_no_alloc0@U?$_Callable_obj@V<lambda301>@?A0xe9eda812@@$0A@@tr1@std@@X@tr1@std@@UEAAPEAV?$_Impl_base0@X@23@PEAX@Z 000000018000f908 f i UnityBuildCore.cpp.obj
 0001:0000e974       ?_Target_type@?$_Impl_no_alloc0@U?$_Callable_obj@V<lambda302>@?A0xe9eda812@@$0A@@tr1@std@@X@tr1@std@@UEBAAEBVtype_info@@XZ 000000018000f974 f i UnityBuildCore.cpp.obj
 0001:0000e97c       ?_Copy@?$_Impl_no_alloc0@U?$_Callable_obj@V<lambda302>@?A0xe9eda812@@$0A@@tr1@std@@X@tr1@std@@UEAAPEAV?$_Impl_base0@X@23@PEAX@Z 000000018000f97c f i UnityBuildCore.cpp.obj
 0001:0000ea00       ?_Target_type@?$_Impl_no_alloc0@U?$_Callable_obj@V<lambda303>@?A0xe9eda812@@$0A@@tr1@std@@X@tr1@std@@UEBAAEBVtype_info@@XZ 000000018000fa00 f i UnityBuildCore.cpp.obj
 0001:0000ea08       ?_Copy@?$_Impl_no_alloc0@U?$_Callable_obj@V<lambda303>@?A0xe9eda812@@$0A@@tr1@std@@X@tr1@std@@UEAAPEAV?$_Impl_base0@X@23@PEAX@Z 000000018000fa08 f i UnityBuildCore.cpp.obj
 0001:0000ea74       ?_Target_type@?$_Impl_no_alloc0@U?$_Callable_obj@V<lambda304>@?A0xe9eda812@@$0A@@tr1@std@@X@tr1@std@@UEBAAEBVtype_info@@XZ 000000018000fa74 f i UnityBuildCore.cpp.obj
 0001:0000ea7c       ?_Copy@?$_Impl_no_alloc0@U?$_Callable_obj@V<lambda304>@?A0xe9eda812@@$0A@@tr1@std@@X@tr1@std@@UEAAPEAV?$_Impl_base0@X@23@PEAX@Z 000000018000fa7c f i UnityBuildCore.cpp.obj
 0001:0000eae8       ?_Target_type@?$_Impl_no_alloc0@U?$_Callable_obj@V<lambda306>@?A0xe9eda812@@$0A@@tr1@std@@X@tr1@std@@UEBAAEBVtype_info@@XZ 000000018000fae8 f i UnityBuildCore.cpp.obj
 0001:0000eaf0       ?_Copy@?$_Impl_no_alloc0@U?$_Callable_obj@V<lambda306>@?A0xe9eda812@@$0A@@tr1@std@@X@tr1@std@@UEAAPEAV?$_Impl_base0@X@23@PEAX@Z 000000018000faf0 f i UnityBuildCore.cpp.obj
 0001:0000eb5c       ?_Target_type@?$_Impl_no_alloc0@U?$_Callable_obj@V<lambda308>@?A0xe9eda812@@$0A@@tr1@std@@X@tr1@std@@UEBAAEBVtype_info@@XZ 000000018000fb5c f i UnityBuildCore.cpp.obj
 0001:0000eb64       ?_Copy@?$_Impl_no_alloc0@U?$_Callable_obj@V<lambda308>@?A0xe9eda812@@$0A@@tr1@std@@X@tr1@std@@UEAAPEAV?$_Impl_base0@X@23@PEAX@Z 000000018000fb64 f i UnityBuildCore.cpp.obj
 0001:0000ebd0       ?_Target_type@?$_Impl_no_alloc0@U?$_Callable_obj@V<lambda310>@?A0xe9eda812@@$0A@@tr1@std@@X@tr1@std@@UEBAAEBVtype_info@@XZ 000000018000fbd0 f i UnityBuildCore.cpp.obj
 0001:0000ebd8       ?_Copy@?$_Impl_no_alloc0@U?$_Callable_obj@V<lambda310>@?A0xe9eda812@@$0A@@tr1@std@@X@tr1@std@@UEAAPEAV?$_Impl_base0@X@23@PEAX@Z 000000018000fbd8 f i UnityBuildCore.cpp.obj
 0001:0000ec5c       ?_Target_type@?$_Impl_no_alloc0@U?$_Callable_obj@V<lambda311>@?A0xe9eda812@@$0A@@tr1@std@@X@tr1@std@@UEBAAEBVtype_info@@XZ 000000018000fc5c f i UnityBuildCore.cpp.obj
 0001:0000ec64       ?_Copy@?$_Impl_no_alloc0@U?$_Callable_obj@V<lambda311>@?A0xe9eda812@@$0A@@tr1@std@@X@tr1@std@@UEAAPEAV?$_Impl_base0@X@23@PEAX@Z 000000018000fc64 f i UnityBuildCore.cpp.obj
 0001:0000ecd0       ?_Target_type@?$_Impl_no_alloc0@U?$_Callable_obj@V<lambda312>@?A0xe9eda812@@$0A@@tr1@std@@X@tr1@std@@UEBAAEBVtype_info@@XZ 000000018000fcd0 f i UnityBuildCore.cpp.obj
 0001:0000ecd8       ?_Copy@?$_Impl_no_alloc0@U?$_Callable_obj@V<lambda312>@?A0xe9eda812@@$0A@@tr1@std@@X@tr1@std@@UEAAPEAV?$_Impl_base0@X@23@PEAX@Z 000000018000fcd8 f i UnityBuildCore.cpp.obj
 0001:0000ed44       ?_Target_type@?$_Impl_no_alloc0@U?$_Callable_obj@V<lambda313>@?A0xe9eda812@@$0A@@tr1@std@@X@tr1@std@@UEBAAEBVtype_info@@XZ 000000018000fd44 f i UnityBuildCore.cpp.obj
 0001:0000ed4c       ?_Copy@?$_Impl_no_alloc0@U?$_Callable_obj@V<lambda313>@?A0xe9eda812@@$0A@@tr1@std@@X@tr1@std@@UEAAPEAV?$_Impl_base0@X@23@PEAX@Z 000000018000fd4c f i UnityBuildCore.cpp.obj
 0001:0000edc8       ?_Target_type@?$_Impl_no_alloc0@U?$_Callable_obj@V<lambda314>@?A0xe9eda812@@$0A@@tr1@std@@X@tr1@std@@UEBAAEBVtype_info@@XZ 000000018000fdc8 f i UnityBuildCore.cpp.obj
 0001:0000edd0       ?_Copy@?$_Impl_no_alloc0@U?$_Callable_obj@V<lambda314>@?A0xe9eda812@@$0A@@tr1@std@@X@tr1@std@@UEAAPEAV?$_Impl_base0@X@23@PEAX@Z 000000018000fdd0 f i UnityBuildCore.cpp.obj
 0001:0000ee54       ?_Target_type@?$_Impl_no_alloc0@U?$_Callable_obj@V<lambda316>@?A0xe9eda812@@$0A@@tr1@std@@X@tr1@std@@UEBAAEBVtype_info@@XZ 000000018000fe54 f i UnityBuildCore.cpp.obj
 0001:0000ee5c       ?_Copy@?$_Impl_no_alloc0@U?$_Callable_obj@V<lambda316>@?A0xe9eda812@@$0A@@tr1@std@@X@tr1@std@@UEAAPEAV?$_Impl_base0@X@23@PEAX@Z 000000018000fe5c f i UnityBuildCore.cpp.obj
 0001:0000eec8       ?_Target_type@?$_Impl_no_alloc0@U?$_Callable_obj@V<lambda317>@?A0xe9eda812@@$0A@@tr1@std@@X@tr1@std@@UEBAAEBVtype_info@@XZ 000000018000fec8 f i UnityBuildCore.cpp.obj
 0001:0000eed0       ?_Copy@?$_Impl_no_alloc0@U?$_Callable_obj@V<lambda317>@?A0xe9eda812@@$0A@@tr1@std@@X@tr1@std@@UEAAPEAV?$_Impl_base0@X@23@PEAX@Z 000000018000fed0 f i UnityBuildCore.cpp.obj
 0001:0000ef3c       ?_Target_type@?$_Impl_no_alloc0@U?$_Callable_obj@V<lambda318>@?A0xe9eda812@@$0A@@tr1@std@@X@tr1@std@@UEBAAEBVtype_info@@XZ 000000018000ff3c f i UnityBuildCore.cpp.obj
 0001:0000ef44       ?_Copy@?$_Impl_no_alloc0@U?$_Callable_obj@V<lambda318>@?A0xe9eda812@@$0A@@tr1@std@@X@tr1@std@@UEAAPEAV?$_Impl_base0@X@23@PEAX@Z 000000018000ff44 f i UnityBuildCore.cpp.obj
 0001:0000efc0       ?_Target_type@?$_Impl_no_alloc0@U?$_Callable_obj@V<lambda320>@?A0xe9eda812@@$0A@@tr1@std@@X@tr1@std@@UEBAAEBVtype_info@@XZ 000000018000ffc0 f i UnityBuildCore.cpp.obj
 0001:0000efc8       ?_Copy@?$_Impl_no_alloc0@U?$_Callable_obj@V<lambda320>@?A0xe9eda812@@$0A@@tr1@std@@X@tr1@std@@UEAAPEAV?$_Impl_base0@X@23@PEAX@Z 000000018000ffc8 f i UnityBuildCore.cpp.obj
 0001:0000f034       ?_Target_type@?$_Impl_no_alloc0@U?$_Callable_obj@V<lambda321>@?A0xe9eda812@@$0A@@tr1@std@@X@tr1@std@@UEBAAEBVtype_info@@XZ 0000000180010034 f i UnityBuildCore.cpp.obj
 0001:0000f03c       ?_Copy@?$_Impl_no_alloc0@U?$_Callable_obj@V<lambda321>@?A0xe9eda812@@$0A@@tr1@std@@X@tr1@std@@UEAAPEAV?$_Impl_base0@X@23@PEAX@Z 000000018001003c f i UnityBuildCore.cpp.obj
 0001:0000f0a8       ?_Target_type@?$_Impl_no_alloc0@U?$_Callable_obj@V<lambda322>@?A0xe9eda812@@$0A@@tr1@std@@X@tr1@std@@UEBAAEBVtype_info@@XZ 00000001800100a8 f i UnityBuildCore.cpp.obj
 0001:0000f0b0       ?_Copy@?$_Impl_no_alloc0@U?$_Callable_obj@V<lambda322>@?A0xe9eda812@@$0A@@tr1@std@@X@tr1@std@@UEAAPEAV?$_Impl_base0@X@23@PEAX@Z 00000001800100b0 f i UnityBuildCore.cpp.obj
 0001:0000f11c       ?_Target_type@?$_Impl_no_alloc0@U?$_Callable_obj@V<lambda323>@?A0xe9eda812@@$0A@@tr1@std@@X@tr1@std@@UEBAAEBVtype_info@@XZ 000000018001011c f i UnityBuildCore.cpp.obj
 0001:0000f124       ?_Copy@?$_Impl_no_alloc0@U?$_Callable_obj@V<lambda323>@?A0xe9eda812@@$0A@@tr1@std@@X@tr1@std@@UEAAPEAV?$_Impl_base0@X@23@PEAX@Z 0000000180010124 f i UnityBuildCore.cpp.obj
 0001:0000f1a0       ?_Target_type@?$_Impl_no_alloc0@U?$_Callable_obj@V<lambda324>@?A0xe9eda812@@$0A@@tr1@std@@X@tr1@std@@UEBAAEBVtype_info@@XZ 00000001800101a0 f i UnityBuildCore.cpp.obj
 0001:0000f1a8       ?_Copy@?$_Impl_no_alloc0@U?$_Callable_obj@V<lambda324>@?A0xe9eda812@@$0A@@tr1@std@@X@tr1@std@@UEAAPEAV?$_Impl_base0@X@23@PEAX@Z 00000001800101a8 f i UnityBuildCore.cpp.obj
 0001:0000f22c       ?_Target_type@?$_Impl_no_alloc0@U?$_Callable_obj@V<lambda325>@?A0xe9eda812@@$0A@@tr1@std@@X@tr1@std@@UEBAAEBVtype_info@@XZ 000000018001022c f i UnityBuildCore.cpp.obj
 0001:0000f234       ?_Copy@?$_Impl_no_alloc0@U?$_Callable_obj@V<lambda325>@?A0xe9eda812@@$0A@@tr1@std@@X@tr1@std@@UEAAPEAV?$_Impl_base0@X@23@PEAX@Z 0000000180010234 f i UnityBuildCore.cpp.obj
 0001:0000f2b8       ?_Target_type@?$_Impl_no_alloc0@U?$_Callable_obj@V<lambda327>@?A0xe9eda812@@$0A@@tr1@std@@X@tr1@std@@UEBAAEBVtype_info@@XZ 00000001800102b8 f i UnityBuildCore.cpp.obj
 0001:0000f2c0       ?_Copy@?$_Impl_no_alloc0@U?$_Callable_obj@V<lambda327>@?A0xe9eda812@@$0A@@tr1@std@@X@tr1@std@@UEAAPEAV?$_Impl_base0@X@23@PEAX@Z 00000001800102c0 f i UnityBuildCore.cpp.obj
 0001:0000f32c       ?_Target_type@?$_Impl_no_alloc0@U?$_Callable_obj@V<lambda328>@?A0xe9eda812@@$0A@@tr1@std@@X@tr1@std@@UEBAAEBVtype_info@@XZ 000000018001032c f i UnityBuildCore.cpp.obj
 0001:0000f334       ?_Copy@?$_Impl_no_alloc0@U?$_Callable_obj@V<lambda328>@?A0xe9eda812@@$0A@@tr1@std@@X@tr1@std@@UEAAPEAV?$_Impl_base0@X@23@PEAX@Z 0000000180010334 f i UnityBuildCore.cpp.obj
 0001:0000f3a0       ?_Target_type@?$_Impl_no_alloc0@U?$_Callable_obj@V<lambda330>@?A0xe9eda812@@$0A@@tr1@std@@X@tr1@std@@UEBAAEBVtype_info@@XZ 00000001800103a0 f i UnityBuildCore.cpp.obj
 0001:0000f3a8       ?_Copy@?$_Impl_no_alloc0@U?$_Callable_obj@V<lambda330>@?A0xe9eda812@@$0A@@tr1@std@@X@tr1@std@@UEAAPEAV?$_Impl_base0@X@23@PEAX@Z 00000001800103a8 f i UnityBuildCore.cpp.obj
 0001:0000f414       ?_Target_type@?$_Impl_no_alloc0@U?$_Callable_obj@V<lambda332>@?A0xe9eda812@@$0A@@tr1@std@@X@tr1@std@@UEBAAEBVtype_info@@XZ 0000000180010414 f i UnityBuildCore.cpp.obj
 0001:0000f41c       ?_Copy@?$_Impl_no_alloc0@U?$_Callable_obj@V<lambda332>@?A0xe9eda812@@$0A@@tr1@std@@X@tr1@std@@UEAAPEAV?$_Impl_base0@X@23@PEAX@Z 000000018001041c f i UnityBuildCore.cpp.obj
 0001:0000f488       ?_Target_type@?$_Impl_no_alloc0@U?$_Callable_obj@V<lambda333>@?A0xe9eda812@@$0A@@tr1@std@@X@tr1@std@@UEBAAEBVtype_info@@XZ 0000000180010488 f i UnityBuildCore.cpp.obj
 0001:0000f490       ?_Copy@?$_Impl_no_alloc0@U?$_Callable_obj@V<lambda333>@?A0xe9eda812@@$0A@@tr1@std@@X@tr1@std@@UEAAPEAV?$_Impl_base0@X@23@PEAX@Z 0000000180010490 f i UnityBuildCore.cpp.obj
 0001:0000f4fc       ?_Target_type@?$_Impl_no_alloc0@U?$_Callable_obj@V<lambda335>@?A0xe9eda812@@$0A@@tr1@std@@X@tr1@std@@UEBAAEBVtype_info@@XZ 00000001800104fc f i UnityBuildCore.cpp.obj
 0001:0000f504       ?_Copy@?$_Impl_no_alloc0@U?$_Callable_obj@V<lambda335>@?A0xe9eda812@@$0A@@tr1@std@@X@tr1@std@@UEAAPEAV?$_Impl_base0@X@23@PEAX@Z 0000000180010504 f i UnityBuildCore.cpp.obj
 0001:0000f570       ?_Target_type@?$_Impl_no_alloc0@U?$_Callable_obj@V<lambda336>@?A0xe9eda812@@$0A@@tr1@std@@X@tr1@std@@UEBAAEBVtype_info@@XZ 0000000180010570 f i UnityBuildCore.cpp.obj
 0001:0000f578       ?_Copy@?$_Impl_no_alloc0@U?$_Callable_obj@V<lambda336>@?A0xe9eda812@@$0A@@tr1@std@@X@tr1@std@@UEAAPEAV?$_Impl_base0@X@23@PEAX@Z 0000000180010578 f i UnityBuildCore.cpp.obj
 0001:0000f5e4       ?_Target_type@?$_Impl_no_alloc0@U?$_Callable_obj@V<lambda337>@?A0xe9eda812@@$0A@@tr1@std@@X@tr1@std@@UEBAAEBVtype_info@@XZ 00000001800105e4 f i UnityBuildCore.cpp.obj
 0001:0000f5ec       ?_Copy@?$_Impl_no_alloc0@U?$_Callable_obj@V<lambda337>@?A0xe9eda812@@$0A@@tr1@std@@X@tr1@std@@UEAAPEAV?$_Impl_base0@X@23@PEAX@Z 00000001800105ec f i UnityBuildCore.cpp.obj
 0001:0000f658       ?_Target_type@?$_Impl_no_alloc0@U?$_Callable_obj@V<lambda338>@?A0xe9eda812@@$0A@@tr1@std@@X@tr1@std@@UEBAAEBVtype_info@@XZ 0000000180010658 f i UnityBuildCore.cpp.obj
 0001:0000f660       ?_Copy@?$_Impl_no_alloc0@U?$_Callable_obj@V<lambda338>@?A0xe9eda812@@$0A@@tr1@std@@X@tr1@std@@UEAAPEAV?$_Impl_base0@X@23@PEAX@Z 0000000180010660 f i UnityBuildCore.cpp.obj
 0001:0000f6cc       ?_Target_type@?$_Impl_no_alloc0@U?$_Callable_obj@V<lambda339>@?A0xe9eda812@@$0A@@tr1@std@@X@tr1@std@@UEBAAEBVtype_info@@XZ 00000001800106cc f i UnityBuildCore.cpp.obj
 0001:0000f6d4       ?_Copy@?$_Impl_no_alloc0@U?$_Callable_obj@V<lambda339>@?A0xe9eda812@@$0A@@tr1@std@@X@tr1@std@@UEAAPEAV?$_Impl_base0@X@23@PEAX@Z 00000001800106d4 f i UnityBuildCore.cpp.obj
 0001:0000f740       ?_Target_type@?$_Impl_no_alloc0@U?$_Callable_obj@V<lambda340>@?A0xe9eda812@@$0A@@tr1@std@@X@tr1@std@@UEBAAEBVtype_info@@XZ 0000000180010740 f i UnityBuildCore.cpp.obj
 0001:0000f748       ?_Copy@?$_Impl_no_alloc0@U?$_Callable_obj@V<lambda340>@?A0xe9eda812@@$0A@@tr1@std@@X@tr1@std@@UEAAPEAV?$_Impl_base0@X@23@PEAX@Z 0000000180010748 f i UnityBuildCore.cpp.obj
 0001:0000f7b4       ?_Target_type@?$_Impl_no_alloc0@U?$_Callable_obj@V<lambda343>@?A0xe9eda812@@$0A@@tr1@std@@X@tr1@std@@UEBAAEBVtype_info@@XZ 00000001800107b4 f i UnityBuildCore.cpp.obj
 0001:0000f7bc       ?_Copy@?$_Impl_no_alloc0@U?$_Callable_obj@V<lambda343>@?A0xe9eda812@@$0A@@tr1@std@@X@tr1@std@@UEAAPEAV?$_Impl_base0@X@23@PEAX@Z 00000001800107bc f i UnityBuildCore.cpp.obj
 0001:0000f828       ?_Target_type@?$_Impl_no_alloc0@U?$_Callable_obj@V<lambda344>@?A0xe9eda812@@$0A@@tr1@std@@X@tr1@std@@UEBAAEBVtype_info@@XZ 0000000180010828 f i UnityBuildCore.cpp.obj
 0001:0000f830       ?_Copy@?$_Impl_no_alloc0@U?$_Callable_obj@V<lambda344>@?A0xe9eda812@@$0A@@tr1@std@@X@tr1@std@@UEAAPEAV?$_Impl_base0@X@23@PEAX@Z 0000000180010830 f i UnityBuildCore.cpp.obj
 0001:0000f89c       ?_Target_type@?$_Impl_no_alloc0@U?$_Callable_obj@V<lambda345>@?A0xe9eda812@@$0A@@tr1@std@@X@tr1@std@@UEBAAEBVtype_info@@XZ 000000018001089c f i UnityBuildCore.cpp.obj
 0001:0000f8a4       ?_Copy@?$_Impl_no_alloc0@U?$_Callable_obj@V<lambda345>@?A0xe9eda812@@$0A@@tr1@std@@X@tr1@std@@UEAAPEAV?$_Impl_base0@X@23@PEAX@Z 00000001800108a4 f i UnityBuildCore.cpp.obj
 0001:0000f910       ?_Target_type@?$_Impl_no_alloc0@U?$_Callable_obj@V<lambda346>@?A0xe9eda812@@$0A@@tr1@std@@X@tr1@std@@UEBAAEBVtype_info@@XZ 0000000180010910 f i UnityBuildCore.cpp.obj
 0001:0000f918       ?_Copy@?$_Impl_no_alloc0@U?$_Callable_obj@V<lambda346>@?A0xe9eda812@@$0A@@tr1@std@@X@tr1@std@@UEAAPEAV?$_Impl_base0@X@23@PEAX@Z 0000000180010918 f i UnityBuildCore.cpp.obj
 0001:0000f984       ?_Target_type@?$_Impl_no_alloc0@U?$_Callable_obj@V<lambda352>@?A0xe9eda812@@$0A@@tr1@std@@X@tr1@std@@UEBAAEBVtype_info@@XZ 0000000180010984 f i UnityBuildCore.cpp.obj
 0001:0000f98c       ?_Copy@?$_Impl_no_alloc0@U?$_Callable_obj@V<lambda352>@?A0xe9eda812@@$0A@@tr1@std@@X@tr1@std@@UEAAPEAV?$_Impl_base0@X@23@PEAX@Z 000000018001098c f i UnityBuildCore.cpp.obj
 0001:0000f9f8       ?_Target_type@?$_Impl_no_alloc0@U?$_Callable_obj@V<lambda354>@?A0xe9eda812@@$0A@@tr1@std@@X@tr1@std@@UEBAAEBVtype_info@@XZ 00000001800109f8 f i UnityBuildCore.cpp.obj
 0001:0000fa00       ?_Copy@?$_Impl_no_alloc0@U?$_Callable_obj@V<lambda354>@?A0xe9eda812@@$0A@@tr1@std@@X@tr1@std@@UEAAPEAV?$_Impl_base0@X@23@PEAX@Z 0000000180010a00 f i UnityBuildCore.cpp.obj
 0001:0000fa6c       ?_Target_type@?$_Impl_no_alloc0@U?$_Callable_obj@V<lambda356>@?A0xe9eda812@@$0A@@tr1@std@@X@tr1@std@@UEBAAEBVtype_info@@XZ 0000000180010a6c f i UnityBuildCore.cpp.obj
 0001:0000fa74       ?_Copy@?$_Impl_no_alloc0@U?$_Callable_obj@V<lambda356>@?A0xe9eda812@@$0A@@tr1@std@@X@tr1@std@@UEAAPEAV?$_Impl_base0@X@23@PEAX@Z 0000000180010a74 f i UnityBuildCore.cpp.obj
 0001:0000fae0       ?_Target_type@?$_Impl_no_alloc0@U?$_Callable_obj@V<lambda359>@?A0xe9eda812@@$0A@@tr1@std@@X@tr1@std@@UEBAAEBVtype_info@@XZ 0000000180010ae0 f i UnityBuildCore.cpp.obj
 0001:0000fae8       ?_Copy@?$_Impl_no_alloc0@U?$_Callable_obj@V<lambda359>@?A0xe9eda812@@$0A@@tr1@std@@X@tr1@std@@UEAAPEAV?$_Impl_base0@X@23@PEAX@Z 0000000180010ae8 f i UnityBuildCore.cpp.obj
 0001:0000fb54       ?_Target_type@?$_Impl_no_alloc0@U?$_Callable_obj@V<lambda361>@?A0xe9eda812@@$0A@@tr1@std@@X@tr1@std@@UEBAAEBVtype_info@@XZ 0000000180010b54 f i UnityBuildCore.cpp.obj
 0001:0000fb5c       ?_Copy@?$_Impl_no_alloc0@U?$_Callable_obj@V<lambda361>@?A0xe9eda812@@$0A@@tr1@std@@X@tr1@std@@UEAAPEAV?$_Impl_base0@X@23@PEAX@Z 0000000180010b5c f i UnityBuildCore.cpp.obj
 0001:0000fbc8       ?_Target_type@?$_Impl_no_alloc0@U?$_Callable_obj@V<lambda364>@?A0xe9eda812@@$0A@@tr1@std@@X@tr1@std@@UEBAAEBVtype_info@@XZ 0000000180010bc8 f i UnityBuildCore.cpp.obj
 0001:0000fbd0       ?_Copy@?$_Impl_no_alloc0@U?$_Callable_obj@V<lambda364>@?A0xe9eda812@@$0A@@tr1@std@@X@tr1@std@@UEAAPEAV?$_Impl_base0@X@23@PEAX@Z 0000000180010bd0 f i UnityBuildCore.cpp.obj
 0001:0000fc3c       ?_Target_type@?$_Impl_no_alloc0@U?$_Callable_obj@V<lambda366>@?A0xe9eda812@@$0A@@tr1@std@@X@tr1@std@@UEBAAEBVtype_info@@XZ 0000000180010c3c f i UnityBuildCore.cpp.obj
 0001:0000fc44       ?_Copy@?$_Impl_no_alloc0@U?$_Callable_obj@V<lambda366>@?A0xe9eda812@@$0A@@tr1@std@@X@tr1@std@@UEAAPEAV?$_Impl_base0@X@23@PEAX@Z 0000000180010c44 f i UnityBuildCore.cpp.obj
 0001:0000fcb0       ?_Target_type@?$_Impl_no_alloc0@U?$_Callable_obj@V<lambda372>@?A0xe9eda812@@$0A@@tr1@std@@X@tr1@std@@UEBAAEBVtype_info@@XZ 0000000180010cb0 f i UnityBuildCore.cpp.obj
 0001:0000fcb8       ?_Copy@?$_Impl_no_alloc0@U?$_Callable_obj@V<lambda372>@?A0xe9eda812@@$0A@@tr1@std@@X@tr1@std@@UEAAPEAV?$_Impl_base0@X@23@PEAX@Z 0000000180010cb8 f i UnityBuildCore.cpp.obj
 0001:0000fd24       ?Empty@?$CMSimpleStringT@D@@QEAAXXZ 0000000180010d24 f i UnityBuildCore.cpp.obj
 0001:0000fd24       ?Empty@?$CMSimpleStringT@E@@QEAAXXZ 0000000180010d24 f i UnityBuildCore.cpp.obj
 0001:0000fd6c       ??$_Dest_val@V?$allocator@V?$_Impl_no_alloc0@U?$_Callable_obj@V<lambda145>@?A0xe9eda812@@$0A@@tr1@std@@X@tr1@std@@@std@@V?$_Impl_no_alloc0@U?$_Callable_obj@V<lambda145>@?A0xe9eda812@@$0A@@tr1@std@@X@tr1@2@@std@@YAXAEAV?$allocator@V?$_Impl_no_alloc0@U?$_Callable_obj@V<lambda145>@?A0xe9eda812@@$0A@@tr1@std@@X@tr1@std@@@0@PEAV?$_Impl_no_alloc0@U?$_Callable_obj@V<lambda145>@?A0xe9eda812@@$0A@@tr1@std@@X@tr1@0@@Z 0000000180010d6c f i UnityBuildCore.cpp.obj
 0001:0000fd6c       ??$_Dest_val@V?$allocator@V?$_Impl_no_alloc0@U?$_Callable_obj@V<lambda321>@?A0xe9eda812@@$0A@@tr1@std@@X@tr1@std@@@std@@V?$_Impl_no_alloc0@U?$_Callable_obj@V<lambda321>@?A0xe9eda812@@$0A@@tr1@std@@X@tr1@2@@std@@YAXAEAV?$allocator@V?$_Impl_no_alloc0@U?$_Callable_obj@V<lambda321>@?A0xe9eda812@@$0A@@tr1@std@@X@tr1@std@@@0@PEAV?$_Impl_no_alloc0@U?$_Callable_obj@V<lambda321>@?A0xe9eda812@@$0A@@tr1@std@@X@tr1@0@@Z 0000000180010d6c f i UnityBuildCore.cpp.obj
 0001:0000fd6c       ??$_Dest_val@V?$allocator@V?$_Impl_no_alloc0@U?$_Callable_obj@V<lambda78>@?A0xe9eda812@@$0A@@tr1@std@@X@tr1@std@@@std@@V?$_Impl_no_alloc0@U?$_Callable_obj@V<lambda78>@?A0xe9eda812@@$0A@@tr1@std@@X@tr1@2@@std@@YAXAEAV?$allocator@V?$_Impl_no_alloc0@U?$_Callable_obj@V<lambda78>@?A0xe9eda812@@$0A@@tr1@std@@X@tr1@std@@@0@PEAV?$_Impl_no_alloc0@U?$_Callable_obj@V<lambda78>@?A0xe9eda812@@$0A@@tr1@std@@X@tr1@0@@Z 0000000180010d6c f i UnityBuildCore.cpp.obj
 0001:0000fd6c       ??$_Dest_val@V?$allocator@V?$_Impl_no_alloc0@U?$_Callable_obj@V<lambda294>@?A0xe9eda812@@$0A@@tr1@std@@X@tr1@std@@@std@@V?$_Impl_no_alloc0@U?$_Callable_obj@V<lambda294>@?A0xe9eda812@@$0A@@tr1@std@@X@tr1@2@@std@@YAXAEAV?$allocator@V?$_Impl_no_alloc0@U?$_Callable_obj@V<lambda294>@?A0xe9eda812@@$0A@@tr1@std@@X@tr1@std@@@0@PEAV?$_Impl_no_alloc0@U?$_Callable_obj@V<lambda294>@?A0xe9eda812@@$0A@@tr1@std@@X@tr1@0@@Z 0000000180010d6c f i UnityBuildCore.cpp.obj
 0001:0000fd6c       ??$_Dest_val@V?$allocator@V?$_Impl_no_alloc0@U?$_Callable_obj@V<lambda44>@?A0xe9eda812@@$0A@@tr1@std@@X@tr1@std@@@std@@V?$_Impl_no_alloc0@U?$_Callable_obj@V<lambda44>@?A0xe9eda812@@$0A@@tr1@std@@X@tr1@2@@std@@YAXAEAV?$allocator@V?$_Impl_no_alloc0@U?$_Callable_obj@V<lambda44>@?A0xe9eda812@@$0A@@tr1@std@@X@tr1@std@@@0@PEAV?$_Impl_no_alloc0@U?$_Callable_obj@V<lambda44>@?A0xe9eda812@@$0A@@tr1@std@@X@tr1@0@@Z 0000000180010d6c f i UnityBuildCore.cpp.obj
 0001:0000fd6c       ??$_Dest_val@V?$allocator@V?$_Impl_no_alloc0@U?$_Callable_obj@V<lambda364>@?A0xe9eda812@@$0A@@tr1@std@@X@tr1@std@@@std@@V?$_Impl_no_alloc0@U?$_Callable_obj@V<lambda364>@?A0xe9eda812@@$0A@@tr1@std@@X@tr1@2@@std@@YAXAEAV?$allocator@V?$_Impl_no_alloc0@U?$_Callable_obj@V<lambda364>@?A0xe9eda812@@$0A@@tr1@std@@X@tr1@std@@@0@PEAV?$_Impl_no_alloc0@U?$_Callable_obj@V<lambda364>@?A0xe9eda812@@$0A@@tr1@std@@X@tr1@0@@Z 0000000180010d6c f i UnityBuildCore.cpp.obj
 0001:0000fd6c       ??$_Dest_val@V?$allocator@V?$_Impl_no_alloc0@U?$_Callable_obj@V<lambda102>@?A0xe9eda812@@$0A@@tr1@std@@X@tr1@std@@@std@@V?$_Impl_no_alloc0@U?$_Callable_obj@V<lambda102>@?A0xe9eda812@@$0A@@tr1@std@@X@tr1@2@@std@@YAXAEAV?$allocator@V?$_Impl_no_alloc0@U?$_Callable_obj@V<lambda102>@?A0xe9eda812@@$0A@@tr1@std@@X@tr1@std@@@0@PEAV?$_Impl_no_alloc0@U?$_Callable_obj@V<lambda102>@?A0xe9eda812@@$0A@@tr1@std@@X@tr1@0@@Z 0000000180010d6c f i UnityBuildCore.cpp.obj
 0001:0000fd6c       ??$_Dest_val@V?$allocator@V?$_Impl_no_alloc0@U?$_Callable_obj@V<lambda195>@?A0xe9eda812@@$0A@@tr1@std@@X@tr1@std@@@std@@V?$_Impl_no_alloc0@U?$_Callable_obj@V<lambda195>@?A0xe9eda812@@$0A@@tr1@std@@X@tr1@2@@std@@YAXAEAV?$allocator@V?$_Impl_no_alloc0@U?$_Callable_obj@V<lambda195>@?A0xe9eda812@@$0A@@tr1@std@@X@tr1@std@@@0@PEAV?$_Impl_no_alloc0@U?$_Callable_obj@V<lambda195>@?A0xe9eda812@@$0A@@tr1@std@@X@tr1@0@@Z 0000000180010d6c f i UnityBuildCore.cpp.obj
 0001:0000fd6c       ??$_Dest_val@V?$allocator@V?$_Impl_no_alloc0@U?$_Callable_obj@V<lambda217>@?A0xe9eda812@@$0A@@tr1@std@@X@tr1@std@@@std@@V?$_Impl_no_alloc0@U?$_Callable_obj@V<lambda217>@?A0xe9eda812@@$0A@@tr1@std@@X@tr1@2@@std@@YAXAEAV?$allocator@V?$_Impl_no_alloc0@U?$_Callable_obj@V<lambda217>@?A0xe9eda812@@$0A@@tr1@std@@X@tr1@std@@@0@PEAV?$_Impl_no_alloc0@U?$_Callable_obj@V<lambda217>@?A0xe9eda812@@$0A@@tr1@std@@X@tr1@0@@Z 0000000180010d6c f i UnityBuildCore.cpp.obj
 0001:0000fd6c       ??$_Dest_val@V?$allocator@V?$_Impl_no_alloc0@U?$_Callable_obj@V<lambda339>@?A0xe9eda812@@$0A@@tr1@std@@X@tr1@std@@@std@@V?$_Impl_no_alloc0@U?$_Callable_obj@V<lambda339>@?A0xe9eda812@@$0A@@tr1@std@@X@tr1@2@@std@@YAXAEAV?$allocator@V?$_Impl_no_alloc0@U?$_Callable_obj@V<lambda339>@?A0xe9eda812@@$0A@@tr1@std@@X@tr1@std@@@0@PEAV?$_Impl_no_alloc0@U?$_Callable_obj@V<lambda339>@?A0xe9eda812@@$0A@@tr1@std@@X@tr1@0@@Z 0000000180010d6c f i UnityBuildCore.cpp.obj
 0001:0000fd6c       ??$_Dest_val@V?$allocator@V?$_Impl_no_alloc0@U?$_Callable_obj@V<lambda282>@?A0xe9eda812@@$0A@@tr1@std@@X@tr1@std@@@std@@V?$_Impl_no_alloc0@U?$_Callable_obj@V<lambda282>@?A0xe9eda812@@$0A@@tr1@std@@X@tr1@2@@std@@YAXAEAV?$allocator@V?$_Impl_no_alloc0@U?$_Callable_obj@V<lambda282>@?A0xe9eda812@@$0A@@tr1@std@@X@tr1@std@@@0@PEAV?$_Impl_no_alloc0@U?$_Callable_obj@V<lambda282>@?A0xe9eda812@@$0A@@tr1@std@@X@tr1@0@@Z 0000000180010d6c f i UnityBuildCore.cpp.obj
 0001:0000fd6c       ??$_Dest_val@V?$allocator@V?$_Impl_no_alloc0@U?$_Callable_obj@V<lambda227>@?A0xe9eda812@@$0A@@tr1@std@@X@tr1@std@@@std@@V?$_Impl_no_alloc0@U?$_Callable_obj@V<lambda227>@?A0xe9eda812@@$0A@@tr1@std@@X@tr1@2@@std@@YAXAEAV?$allocator@V?$_Impl_no_alloc0@U?$_Callable_obj@V<lambda227>@?A0xe9eda812@@$0A@@tr1@std@@X@tr1@std@@@0@PEAV?$_Impl_no_alloc0@U?$_Callable_obj@V<lambda227>@?A0xe9eda812@@$0A@@tr1@std@@X@tr1@0@@Z 0000000180010d6c f i UnityBuildCore.cpp.obj
 0001:0000fd6c       ??$_Dest_val@V?$allocator@V?$_Impl_no_alloc0@U?$_Callable_obj@V<lambda181>@?A0xe9eda812@@$0A@@tr1@std@@X@tr1@std@@@std@@V?$_Impl_no_alloc0@U?$_Callable_obj@V<lambda181>@?A0xe9eda812@@$0A@@tr1@std@@X@tr1@2@@std@@YAXAEAV?$allocator@V?$_Impl_no_alloc0@U?$_Callable_obj@V<lambda181>@?A0xe9eda812@@$0A@@tr1@std@@X@tr1@std@@@0@PEAV?$_Impl_no_alloc0@U?$_Callable_obj@V<lambda181>@?A0xe9eda812@@$0A@@tr1@std@@X@tr1@0@@Z 0000000180010d6c f i UnityBuildCore.cpp.obj
 0001:0000fd6c       ??$_Dest_val@V?$allocator@V?$_Impl_no_alloc0@U?$_Callable_obj@V<lambda234>@?A0xe9eda812@@$0A@@tr1@std@@X@tr1@std@@@std@@V?$_Impl_no_alloc0@U?$_Callable_obj@V<lambda234>@?A0xe9eda812@@$0A@@tr1@std@@X@tr1@2@@std@@YAXAEAV?$allocator@V?$_Impl_no_alloc0@U?$_Callable_obj@V<lambda234>@?A0xe9eda812@@$0A@@tr1@std@@X@tr1@std@@@0@PEAV?$_Impl_no_alloc0@U?$_Callable_obj@V<lambda234>@?A0xe9eda812@@$0A@@tr1@std@@X@tr1@0@@Z 0000000180010d6c f i UnityBuildCore.cpp.obj
 0001:0000fd6c       ??$_Dest_val@V?$allocator@V?$_Impl_no_alloc0@U?$_Callable_obj@V<lambda85>@?A0xe9eda812@@$0A@@tr1@std@@X@tr1@std@@@std@@V?$_Impl_no_alloc0@U?$_Callable_obj@V<lambda85>@?A0xe9eda812@@$0A@@tr1@std@@X@tr1@2@@std@@YAXAEAV?$allocator@V?$_Impl_no_alloc0@U?$_Callable_obj@V<lambda85>@?A0xe9eda812@@$0A@@tr1@std@@X@tr1@std@@@0@PEAV?$_Impl_no_alloc0@U?$_Callable_obj@V<lambda85>@?A0xe9eda812@@$0A@@tr1@std@@X@tr1@0@@Z 0000000180010d6c f i UnityBuildCore.cpp.obj
 0001:0000fd6c       ??$_Dest_val@V?$allocator@V?$_Impl_no_alloc0@U?$_Callable_obj@V<lambda26>@?A0xe9eda812@@$0A@@tr1@std@@X@tr1@std@@@std@@V?$_Impl_no_alloc0@U?$_Callable_obj@V<lambda26>@?A0xe9eda812@@$0A@@tr1@std@@X@tr1@2@@std@@YAXAEAV?$allocator@V?$_Impl_no_alloc0@U?$_Callable_obj@V<lambda26>@?A0xe9eda812@@$0A@@tr1@std@@X@tr1@std@@@0@PEAV?$_Impl_no_alloc0@U?$_Callable_obj@V<lambda26>@?A0xe9eda812@@$0A@@tr1@std@@X@tr1@0@@Z 0000000180010d6c f i UnityBuildCore.cpp.obj
 0001:0000fd6c       ??$_Dest_val@V?$allocator@V?$_Impl_no_alloc0@U?$_Callable_obj@V<lambda345>@?A0xe9eda812@@$0A@@tr1@std@@X@tr1@std@@@std@@V?$_Impl_no_alloc0@U?$_Callable_obj@V<lambda345>@?A0xe9eda812@@$0A@@tr1@std@@X@tr1@2@@std@@YAXAEAV?$allocator@V?$_Impl_no_alloc0@U?$_Callable_obj@V<lambda345>@?A0xe9eda812@@$0A@@tr1@std@@X@tr1@std@@@0@PEAV?$_Impl_no_alloc0@U?$_Callable_obj@V<lambda345>@?A0xe9eda812@@$0A@@tr1@std@@X@tr1@0@@Z 0000000180010d6c f i UnityBuildCore.cpp.obj
 0001:0000fd6c       ??$_Dest_val@V?$allocator@V?$_Impl_no_alloc0@U?$_Callable_obj@V<lambda209>@?A0xe9eda812@@$0A@@tr1@std@@X@tr1@std@@@std@@V?$_Impl_no_alloc0@U?$_Callable_obj@V<lambda209>@?A0xe9eda812@@$0A@@tr1@std@@X@tr1@2@@std@@YAXAEAV?$allocator@V?$_Impl_no_alloc0@U?$_Callable_obj@V<lambda209>@?A0xe9eda812@@$0A@@tr1@std@@X@tr1@std@@@0@PEAV?$_Impl_no_alloc0@U?$_Callable_obj@V<lambda209>@?A0xe9eda812@@$0A@@tr1@std@@X@tr1@0@@Z 0000000180010d6c f i UnityBuildCore.cpp.obj
 0001:0000fd6c       ??$_Dest_val@V?$allocator@V?$_Impl_no_alloc0@U?$_Callable_obj@V<lambda296>@?A0xe9eda812@@$0A@@tr1@std@@X@tr1@std@@@std@@V?$_Impl_no_alloc0@U?$_Callable_obj@V<lambda296>@?A0xe9eda812@@$0A@@tr1@std@@X@tr1@2@@std@@YAXAEAV?$allocator@V?$_Impl_no_alloc0@U?$_Callable_obj@V<lambda296>@?A0xe9eda812@@$0A@@tr1@std@@X@tr1@std@@@0@PEAV?$_Impl_no_alloc0@U?$_Callable_obj@V<lambda296>@?A0xe9eda812@@$0A@@tr1@std@@X@tr1@0@@Z 0000000180010d6c f i UnityBuildCore.cpp.obj
 0001:0000fd6c       ??$_Dest_val@V?$allocator@V?$_Impl_no_alloc0@U?$_Callable_obj@V<lambda22>@?A0xe9eda812@@$0A@@tr1@std@@X@tr1@std@@@std@@V?$_Impl_no_alloc0@U?$_Callable_obj@V<lambda22>@?A0xe9eda812@@$0A@@tr1@std@@X@tr1@2@@std@@YAXAEAV?$allocator@V?$_Impl_no_alloc0@U?$_Callable_obj@V<lambda22>@?A0xe9eda812@@$0A@@tr1@std@@X@tr1@std@@@0@PEAV?$_Impl_no_alloc0@U?$_Callable_obj@V<lambda22>@?A0xe9eda812@@$0A@@tr1@std@@X@tr1@0@@Z 0000000180010d6c f i UnityBuildCore.cpp.obj
 0001:0000fd6c       ??$_Dest_val@V?$allocator@V?$_Impl_no_alloc0@U?$_Callable_obj@V<lambda108>@?A0xe9eda812@@$0A@@tr1@std@@X@tr1@std@@@std@@V?$_Impl_no_alloc0@U?$_Callable_obj@V<lambda108>@?A0xe9eda812@@$0A@@tr1@std@@X@tr1@2@@std@@YAXAEAV?$allocator@V?$_Impl_no_alloc0@U?$_Callable_obj@V<lambda108>@?A0xe9eda812@@$0A@@tr1@std@@X@tr1@std@@@0@PEAV?$_Impl_no_alloc0@U?$_Callable_obj@V<lambda108>@?A0xe9eda812@@$0A@@tr1@std@@X@tr1@0@@Z 0000000180010d6c f i UnityBuildCore.cpp.obj
 0001:0000fd6c       ??$_Dest_val@V?$allocator@V?$_Impl_no_alloc0@U?$_Callable_obj@V<lambda204>@?A0xe9eda812@@$0A@@tr1@std@@X@tr1@std@@@std@@V?$_Impl_no_alloc0@U?$_Callable_obj@V<lambda204>@?A0xe9eda812@@$0A@@tr1@std@@X@tr1@2@@std@@YAXAEAV?$allocator@V?$_Impl_no_alloc0@U?$_Callable_obj@V<lambda204>@?A0xe9eda812@@$0A@@tr1@std@@X@tr1@std@@@0@PEAV?$_Impl_no_alloc0@U?$_Callable_obj@V<lambda204>@?A0xe9eda812@@$0A@@tr1@std@@X@tr1@0@@Z 0000000180010d6c f i UnityBuildCore.cpp.obj
 0001:0000fd6c       ??$_Dest_val@V?$allocator@V?$_Impl_no_alloc0@U?$_Callable_obj@V<lambda248>@?A0xe9eda812@@$0A@@tr1@std@@X@tr1@std@@@std@@V?$_Impl_no_alloc0@U?$_Callable_obj@V<lambda248>@?A0xe9eda812@@$0A@@tr1@std@@X@tr1@2@@std@@YAXAEAV?$allocator@V?$_Impl_no_alloc0@U?$_Callable_obj@V<lambda248>@?A0xe9eda812@@$0A@@tr1@std@@X@tr1@std@@@0@PEAV?$_Impl_no_alloc0@U?$_Callable_obj@V<lambda248>@?A0xe9eda812@@$0A@@tr1@std@@X@tr1@0@@Z 0000000180010d6c f i UnityBuildCore.cpp.obj
 0001:0000fd6c       ??$_Dest_val@V?$allocator@V?$_Impl_no_alloc0@U?$_Callable_obj@V<lambda214>@?A0xe9eda812@@$0A@@tr1@std@@X@tr1@std@@@std@@V?$_Impl_no_alloc0@U?$_Callable_obj@V<lambda214>@?A0xe9eda812@@$0A@@tr1@std@@X@tr1@2@@std@@YAXAEAV?$allocator@V?$_Impl_no_alloc0@U?$_Callable_obj@V<lambda214>@?A0xe9eda812@@$0A@@tr1@std@@X@tr1@std@@@0@PEAV?$_Impl_no_alloc0@U?$_Callable_obj@V<lambda214>@?A0xe9eda812@@$0A@@tr1@std@@X@tr1@0@@Z 0000000180010d6c f i UnityBuildCore.cpp.obj
 0001:0000fd6c       ??$_Dest_val@V?$allocator@V?$_Impl_no_alloc0@U?$_Callable_obj@V<lambda313>@?A0xe9eda812@@$0A@@tr1@std@@X@tr1@std@@@std@@V?$_Impl_no_alloc0@U?$_Callable_obj@V<lambda313>@?A0xe9eda812@@$0A@@tr1@std@@X@tr1@2@@std@@YAXAEAV?$allocator@V?$_Impl_no_alloc0@U?$_Callable_obj@V<lambda313>@?A0xe9eda812@@$0A@@tr1@std@@X@tr1@std@@@0@PEAV?$_Impl_no_alloc0@U?$_Callable_obj@V<lambda313>@?A0xe9eda812@@$0A@@tr1@std@@X@tr1@0@@Z 0000000180010d6c f i UnityBuildCore.cpp.obj
 0001:0000fd6c       ??$_Dest_val@V?$allocator@V?$_Impl_no_alloc0@U?$_Callable_obj@V<lambda105>@?A0xe9eda812@@$0A@@tr1@std@@X@tr1@std@@@std@@V?$_Impl_no_alloc0@U?$_Callable_obj@V<lambda105>@?A0xe9eda812@@$0A@@tr1@std@@X@tr1@2@@std@@YAXAEAV?$allocator@V?$_Impl_no_alloc0@U?$_Callable_obj@V<lambda105>@?A0xe9eda812@@$0A@@tr1@std@@X@tr1@std@@@0@PEAV?$_Impl_no_alloc0@U?$_Callable_obj@V<lambda105>@?A0xe9eda812@@$0A@@tr1@std@@X@tr1@0@@Z 0000000180010d6c f i UnityBuildCore.cpp.obj
 0001:0000fd6c       ??$_Dest_val@V?$allocator@V?$_Impl_no_alloc0@U?$_Callable_obj@V<lambda366>@?A0xe9eda812@@$0A@@tr1@std@@X@tr1@std@@@std@@V?$_Impl_no_alloc0@U?$_Callable_obj@V<lambda366>@?A0xe9eda812@@$0A@@tr1@std@@X@tr1@2@@std@@YAXAEAV?$allocator@V?$_Impl_no_alloc0@U?$_Callable_obj@V<lambda366>@?A0xe9eda812@@$0A@@tr1@std@@X@tr1@std@@@0@PEAV?$_Impl_no_alloc0@U?$_Callable_obj@V<lambda366>@?A0xe9eda812@@$0A@@tr1@std@@X@tr1@0@@Z 0000000180010d6c f i UnityBuildCore.cpp.obj
 0001:0000fd6c       ??$_Dest_val@V?$allocator@V?$_Impl_no_alloc0@U?$_Callable_obj@V<lambda138>@?A0xe9eda812@@$0A@@tr1@std@@X@tr1@std@@@std@@V?$_Impl_no_alloc0@U?$_Callable_obj@V<lambda138>@?A0xe9eda812@@$0A@@tr1@std@@X@tr1@2@@std@@YAXAEAV?$allocator@V?$_Impl_no_alloc0@U?$_Callable_obj@V<lambda138>@?A0xe9eda812@@$0A@@tr1@std@@X@tr1@std@@@0@PEAV?$_Impl_no_alloc0@U?$_Callable_obj@V<lambda138>@?A0xe9eda812@@$0A@@tr1@std@@X@tr1@0@@Z 0000000180010d6c f i UnityBuildCore.cpp.obj
 0001:0000fd6c       ??$_Dest_val@V?$allocator@V?$_Impl_no_alloc0@U?$_Callable_obj@V<lambda343>@?A0xe9eda812@@$0A@@tr1@std@@X@tr1@std@@@std@@V?$_Impl_no_alloc0@U?$_Callable_obj@V<lambda343>@?A0xe9eda812@@$0A@@tr1@std@@X@tr1@2@@std@@YAXAEAV?$allocator@V?$_Impl_no_alloc0@U?$_Callable_obj@V<lambda343>@?A0xe9eda812@@$0A@@tr1@std@@X@tr1@std@@@0@PEAV?$_Impl_no_alloc0@U?$_Callable_obj@V<lambda343>@?A0xe9eda812@@$0A@@tr1@std@@X@tr1@0@@Z 0000000180010d6c f i UnityBuildCore.cpp.obj
 0001:0000fd6c       ??$_Dest_val@V?$allocator@V?$_Impl_no_alloc0@U?$_Callable_obj@V<lambda38>@?A0xe9eda812@@$0A@@tr1@std@@X@tr1@std@@@std@@V?$_Impl_no_alloc0@U?$_Callable_obj@V<lambda38>@?A0xe9eda812@@$0A@@tr1@std@@X@tr1@2@@std@@YAXAEAV?$allocator@V?$_Impl_no_alloc0@U?$_Callable_obj@V<lambda38>@?A0xe9eda812@@$0A@@tr1@std@@X@tr1@std@@@0@PEAV?$_Impl_no_alloc0@U?$_Callable_obj@V<lambda38>@?A0xe9eda812@@$0A@@tr1@std@@X@tr1@0@@Z 0000000180010d6c f i UnityBuildCore.cpp.obj
 0001:0000fd6c       ??$_Dest_val@V?$allocator@V?$_Impl_no_alloc0@U?$_Callable_obj@V<lambda147>@?A0xe9eda812@@$0A@@tr1@std@@X@tr1@std@@@std@@V?$_Impl_no_alloc0@U?$_Callable_obj@V<lambda147>@?A0xe9eda812@@$0A@@tr1@std@@X@tr1@2@@std@@YAXAEAV?$allocator@V?$_Impl_no_alloc0@U?$_Callable_obj@V<lambda147>@?A0xe9eda812@@$0A@@tr1@std@@X@tr1@std@@@0@PEAV?$_Impl_no_alloc0@U?$_Callable_obj@V<lambda147>@?A0xe9eda812@@$0A@@tr1@std@@X@tr1@0@@Z 0000000180010d6c f i UnityBuildCore.cpp.obj
 0001:0000fd6c       ??$_Dest_val@V?$allocator@V?$_Impl_no_alloc0@U?$_Callable_obj@V<lambda60>@?A0xe9eda812@@$0A@@tr1@std@@X@tr1@std@@@std@@V?$_Impl_no_alloc0@U?$_Callable_obj@V<lambda60>@?A0xe9eda812@@$0A@@tr1@std@@X@tr1@2@@std@@YAXAEAV?$allocator@V?$_Impl_no_alloc0@U?$_Callable_obj@V<lambda60>@?A0xe9eda812@@$0A@@tr1@std@@X@tr1@std@@@0@PEAV?$_Impl_no_alloc0@U?$_Callable_obj@V<lambda60>@?A0xe9eda812@@$0A@@tr1@std@@X@tr1@0@@Z 0000000180010d6c f i UnityBuildCore.cpp.obj
 0001:0000fd6c       ??$_Dest_val@V?$allocator@V?$_Impl_no_alloc0@U?$_Callable_obj@V<lambda220>@?A0xe9eda812@@$0A@@tr1@std@@X@tr1@std@@@std@@V?$_Impl_no_alloc0@U?$_Callable_obj@V<lambda220>@?A0xe9eda812@@$0A@@tr1@std@@X@tr1@2@@std@@YAXAEAV?$allocator@V?$_Impl_no_alloc0@U?$_Callable_obj@V<lambda220>@?A0xe9eda812@@$0A@@tr1@std@@X@tr1@std@@@0@PEAV?$_Impl_no_alloc0@U?$_Callable_obj@V<lambda220>@?A0xe9eda812@@$0A@@tr1@std@@X@tr1@0@@Z 0000000180010d6c f i UnityBuildCore.cpp.obj
 0001:0000fd6c       ??$_Dest_val@V?$allocator@V?$_Impl_no_alloc0@U?$_Callable_obj@V<lambda143>@?A0xe9eda812@@$0A@@tr1@std@@X@tr1@std@@@std@@V?$_Impl_no_alloc0@U?$_Callable_obj@V<lambda143>@?A0xe9eda812@@$0A@@tr1@std@@X@tr1@2@@std@@YAXAEAV?$allocator@V?$_Impl_no_alloc0@U?$_Callable_obj@V<lambda143>@?A0xe9eda812@@$0A@@tr1@std@@X@tr1@std@@@0@PEAV?$_Impl_no_alloc0@U?$_Callable_obj@V<lambda143>@?A0xe9eda812@@$0A@@tr1@std@@X@tr1@0@@Z 0000000180010d6c f i UnityBuildCore.cpp.obj
 0001:0000fd6c       ??$_Dest_val@V?$allocator@V?$_Impl_no_alloc0@U?$_Callable_obj@V<lambda332>@?A0xe9eda812@@$0A@@tr1@std@@X@tr1@std@@@std@@V?$_Impl_no_alloc0@U?$_Callable_obj@V<lambda332>@?A0xe9eda812@@$0A@@tr1@std@@X@tr1@2@@std@@YAXAEAV?$allocator@V?$_Impl_no_alloc0@U?$_Callable_obj@V<lambda332>@?A0xe9eda812@@$0A@@tr1@std@@X@tr1@std@@@0@PEAV?$_Impl_no_alloc0@U?$_Callable_obj@V<lambda332>@?A0xe9eda812@@$0A@@tr1@std@@X@tr1@0@@Z 0000000180010d6c f i UnityBuildCore.cpp.obj
 0001:0000fd6c       ??$_Dest_val@V?$allocator@V?$_Impl_no_alloc0@U?$_Callable_obj@V<lambda61>@?A0xe9eda812@@$0A@@tr1@std@@X@tr1@std@@@std@@V?$_Impl_no_alloc0@U?$_Callable_obj@V<lambda61>@?A0xe9eda812@@$0A@@tr1@std@@X@tr1@2@@std@@YAXAEAV?$allocator@V?$_Impl_no_alloc0@U?$_Callable_obj@V<lambda61>@?A0xe9eda812@@$0A@@tr1@std@@X@tr1@std@@@0@PEAV?$_Impl_no_alloc0@U?$_Callable_obj@V<lambda61>@?A0xe9eda812@@$0A@@tr1@std@@X@tr1@0@@Z 0000000180010d6c f i UnityBuildCore.cpp.obj
 0001:0000fd6c       ??$_Dest_val@V?$allocator@V?$_Impl_no_alloc0@U?$_Callable_obj@V<lambda31>@?A0xe9eda812@@$0A@@tr1@std@@X@tr1@std@@@std@@V?$_Impl_no_alloc0@U?$_Callable_obj@V<lambda31>@?A0xe9eda812@@$0A@@tr1@std@@X@tr1@2@@std@@YAXAEAV?$allocator@V?$_Impl_no_alloc0@U?$_Callable_obj@V<lambda31>@?A0xe9eda812@@$0A@@tr1@std@@X@tr1@std@@@0@PEAV?$_Impl_no_alloc0@U?$_Callable_obj@V<lambda31>@?A0xe9eda812@@$0A@@tr1@std@@X@tr1@0@@Z 0000000180010d6c f i UnityBuildCore.cpp.obj
 0001:0000fd6c       ??$_Dest_val@V?$allocator@V?$_Impl_no_alloc0@U?$_Callable_obj@V<lambda82>@?A0xe9eda812@@$0A@@tr1@std@@X@tr1@std@@@std@@V?$_Impl_no_alloc0@U?$_Callable_obj@V<lambda82>@?A0xe9eda812@@$0A@@tr1@std@@X@tr1@2@@std@@YAXAEAV?$allocator@V?$_Impl_no_alloc0@U?$_Callable_obj@V<lambda82>@?A0xe9eda812@@$0A@@tr1@std@@X@tr1@std@@@0@PEAV?$_Impl_no_alloc0@U?$_Callable_obj@V<lambda82>@?A0xe9eda812@@$0A@@tr1@std@@X@tr1@0@@Z 0000000180010d6c f i UnityBuildCore.cpp.obj
 0001:0000fd6c       ??$_Dest_val@V?$allocator@V?$_Impl_no_alloc0@U?$_Callable_obj@V<lambda35>@?A0xe9eda812@@$0A@@tr1@std@@X@tr1@std@@@std@@V?$_Impl_no_alloc0@U?$_Callable_obj@V<lambda35>@?A0xe9eda812@@$0A@@tr1@std@@X@tr1@2@@std@@YAXAEAV?$allocator@V?$_Impl_no_alloc0@U?$_Callable_obj@V<lambda35>@?A0xe9eda812@@$0A@@tr1@std@@X@tr1@std@@@0@PEAV?$_Impl_no_alloc0@U?$_Callable_obj@V<lambda35>@?A0xe9eda812@@$0A@@tr1@std@@X@tr1@0@@Z 0000000180010d6c f i UnityBuildCore.cpp.obj
 0001:0000fd6c       ??$_Dest_val@V?$allocator@V?$_Impl_no_alloc0@U?$_Callable_obj@V<lambda201>@?A0xe9eda812@@$0A@@tr1@std@@X@tr1@std@@@std@@V?$_Impl_no_alloc0@U?$_Callable_obj@V<lambda201>@?A0xe9eda812@@$0A@@tr1@std@@X@tr1@2@@std@@YAXAEAV?$allocator@V?$_Impl_no_alloc0@U?$_Callable_obj@V<lambda201>@?A0xe9eda812@@$0A@@tr1@std@@X@tr1@std@@@0@PEAV?$_Impl_no_alloc0@U?$_Callable_obj@V<lambda201>@?A0xe9eda812@@$0A@@tr1@std@@X@tr1@0@@Z 0000000180010d6c f i UnityBuildCore.cpp.obj
 0001:0000fd6c       ??$_Dest_val@V?$allocator@V?$_Impl_no_alloc0@U?$_Callable_obj@V<lambda275>@?A0xe9eda812@@$0A@@tr1@std@@X@tr1@std@@@std@@V?$_Impl_no_alloc0@U?$_Callable_obj@V<lambda275>@?A0xe9eda812@@$0A@@tr1@std@@X@tr1@2@@std@@YAXAEAV?$allocator@V?$_Impl_no_alloc0@U?$_Callable_obj@V<lambda275>@?A0xe9eda812@@$0A@@tr1@std@@X@tr1@std@@@0@PEAV?$_Impl_no_alloc0@U?$_Callable_obj@V<lambda275>@?A0xe9eda812@@$0A@@tr1@std@@X@tr1@0@@Z 0000000180010d6c f i UnityBuildCore.cpp.obj
 0001:0000fd6c       ??$_Dest_val@V?$allocator@V?$_Impl_no_alloc0@U?$_Callable_obj@V<lambda233>@?A0xe9eda812@@$0A@@tr1@std@@X@tr1@std@@@std@@V?$_Impl_no_alloc0@U?$_Callable_obj@V<lambda233>@?A0xe9eda812@@$0A@@tr1@std@@X@tr1@2@@std@@YAXAEAV?$allocator@V?$_Impl_no_alloc0@U?$_Callable_obj@V<lambda233>@?A0xe9eda812@@$0A@@tr1@std@@X@tr1@std@@@0@PEAV?$_Impl_no_alloc0@U?$_Callable_obj@V<lambda233>@?A0xe9eda812@@$0A@@tr1@std@@X@tr1@0@@Z 0000000180010d6c f i UnityBuildCore.cpp.obj
 0001:0000fd6c       ??$_Dest_val@V?$allocator@V?$_Impl_no_alloc0@U?$_Callable_obj@V<lambda340>@?A0xe9eda812@@$0A@@tr1@std@@X@tr1@std@@@std@@V?$_Impl_no_alloc0@U?$_Callable_obj@V<lambda340>@?A0xe9eda812@@$0A@@tr1@std@@X@tr1@2@@std@@YAXAEAV?$allocator@V?$_Impl_no_alloc0@U?$_Callable_obj@V<lambda340>@?A0xe9eda812@@$0A@@tr1@std@@X@tr1@std@@@0@PEAV?$_Impl_no_alloc0@U?$_Callable_obj@V<lambda340>@?A0xe9eda812@@$0A@@tr1@std@@X@tr1@0@@Z 0000000180010d6c f i UnityBuildCore.cpp.obj
 0001:0000fd6c       ??$_Dest_val@V?$allocator@V?$_Impl_no_alloc0@U?$_Callable_obj@V<lambda243>@?A0xe9eda812@@$0A@@tr1@std@@X@tr1@std@@@std@@V?$_Impl_no_alloc0@U?$_Callable_obj@V<lambda243>@?A0xe9eda812@@$0A@@tr1@std@@X@tr1@2@@std@@YAXAEAV?$allocator@V?$_Impl_no_alloc0@U?$_Callable_obj@V<lambda243>@?A0xe9eda812@@$0A@@tr1@std@@X@tr1@std@@@0@PEAV?$_Impl_no_alloc0@U?$_Callable_obj@V<lambda243>@?A0xe9eda812@@$0A@@tr1@std@@X@tr1@0@@Z 0000000180010d6c f i UnityBuildCore.cpp.obj
 0001:0000fd6c       ??$_Dest_val@V?$allocator@V?$_Impl_no_alloc0@U?$_Callable_obj@V<lambda158>@?A0xe9eda812@@$0A@@tr1@std@@X@tr1@std@@@std@@V?$_Impl_no_alloc0@U?$_Callable_obj@V<lambda158>@?A0xe9eda812@@$0A@@tr1@std@@X@tr1@2@@std@@YAXAEAV?$allocator@V?$_Impl_no_alloc0@U?$_Callable_obj@V<lambda158>@?A0xe9eda812@@$0A@@tr1@std@@X@tr1@std@@@0@PEAV?$_Impl_no_alloc0@U?$_Callable_obj@V<lambda158>@?A0xe9eda812@@$0A@@tr1@std@@X@tr1@0@@Z 0000000180010d6c f i UnityBuildCore.cpp.obj
 0001:0000fd6c       ??$_Dest_val@V?$allocator@V?$_Impl_no_alloc0@U?$_Callable_obj@V<lambda231>@?A0xe9eda812@@$0A@@tr1@std@@X@tr1@std@@@std@@V?$_Impl_no_alloc0@U?$_Callable_obj@V<lambda231>@?A0xe9eda812@@$0A@@tr1@std@@X@tr1@2@@std@@YAXAEAV?$allocator@V?$_Impl_no_alloc0@U?$_Callable_obj@V<lambda231>@?A0xe9eda812@@$0A@@tr1@std@@X@tr1@std@@@0@PEAV?$_Impl_no_alloc0@U?$_Callable_obj@V<lambda231>@?A0xe9eda812@@$0A@@tr1@std@@X@tr1@0@@Z 0000000180010d6c f i UnityBuildCore.cpp.obj
 0001:0000fd6c       ??$_Dest_val@V?$allocator@V?$_Impl_no_alloc0@U?$_Callable_obj@V<lambda202>@?A0xe9eda812@@$0A@@tr1@std@@X@tr1@std@@@std@@V?$_Impl_no_alloc0@U?$_Callable_obj@V<lambda202>@?A0xe9eda812@@$0A@@tr1@std@@X@tr1@2@@std@@YAXAEAV?$allocator@V?$_Impl_no_alloc0@U?$_Callable_obj@V<lambda202>@?A0xe9eda812@@$0A@@tr1@std@@X@tr1@std@@@0@PEAV?$_Impl_no_alloc0@U?$_Callable_obj@V<lambda202>@?A0xe9eda812@@$0A@@tr1@std@@X@tr1@0@@Z 0000000180010d6c f i UnityBuildCore.cpp.obj
 0001:0000fd6c       ??$_Dest_val@V?$allocator@V?$_Impl_no_alloc0@U?$_Callable_obj@V<lambda137>@?A0xe9eda812@@$0A@@tr1@std@@X@tr1@std@@@std@@V?$_Impl_no_alloc0@U?$_Callable_obj@V<lambda137>@?A0xe9eda812@@$0A@@tr1@std@@X@tr1@2@@std@@YAXAEAV?$allocator@V?$_Impl_no_alloc0@U?$_Callable_obj@V<lambda137>@?A0xe9eda812@@$0A@@tr1@std@@X@tr1@std@@@0@PEAV?$_Impl_no_alloc0@U?$_Callable_obj@V<lambda137>@?A0xe9eda812@@$0A@@tr1@std@@X@tr1@0@@Z 0000000180010d6c f i UnityBuildCore.cpp.obj
 0001:0000fd6c       ??$_Dest_val@V?$allocator@V?$_Impl_no_alloc0@U?$_Callable_obj@V<lambda141>@?A0xe9eda812@@$0A@@tr1@std@@X@tr1@std@@@std@@V?$_Impl_no_alloc0@U?$_Callable_obj@V<lambda141>@?A0xe9eda812@@$0A@@tr1@std@@X@tr1@2@@std@@YAXAEAV?$allocator@V?$_Impl_no_alloc0@U?$_Callable_obj@V<lambda141>@?A0xe9eda812@@$0A@@tr1@std@@X@tr1@std@@@0@PEAV?$_Impl_no_alloc0@U?$_Callable_obj@V<lambda141>@?A0xe9eda812@@$0A@@tr1@std@@X@tr1@0@@Z 0000000180010d6c f i UnityBuildCore.cpp.obj
 0001:0000fd6c       ??$_Dest_val@V?$allocator@V?$_Impl_no_alloc0@U?$_Callable_obj@V<lambda142>@?A0xe9eda812@@$0A@@tr1@std@@X@tr1@std@@@std@@V?$_Impl_no_alloc0@U?$_Callable_obj@V<lambda142>@?A0xe9eda812@@$0A@@tr1@std@@X@tr1@2@@std@@YAXAEAV?$allocator@V?$_Impl_no_alloc0@U?$_Callable_obj@V<lambda142>@?A0xe9eda812@@$0A@@tr1@std@@X@tr1@std@@@0@PEAV?$_Impl_no_alloc0@U?$_Callable_obj@V<lambda142>@?A0xe9eda812@@$0A@@tr1@std@@X@tr1@0@@Z 0000000180010d6c f i UnityBuildCore.cpp.obj
 0001:0000fd6c       ??$_Dest_val@V?$allocator@V?$_Impl_no_alloc0@U?$_Callable_obj@V<lambda164>@?A0xe9eda812@@$0A@@tr1@std@@X@tr1@std@@@std@@V?$_Impl_no_alloc0@U?$_Callable_obj@V<lambda164>@?A0xe9eda812@@$0A@@tr1@std@@X@tr1@2@@std@@YAXAEAV?$allocator@V?$_Impl_no_alloc0@U?$_Callable_obj@V<lambda164>@?A0xe9eda812@@$0A@@tr1@std@@X@tr1@std@@@0@PEAV?$_Impl_no_alloc0@U?$_Callable_obj@V<lambda164>@?A0xe9eda812@@$0A@@tr1@std@@X@tr1@0@@Z 0000000180010d6c f i UnityBuildCore.cpp.obj
 0001:0000fd6c       ??$_Dest_val@V?$allocator@V?$_Impl_no_alloc0@U?$_Callable_obj@V<lambda301>@?A0xe9eda812@@$0A@@tr1@std@@X@tr1@std@@@std@@V?$_Impl_no_alloc0@U?$_Callable_obj@V<lambda301>@?A0xe9eda812@@$0A@@tr1@std@@X@tr1@2@@std@@YAXAEAV?$allocator@V?$_Impl_no_alloc0@U?$_Callable_obj@V<lambda301>@?A0xe9eda812@@$0A@@tr1@std@@X@tr1@std@@@0@PEAV?$_Impl_no_alloc0@U?$_Callable_obj@V<lambda301>@?A0xe9eda812@@$0A@@tr1@std@@X@tr1@0@@Z 0000000180010d6c f i UnityBuildCore.cpp.obj
 0001:0000fd6c       ??$_Dest_val@V?$allocator@V?$_Impl_no_alloc0@U?$_Callable_obj@V<lambda250>@?A0xe9eda812@@$0A@@tr1@std@@X@tr1@std@@@std@@V?$_Impl_no_alloc0@U?$_Callable_obj@V<lambda250>@?A0xe9eda812@@$0A@@tr1@std@@X@tr1@2@@std@@YAXAEAV?$allocator@V?$_Impl_no_alloc0@U?$_Callable_obj@V<lambda250>@?A0xe9eda812@@$0A@@tr1@std@@X@tr1@std@@@0@PEAV?$_Impl_no_alloc0@U?$_Callable_obj@V<lambda250>@?A0xe9eda812@@$0A@@tr1@std@@X@tr1@0@@Z 0000000180010d6c f i UnityBuildCore.cpp.obj
 0001:0000fd6c       ??$_Dest_val@V?$allocator@V?$_Impl_no_alloc0@U?$_Callable_obj@V<lambda131>@?A0xe9eda812@@$0A@@tr1@std@@X@tr1@std@@@std@@V?$_Impl_no_alloc0@U?$_Callable_obj@V<lambda131>@?A0xe9eda812@@$0A@@tr1@std@@X@tr1@2@@std@@YAXAEAV?$allocator@V?$_Impl_no_alloc0@U?$_Callable_obj@V<lambda131>@?A0xe9eda812@@$0A@@tr1@std@@X@tr1@std@@@0@PEAV?$_Impl_no_alloc0@U?$_Callable_obj@V<lambda131>@?A0xe9eda812@@$0A@@tr1@std@@X@tr1@0@@Z 0000000180010d6c f i UnityBuildCore.cpp.obj
 0001:0000fd6c       ??$_Dest_val@V?$allocator@V?$_Impl_no_alloc0@U?$_Callable_obj@V<lambda238>@?A0xe9eda812@@$0A@@tr1@std@@X@tr1@std@@@std@@V?$_Impl_no_alloc0@U?$_Callable_obj@V<lambda238>@?A0xe9eda812@@$0A@@tr1@std@@X@tr1@2@@std@@YAXAEAV?$allocator@V?$_Impl_no_alloc0@U?$_Callable_obj@V<lambda238>@?A0xe9eda812@@$0A@@tr1@std@@X@tr1@std@@@0@PEAV?$_Impl_no_alloc0@U?$_Callable_obj@V<lambda238>@?A0xe9eda812@@$0A@@tr1@std@@X@tr1@0@@Z 0000000180010d6c f i UnityBuildCore.cpp.obj
 0001:0000fd6c       ??$_Dest_val@V?$allocator@V?$_Impl_no_alloc0@U?$_Callable_obj@V<lambda99>@?A0xe9eda812@@$0A@@tr1@std@@X@tr1@std@@@std@@V?$_Impl_no_alloc0@U?$_Callable_obj@V<lambda99>@?A0xe9eda812@@$0A@@tr1@std@@X@tr1@2@@std@@YAXAEAV?$allocator@V?$_Impl_no_alloc0@U?$_Callable_obj@V<lambda99>@?A0xe9eda812@@$0A@@tr1@std@@X@tr1@std@@@0@PEAV?$_Impl_no_alloc0@U?$_Callable_obj@V<lambda99>@?A0xe9eda812@@$0A@@tr1@std@@X@tr1@0@@Z 0000000180010d6c f i UnityBuildCore.cpp.obj
 0001:0000fd6c       ??$_Dest_val@V?$allocator@V?$_Impl_no_alloc0@U?$_Callable_obj@V<lambda70>@?A0xe9eda812@@$0A@@tr1@std@@X@tr1@std@@@std@@V?$_Impl_no_alloc0@U?$_Callable_obj@V<lambda70>@?A0xe9eda812@@$0A@@tr1@std@@X@tr1@2@@std@@YAXAEAV?$allocator@V?$_Impl_no_alloc0@U?$_Callable_obj@V<lambda70>@?A0xe9eda812@@$0A@@tr1@std@@X@tr1@std@@@0@PEAV?$_Impl_no_alloc0@U?$_Callable_obj@V<lambda70>@?A0xe9eda812@@$0A@@tr1@std@@X@tr1@0@@Z 0000000180010d6c f i UnityBuildCore.cpp.obj
 0001:0000fd6c       ??$_Dest_val@V?$allocator@V?$_Impl_no_alloc0@U?$_Callable_obj@V<lambda240>@?A0xe9eda812@@$0A@@tr1@std@@X@tr1@std@@@std@@V?$_Impl_no_alloc0@U?$_Callable_obj@V<lambda240>@?A0xe9eda812@@$0A@@tr1@std@@X@tr1@2@@std@@YAXAEAV?$allocator@V?$_Impl_no_alloc0@U?$_Callable_obj@V<lambda240>@?A0xe9eda812@@$0A@@tr1@std@@X@tr1@std@@@0@PEAV?$_Impl_no_alloc0@U?$_Callable_obj@V<lambda240>@?A0xe9eda812@@$0A@@tr1@std@@X@tr1@0@@Z 0000000180010d6c f i UnityBuildCore.cpp.obj
 0001:0000fd6c       ??$_Dest_val@V?$allocator@V?$_Impl_no_alloc0@U?$_Callable_obj@V<lambda304>@?A0xe9eda812@@$0A@@tr1@std@@X@tr1@std@@@std@@V?$_Impl_no_alloc0@U?$_Callable_obj@V<lambda304>@?A0xe9eda812@@$0A@@tr1@std@@X@tr1@2@@std@@YAXAEAV?$allocator@V?$_Impl_no_alloc0@U?$_Callable_obj@V<lambda304>@?A0xe9eda812@@$0A@@tr1@std@@X@tr1@std@@@0@PEAV?$_Impl_no_alloc0@U?$_Callable_obj@V<lambda304>@?A0xe9eda812@@$0A@@tr1@std@@X@tr1@0@@Z 0000000180010d6c f i UnityBuildCore.cpp.obj
 0001:0000fd6c       ??$_Dest_val@V?$allocator@V?$_Impl_no_alloc0@U?$_Callable_obj@V<lambda50>@?A0xe9eda812@@$0A@@tr1@std@@X@tr1@std@@@std@@V?$_Impl_no_alloc0@U?$_Callable_obj@V<lambda50>@?A0xe9eda812@@$0A@@tr1@std@@X@tr1@2@@std@@YAXAEAV?$allocator@V?$_Impl_no_alloc0@U?$_Callable_obj@V<lambda50>@?A0xe9eda812@@$0A@@tr1@std@@X@tr1@std@@@0@PEAV?$_Impl_no_alloc0@U?$_Callable_obj@V<lambda50>@?A0xe9eda812@@$0A@@tr1@std@@X@tr1@0@@Z 0000000180010d6c f i UnityBuildCore.cpp.obj
 0001:0000fd6c       ??$_Dest_val@V?$allocator@V?$_Impl_no_alloc0@U?$_Callable_obj@V<lambda55>@?A0xe9eda812@@$0A@@tr1@std@@X@tr1@std@@@std@@V?$_Impl_no_alloc0@U?$_Callable_obj@V<lambda55>@?A0xe9eda812@@$0A@@tr1@std@@X@tr1@2@@std@@YAXAEAV?$allocator@V?$_Impl_no_alloc0@U?$_Callable_obj@V<lambda55>@?A0xe9eda812@@$0A@@tr1@std@@X@tr1@std@@@0@PEAV?$_Impl_no_alloc0@U?$_Callable_obj@V<lambda55>@?A0xe9eda812@@$0A@@tr1@std@@X@tr1@0@@Z 0000000180010d6c f i UnityBuildCore.cpp.obj
 0001:0000fd6c       ??$_Dest_val@V?$allocator@V?$_Impl_no_alloc0@U?$_Callable_obj@V<lambda337>@?A0xe9eda812@@$0A@@tr1@std@@X@tr1@std@@@std@@V?$_Impl_no_alloc0@U?$_Callable_obj@V<lambda337>@?A0xe9eda812@@$0A@@tr1@std@@X@tr1@2@@std@@YAXAEAV?$allocator@V?$_Impl_no_alloc0@U?$_Callable_obj@V<lambda337>@?A0xe9eda812@@$0A@@tr1@std@@X@tr1@std@@@0@PEAV?$_Impl_no_alloc0@U?$_Callable_obj@V<lambda337>@?A0xe9eda812@@$0A@@tr1@std@@X@tr1@0@@Z 0000000180010d6c f i UnityBuildCore.cpp.obj
 0001:0000fd6c       ??$_Dest_val@V?$allocator@V?$_Impl_no_alloc0@U?$_Callable_obj@V<lambda224>@?A0xe9eda812@@$0A@@tr1@std@@X@tr1@std@@@std@@V?$_Impl_no_alloc0@U?$_Callable_obj@V<lambda224>@?A0xe9eda812@@$0A@@tr1@std@@X@tr1@2@@std@@YAXAEAV?$allocator@V?$_Impl_no_alloc0@U?$_Callable_obj@V<lambda224>@?A0xe9eda812@@$0A@@tr1@std@@X@tr1@std@@@0@PEAV?$_Impl_no_alloc0@U?$_Callable_obj@V<lambda224>@?A0xe9eda812@@$0A@@tr1@std@@X@tr1@0@@Z 0000000180010d6c f i UnityBuildCore.cpp.obj
 0001:0000fd6c       ??$_Dest_val@V?$allocator@V?$_Impl_no_alloc0@U?$_Callable_obj@V<lambda308>@?A0xe9eda812@@$0A@@tr1@std@@X@tr1@std@@@std@@V?$_Impl_no_alloc0@U?$_Callable_obj@V<lambda308>@?A0xe9eda812@@$0A@@tr1@std@@X@tr1@2@@std@@YAXAEAV?$allocator@V?$_Impl_no_alloc0@U?$_Callable_obj@V<lambda308>@?A0xe9eda812@@$0A@@tr1@std@@X@tr1@std@@@0@PEAV?$_Impl_no_alloc0@U?$_Callable_obj@V<lambda308>@?A0xe9eda812@@$0A@@tr1@std@@X@tr1@0@@Z 0000000180010d6c f i UnityBuildCore.cpp.obj
 0001:0000fd6c       ??$_Dest_val@V?$allocator@V?$_Impl_no_alloc0@U?$_Callable_obj@V<lambda71>@?A0xe9eda812@@$0A@@tr1@std@@X@tr1@std@@@std@@V?$_Impl_no_alloc0@U?$_Callable_obj@V<lambda71>@?A0xe9eda812@@$0A@@tr1@std@@X@tr1@2@@std@@YAXAEAV?$allocator@V?$_Impl_no_alloc0@U?$_Callable_obj@V<lambda71>@?A0xe9eda812@@$0A@@tr1@std@@X@tr1@std@@@0@PEAV?$_Impl_no_alloc0@U?$_Callable_obj@V<lambda71>@?A0xe9eda812@@$0A@@tr1@std@@X@tr1@0@@Z 0000000180010d6c f i UnityBuildCore.cpp.obj
 0001:0000fd6c       ??$_Dest_val@V?$allocator@V?$_Impl_no_alloc0@U?$_Callable_obj@V<lambda80>@?A0xe9eda812@@$0A@@tr1@std@@X@tr1@std@@@std@@V?$_Impl_no_alloc0@U?$_Callable_obj@V<lambda80>@?A0xe9eda812@@$0A@@tr1@std@@X@tr1@2@@std@@YAXAEAV?$allocator@V?$_Impl_no_alloc0@U?$_Callable_obj@V<lambda80>@?A0xe9eda812@@$0A@@tr1@std@@X@tr1@std@@@0@PEAV?$_Impl_no_alloc0@U?$_Callable_obj@V<lambda80>@?A0xe9eda812@@$0A@@tr1@std@@X@tr1@0@@Z 0000000180010d6c f i UnityBuildCore.cpp.obj
 0001:0000fd6c       ??$_Dest_val@V?$allocator@V?$_Impl_no_alloc0@U?$_Callable_obj@V<lambda372>@?A0xe9eda812@@$0A@@tr1@std@@X@tr1@std@@@std@@V?$_Impl_no_alloc0@U?$_Callable_obj@V<lambda372>@?A0xe9eda812@@$0A@@tr1@std@@X@tr1@2@@std@@YAXAEAV?$allocator@V?$_Impl_no_alloc0@U?$_Callable_obj@V<lambda372>@?A0xe9eda812@@$0A@@tr1@std@@X@tr1@std@@@0@PEAV?$_Impl_no_alloc0@U?$_Callable_obj@V<lambda372>@?A0xe9eda812@@$0A@@tr1@std@@X@tr1@0@@Z 0000000180010d6c f i UnityBuildCore.cpp.obj
 0001:0000fd6c       ??$_Dest_val@V?$allocator@V?$_Impl_no_alloc0@U?$_Callable_obj@V<lambda246>@?A0xe9eda812@@$0A@@tr1@std@@X@tr1@std@@@std@@V?$_Impl_no_alloc0@U?$_Callable_obj@V<lambda246>@?A0xe9eda812@@$0A@@tr1@std@@X@tr1@2@@std@@YAXAEAV?$allocator@V?$_Impl_no_alloc0@U?$_Callable_obj@V<lambda246>@?A0xe9eda812@@$0A@@tr1@std@@X@tr1@std@@@0@PEAV?$_Impl_no_alloc0@U?$_Callable_obj@V<lambda246>@?A0xe9eda812@@$0A@@tr1@std@@X@tr1@0@@Z 0000000180010d6c f i UnityBuildCore.cpp.obj
 0001:0000fd6c       ??$_Dest_val@V?$allocator@V?$_Impl_no_alloc0@U?$_Callable_obj@V<lambda63>@?A0xe9eda812@@$0A@@tr1@std@@X@tr1@std@@@std@@V?$_Impl_no_alloc0@U?$_Callable_obj@V<lambda63>@?A0xe9eda812@@$0A@@tr1@std@@X@tr1@2@@std@@YAXAEAV?$allocator@V?$_Impl_no_alloc0@U?$_Callable_obj@V<lambda63>@?A0xe9eda812@@$0A@@tr1@std@@X@tr1@std@@@0@PEAV?$_Impl_no_alloc0@U?$_Callable_obj@V<lambda63>@?A0xe9eda812@@$0A@@tr1@std@@X@tr1@0@@Z 0000000180010d6c f i UnityBuildCore.cpp.obj
 0001:0000fd6c       ??$_Dest_val@V?$allocator@V?$_Impl_no_alloc0@U?$_Callable_obj@V<lambda335>@?A0xe9eda812@@$0A@@tr1@std@@X@tr1@std@@@std@@V?$_Impl_no_alloc0@U?$_Callable_obj@V<lambda335>@?A0xe9eda812@@$0A@@tr1@std@@X@tr1@2@@std@@YAXAEAV?$allocator@V?$_Impl_no_alloc0@U?$_Callable_obj@V<lambda335>@?A0xe9eda812@@$0A@@tr1@std@@X@tr1@std@@@0@PEAV?$_Impl_no_alloc0@U?$_Callable_obj@V<lambda335>@?A0xe9eda812@@$0A@@tr1@std@@X@tr1@0@@Z 0000000180010d6c f i UnityBuildCore.cpp.obj
 0001:0000fd6c       ??$_Dest_val@V?$allocator@V?$_Impl_no_alloc0@U?$_Callable_obj@V<lambda146>@?A0xe9eda812@@$0A@@tr1@std@@X@tr1@std@@@std@@V?$_Impl_no_alloc0@U?$_Callable_obj@V<lambda146>@?A0xe9eda812@@$0A@@tr1@std@@X@tr1@2@@std@@YAXAEAV?$allocator@V?$_Impl_no_alloc0@U?$_Callable_obj@V<lambda146>@?A0xe9eda812@@$0A@@tr1@std@@X@tr1@std@@@0@PEAV?$_Impl_no_alloc0@U?$_Callable_obj@V<lambda146>@?A0xe9eda812@@$0A@@tr1@std@@X@tr1@0@@Z 0000000180010d6c f i UnityBuildCore.cpp.obj
 0001:0000fd6c       ??$_Dest_val@V?$allocator@V?$_Impl_no_alloc0@U?$_Callable_obj@V<lambda179>@?A0xe9eda812@@$0A@@tr1@std@@X@tr1@std@@@std@@V?$_Impl_no_alloc0@U?$_Callable_obj@V<lambda179>@?A0xe9eda812@@$0A@@tr1@std@@X@tr1@2@@std@@YAXAEAV?$allocator@V?$_Impl_no_alloc0@U?$_Callable_obj@V<lambda179>@?A0xe9eda812@@$0A@@tr1@std@@X@tr1@std@@@0@PEAV?$_Impl_no_alloc0@U?$_Callable_obj@V<lambda179>@?A0xe9eda812@@$0A@@tr1@std@@X@tr1@0@@Z 0000000180010d6c f i UnityBuildCore.cpp.obj
 0001:0000fd6c       ??$_Dest_val@V?$allocator@V?$_Impl_no_alloc0@U?$_Callable_obj@V<lambda257>@?A0xe9eda812@@$0A@@tr1@std@@X@tr1@std@@@std@@V?$_Impl_no_alloc0@U?$_Callable_obj@V<lambda257>@?A0xe9eda812@@$0A@@tr1@std@@X@tr1@2@@std@@YAXAEAV?$allocator@V?$_Impl_no_alloc0@U?$_Callable_obj@V<lambda257>@?A0xe9eda812@@$0A@@tr1@std@@X@tr1@std@@@0@PEAV?$_Impl_no_alloc0@U?$_Callable_obj@V<lambda257>@?A0xe9eda812@@$0A@@tr1@std@@X@tr1@0@@Z 0000000180010d6c f i UnityBuildCore.cpp.obj
 0001:0000fd6c       ??$_Dest_val@V?$allocator@V?$_Impl_no_alloc0@U?$_Callable_obj@V<lambda42>@?A0xe9eda812@@$0A@@tr1@std@@X@tr1@std@@@std@@V?$_Impl_no_alloc0@U?$_Callable_obj@V<lambda42>@?A0xe9eda812@@$0A@@tr1@std@@X@tr1@2@@std@@YAXAEAV?$allocator@V?$_Impl_no_alloc0@U?$_Callable_obj@V<lambda42>@?A0xe9eda812@@$0A@@tr1@std@@X@tr1@std@@@0@PEAV?$_Impl_no_alloc0@U?$_Callable_obj@V<lambda42>@?A0xe9eda812@@$0A@@tr1@std@@X@tr1@0@@Z 0000000180010d6c f i UnityBuildCore.cpp.obj
 0001:0000fd6c       ??$_Dest_val@V?$allocator@V?$_Impl_no_alloc0@U?$_Callable_obj@V<lambda253>@?A0xe9eda812@@$0A@@tr1@std@@X@tr1@std@@@std@@V?$_Impl_no_alloc0@U?$_Callable_obj@V<lambda253>@?A0xe9eda812@@$0A@@tr1@std@@X@tr1@2@@std@@YAXAEAV?$allocator@V?$_Impl_no_alloc0@U?$_Callable_obj@V<lambda253>@?A0xe9eda812@@$0A@@tr1@std@@X@tr1@std@@@0@PEAV?$_Impl_no_alloc0@U?$_Callable_obj@V<lambda253>@?A0xe9eda812@@$0A@@tr1@std@@X@tr1@0@@Z 0000000180010d6c f i UnityBuildCore.cpp.obj
 0001:0000fd6c       ??$_Dest_val@V?$allocator@V?$_Impl_no_alloc0@U?$_Callable_obj@V<lambda135>@?A0xe9eda812@@$0A@@tr1@std@@X@tr1@std@@@std@@V?$_Impl_no_alloc0@U?$_Callable_obj@V<lambda135>@?A0xe9eda812@@$0A@@tr1@std@@X@tr1@2@@std@@YAXAEAV?$allocator@V?$_Impl_no_alloc0@U?$_Callable_obj@V<lambda135>@?A0xe9eda812@@$0A@@tr1@std@@X@tr1@std@@@0@PEAV?$_Impl_no_alloc0@U?$_Callable_obj@V<lambda135>@?A0xe9eda812@@$0A@@tr1@std@@X@tr1@0@@Z 0000000180010d6c f i UnityBuildCore.cpp.obj
 0001:0000fd6c       ??$_Dest_val@V?$allocator@V?$_Impl_no_alloc0@U?$_Callable_obj@V<lambda113>@?A0xe9eda812@@$0A@@tr1@std@@X@tr1@std@@@std@@V?$_Impl_no_alloc0@U?$_Callable_obj@V<lambda113>@?A0xe9eda812@@$0A@@tr1@std@@X@tr1@2@@std@@YAXAEAV?$allocator@V?$_Impl_no_alloc0@U?$_Callable_obj@V<lambda113>@?A0xe9eda812@@$0A@@tr1@std@@X@tr1@std@@@0@PEAV?$_Impl_no_alloc0@U?$_Callable_obj@V<lambda113>@?A0xe9eda812@@$0A@@tr1@std@@X@tr1@0@@Z 0000000180010d6c f i UnityBuildCore.cpp.obj
 0001:0000fd6c       ??$_Dest_val@V?$allocator@V?$_Impl_no_alloc0@U?$_Callable_obj@V<lambda95>@?A0xe9eda812@@$0A@@tr1@std@@X@tr1@std@@@std@@V?$_Impl_no_alloc0@U?$_Callable_obj@V<lambda95>@?A0xe9eda812@@$0A@@tr1@std@@X@tr1@2@@std@@YAXAEAV?$allocator@V?$_Impl_no_alloc0@U?$_Callable_obj@V<lambda95>@?A0xe9eda812@@$0A@@tr1@std@@X@tr1@std@@@0@PEAV?$_Impl_no_alloc0@U?$_Callable_obj@V<lambda95>@?A0xe9eda812@@$0A@@tr1@std@@X@tr1@0@@Z 0000000180010d6c f i UnityBuildCore.cpp.obj
 0001:0000fd6c       ??$_Dest_val@V?$allocator@V?$_Impl_no_alloc0@U?$_Callable_obj@V<lambda293>@?A0xe9eda812@@$0A@@tr1@std@@X@tr1@std@@@std@@V?$_Impl_no_alloc0@U?$_Callable_obj@V<lambda293>@?A0xe9eda812@@$0A@@tr1@std@@X@tr1@2@@std@@YAXAEAV?$allocator@V?$_Impl_no_alloc0@U?$_Callable_obj@V<lambda293>@?A0xe9eda812@@$0A@@tr1@std@@X@tr1@std@@@0@PEAV?$_Impl_no_alloc0@U?$_Callable_obj@V<lambda293>@?A0xe9eda812@@$0A@@tr1@std@@X@tr1@0@@Z 0000000180010d6c f i UnityBuildCore.cpp.obj
 0001:0000fd6c       ??$_Dest_val@V?$allocator@V?$_Impl_no_alloc0@U?$_Callable_obj@V<lambda172>@?A0xe9eda812@@$0A@@tr1@std@@X@tr1@std@@@std@@V?$_Impl_no_alloc0@U?$_Callable_obj@V<lambda172>@?A0xe9eda812@@$0A@@tr1@std@@X@tr1@2@@std@@YAXAEAV?$allocator@V?$_Impl_no_alloc0@U?$_Callable_obj@V<lambda172>@?A0xe9eda812@@$0A@@tr1@std@@X@tr1@std@@@0@PEAV?$_Impl_no_alloc0@U?$_Callable_obj@V<lambda172>@?A0xe9eda812@@$0A@@tr1@std@@X@tr1@0@@Z 0000000180010d6c f i UnityBuildCore.cpp.obj
 0001:0000fd6c       ??$_Dest_val@V?$allocator@V?$_Impl_no_alloc0@U?$_Callable_obj@V<lambda200>@?A0xe9eda812@@$0A@@tr1@std@@X@tr1@std@@@std@@V?$_Impl_no_alloc0@U?$_Callable_obj@V<lambda200>@?A0xe9eda812@@$0A@@tr1@std@@X@tr1@2@@std@@YAXAEAV?$allocator@V?$_Impl_no_alloc0@U?$_Callable_obj@V<lambda200>@?A0xe9eda812@@$0A@@tr1@std@@X@tr1@std@@@0@PEAV?$_Impl_no_alloc0@U?$_Callable_obj@V<lambda200>@?A0xe9eda812@@$0A@@tr1@std@@X@tr1@0@@Z 0000000180010d6c f i UnityBuildCore.cpp.obj
 0001:0000fd6c       ??$_Dest_val@V?$allocator@V?$_Impl_no_alloc0@U?$_Callable_obj@V<lambda297>@?A0xe9eda812@@$0A@@tr1@std@@X@tr1@std@@@std@@V?$_Impl_no_alloc0@U?$_Callable_obj@V<lambda297>@?A0xe9eda812@@$0A@@tr1@std@@X@tr1@2@@std@@YAXAEAV?$allocator@V?$_Impl_no_alloc0@U?$_Callable_obj@V<lambda297>@?A0xe9eda812@@$0A@@tr1@std@@X@tr1@std@@@0@PEAV?$_Impl_no_alloc0@U?$_Callable_obj@V<lambda297>@?A0xe9eda812@@$0A@@tr1@std@@X@tr1@0@@Z 0000000180010d6c f i UnityBuildCore.cpp.obj
 0001:0000fd6c       ??$_Dest_val@V?$allocator@V?$_Impl_no_alloc0@U?$_Callable_obj@V<lambda166>@?A0xe9eda812@@$0A@@tr1@std@@X@tr1@std@@@std@@V?$_Impl_no_alloc0@U?$_Callable_obj@V<lambda166>@?A0xe9eda812@@$0A@@tr1@std@@X@tr1@2@@std@@YAXAEAV?$allocator@V?$_Impl_no_alloc0@U?$_Callable_obj@V<lambda166>@?A0xe9eda812@@$0A@@tr1@std@@X@tr1@std@@@0@PEAV?$_Impl_no_alloc0@U?$_Callable_obj@V<lambda166>@?A0xe9eda812@@$0A@@tr1@std@@X@tr1@0@@Z 0000000180010d6c f i UnityBuildCore.cpp.obj
 0001:0000fd6c       ??$_Dest_val@V?$allocator@V?$_Impl_no_alloc0@U?$_Callable_obj@V<lambda352>@?A0xe9eda812@@$0A@@tr1@std@@X@tr1@std@@@std@@V?$_Impl_no_alloc0@U?$_Callable_obj@V<lambda352>@?A0xe9eda812@@$0A@@tr1@std@@X@tr1@2@@std@@YAXAEAV?$allocator@V?$_Impl_no_alloc0@U?$_Callable_obj@V<lambda352>@?A0xe9eda812@@$0A@@tr1@std@@X@tr1@std@@@0@PEAV?$_Impl_no_alloc0@U?$_Callable_obj@V<lambda352>@?A0xe9eda812@@$0A@@tr1@std@@X@tr1@0@@Z 0000000180010d6c f i UnityBuildCore.cpp.obj
 0001:0000fd6c       ??$_Dest_val@V?$allocator@V?$_Impl_no_alloc0@U?$_Callable_obj@V<lambda79>@?A0xe9eda812@@$0A@@tr1@std@@X@tr1@std@@@std@@V?$_Impl_no_alloc0@U?$_Callable_obj@V<lambda79>@?A0xe9eda812@@$0A@@tr1@std@@X@tr1@2@@std@@YAXAEAV?$allocator@V?$_Impl_no_alloc0@U?$_Callable_obj@V<lambda79>@?A0xe9eda812@@$0A@@tr1@std@@X@tr1@std@@@0@PEAV?$_Impl_no_alloc0@U?$_Callable_obj@V<lambda79>@?A0xe9eda812@@$0A@@tr1@std@@X@tr1@0@@Z 0000000180010d6c f i UnityBuildCore.cpp.obj
 0001:0000fd6c       ??$_Dest_val@V?$allocator@V?$_Impl_no_alloc0@U?$_Callable_obj@V<lambda121>@?A0xe9eda812@@$0A@@tr1@std@@X@tr1@std@@@std@@V?$_Impl_no_alloc0@U?$_Callable_obj@V<lambda121>@?A0xe9eda812@@$0A@@tr1@std@@X@tr1@2@@std@@YAXAEAV?$allocator@V?$_Impl_no_alloc0@U?$_Callable_obj@V<lambda121>@?A0xe9eda812@@$0A@@tr1@std@@X@tr1@std@@@0@PEAV?$_Impl_no_alloc0@U?$_Callable_obj@V<lambda121>@?A0xe9eda812@@$0A@@tr1@std@@X@tr1@0@@Z 0000000180010d6c f i UnityBuildCore.cpp.obj
 0001:0000fd6c       ??$_Dest_val@V?$allocator@V?$_Impl_no_alloc0@U?$_Callable_obj@V<lambda306>@?A0xe9eda812@@$0A@@tr1@std@@X@tr1@std@@@std@@V?$_Impl_no_alloc0@U?$_Callable_obj@V<lambda306>@?A0xe9eda812@@$0A@@tr1@std@@X@tr1@2@@std@@YAXAEAV?$allocator@V?$_Impl_no_alloc0@U?$_Callable_obj@V<lambda306>@?A0xe9eda812@@$0A@@tr1@std@@X@tr1@std@@@0@PEAV?$_Impl_no_alloc0@U?$_Callable_obj@V<lambda306>@?A0xe9eda812@@$0A@@tr1@std@@X@tr1@0@@Z 0000000180010d6c f i UnityBuildCore.cpp.obj
 0001:0000fd6c       ??$_Dest_val@V?$allocator@V?$_Impl_no_alloc0@U?$_Callable_obj@V<lambda67>@?A0xe9eda812@@$0A@@tr1@std@@X@tr1@std@@@std@@V?$_Impl_no_alloc0@U?$_Callable_obj@V<lambda67>@?A0xe9eda812@@$0A@@tr1@std@@X@tr1@2@@std@@YAXAEAV?$allocator@V?$_Impl_no_alloc0@U?$_Callable_obj@V<lambda67>@?A0xe9eda812@@$0A@@tr1@std@@X@tr1@std@@@0@PEAV?$_Impl_no_alloc0@U?$_Callable_obj@V<lambda67>@?A0xe9eda812@@$0A@@tr1@std@@X@tr1@0@@Z 0000000180010d6c f i UnityBuildCore.cpp.obj
 0001:0000fd6c       ??$_Dest_val@V?$allocator@V?$_Impl_no_alloc0@U?$_Callable_obj@V<lambda310>@?A0xe9eda812@@$0A@@tr1@std@@X@tr1@std@@@std@@V?$_Impl_no_alloc0@U?$_Callable_obj@V<lambda310>@?A0xe9eda812@@$0A@@tr1@std@@X@tr1@2@@std@@YAXAEAV?$allocator@V?$_Impl_no_alloc0@U?$_Callable_obj@V<lambda310>@?A0xe9eda812@@$0A@@tr1@std@@X@tr1@std@@@0@PEAV?$_Impl_no_alloc0@U?$_Callable_obj@V<lambda310>@?A0xe9eda812@@$0A@@tr1@std@@X@tr1@0@@Z 0000000180010d6c f i UnityBuildCore.cpp.obj
 0001:0000fd6c       ??$_Dest_val@V?$allocator@V?$_Impl_no_alloc0@U?$_Callable_obj@V<lambda254>@?A0xe9eda812@@$0A@@tr1@std@@X@tr1@std@@@std@@V?$_Impl_no_alloc0@U?$_Callable_obj@V<lambda254>@?A0xe9eda812@@$0A@@tr1@std@@X@tr1@2@@std@@YAXAEAV?$allocator@V?$_Impl_no_alloc0@U?$_Callable_obj@V<lambda254>@?A0xe9eda812@@$0A@@tr1@std@@X@tr1@std@@@0@PEAV?$_Impl_no_alloc0@U?$_Callable_obj@V<lambda254>@?A0xe9eda812@@$0A@@tr1@std@@X@tr1@0@@Z 0000000180010d6c f i UnityBuildCore.cpp.obj
 0001:0000fd6c       ??$_Dest_val@V?$allocator@V?$_Impl_no_alloc0@U?$_Callable_obj@V<lambda281>@?A0xe9eda812@@$0A@@tr1@std@@X@tr1@std@@@std@@V?$_Impl_no_alloc0@U?$_Callable_obj@V<lambda281>@?A0xe9eda812@@$0A@@tr1@std@@X@tr1@2@@std@@YAXAEAV?$allocator@V?$_Impl_no_alloc0@U?$_Callable_obj@V<lambda281>@?A0xe9eda812@@$0A@@tr1@std@@X@tr1@std@@@0@PEAV?$_Impl_no_alloc0@U?$_Callable_obj@V<lambda281>@?A0xe9eda812@@$0A@@tr1@std@@X@tr1@0@@Z 0000000180010d6c f i UnityBuildCore.cpp.obj
 0001:0000fd6c       ??$_Dest_val@V?$allocator@V?$_Impl_no_alloc0@U?$_Callable_obj@V<lambda244>@?A0xe9eda812@@$0A@@tr1@std@@X@tr1@std@@@std@@V?$_Impl_no_alloc0@U?$_Callable_obj@V<lambda244>@?A0xe9eda812@@$0A@@tr1@std@@X@tr1@2@@std@@YAXAEAV?$allocator@V?$_Impl_no_alloc0@U?$_Callable_obj@V<lambda244>@?A0xe9eda812@@$0A@@tr1@std@@X@tr1@std@@@0@PEAV?$_Impl_no_alloc0@U?$_Callable_obj@V<lambda244>@?A0xe9eda812@@$0A@@tr1@std@@X@tr1@0@@Z 0000000180010d6c f i UnityBuildCore.cpp.obj
 0001:0000fd6c       ??$_Dest_val@V?$allocator@V?$_Impl_no_alloc0@U?$_Callable_obj@V<lambda263>@?A0xe9eda812@@$0A@@tr1@std@@X@tr1@std@@@std@@V?$_Impl_no_alloc0@U?$_Callable_obj@V<lambda263>@?A0xe9eda812@@$0A@@tr1@std@@X@tr1@2@@std@@YAXAEAV?$allocator@V?$_Impl_no_alloc0@U?$_Callable_obj@V<lambda263>@?A0xe9eda812@@$0A@@tr1@std@@X@tr1@std@@@0@PEAV?$_Impl_no_alloc0@U?$_Callable_obj@V<lambda263>@?A0xe9eda812@@$0A@@tr1@std@@X@tr1@0@@Z 0000000180010d6c f i UnityBuildCore.cpp.obj
 0001:0000fd6c       ??$_Dest_val@V?$allocator@V?$_Impl_no_alloc0@U?$_Callable_obj@V<lambda361>@?A0xe9eda812@@$0A@@tr1@std@@X@tr1@std@@@std@@V?$_Impl_no_alloc0@U?$_Callable_obj@V<lambda361>@?A0xe9eda812@@$0A@@tr1@std@@X@tr1@2@@std@@YAXAEAV?$allocator@V?$_Impl_no_alloc0@U?$_Callable_obj@V<lambda361>@?A0xe9eda812@@$0A@@tr1@std@@X@tr1@std@@@0@PEAV?$_Impl_no_alloc0@U?$_Callable_obj@V<lambda361>@?A0xe9eda812@@$0A@@tr1@std@@X@tr1@0@@Z 0000000180010d6c f i UnityBuildCore.cpp.obj
 0001:0000fd6c       ??$_Dest_val@V?$allocator@V?$_Impl_no_alloc0@U?$_Callable_obj@V<lambda262>@?A0xe9eda812@@$0A@@tr1@std@@X@tr1@std@@@std@@V?$_Impl_no_alloc0@U?$_Callable_obj@V<lambda262>@?A0xe9eda812@@$0A@@tr1@std@@X@tr1@2@@std@@YAXAEAV?$allocator@V?$_Impl_no_alloc0@U?$_Callable_obj@V<lambda262>@?A0xe9eda812@@$0A@@tr1@std@@X@tr1@std@@@0@PEAV?$_Impl_no_alloc0@U?$_Callable_obj@V<lambda262>@?A0xe9eda812@@$0A@@tr1@std@@X@tr1@0@@Z 0000000180010d6c f i UnityBuildCore.cpp.obj
 0001:0000fd6c       ??$_Dest_val@V?$allocator@V?$_Impl_no_alloc0@U?$_Callable_obj@V<lambda46>@?A0xe9eda812@@$0A@@tr1@std@@X@tr1@std@@@std@@V?$_Impl_no_alloc0@U?$_Callable_obj@V<lambda46>@?A0xe9eda812@@$0A@@tr1@std@@X@tr1@2@@std@@YAXAEAV?$allocator@V?$_Impl_no_alloc0@U?$_Callable_obj@V<lambda46>@?A0xe9eda812@@$0A@@tr1@std@@X@tr1@std@@@0@PEAV?$_Impl_no_alloc0@U?$_Callable_obj@V<lambda46>@?A0xe9eda812@@$0A@@tr1@std@@X@tr1@0@@Z 0000000180010d6c f i UnityBuildCore.cpp.obj
 0001:0000fd6c       ??$_Dest_val@V?$allocator@V?$_Impl_no_alloc0@U?$_Callable_obj@V<lambda344>@?A0xe9eda812@@$0A@@tr1@std@@X@tr1@std@@@std@@V?$_Impl_no_alloc0@U?$_Callable_obj@V<lambda344>@?A0xe9eda812@@$0A@@tr1@std@@X@tr1@2@@std@@YAXAEAV?$allocator@V?$_Impl_no_alloc0@U?$_Callable_obj@V<lambda344>@?A0xe9eda812@@$0A@@tr1@std@@X@tr1@std@@@0@PEAV?$_Impl_no_alloc0@U?$_Callable_obj@V<lambda344>@?A0xe9eda812@@$0A@@tr1@std@@X@tr1@0@@Z 0000000180010d6c f i UnityBuildCore.cpp.obj
 0001:0000fd6c       ??$_Dest_val@V?$allocator@V?$_Impl_no_alloc0@U?$_Callable_obj@V<lambda115>@?A0xe9eda812@@$0A@@tr1@std@@X@tr1@std@@@std@@V?$_Impl_no_alloc0@U?$_Callable_obj@V<lambda115>@?A0xe9eda812@@$0A@@tr1@std@@X@tr1@2@@std@@YAXAEAV?$allocator@V?$_Impl_no_alloc0@U?$_Callable_obj@V<lambda115>@?A0xe9eda812@@$0A@@tr1@std@@X@tr1@std@@@0@PEAV?$_Impl_no_alloc0@U?$_Callable_obj@V<lambda115>@?A0xe9eda812@@$0A@@tr1@std@@X@tr1@0@@Z 0000000180010d6c f i UnityBuildCore.cpp.obj
 0001:0000fd6c       ??$_Dest_val@V?$allocator@V?$_Impl_no_alloc0@U?$_Callable_obj@V<lambda175>@?A0xe9eda812@@$0A@@tr1@std@@X@tr1@std@@@std@@V?$_Impl_no_alloc0@U?$_Callable_obj@V<lambda175>@?A0xe9eda812@@$0A@@tr1@std@@X@tr1@2@@std@@YAXAEAV?$allocator@V?$_Impl_no_alloc0@U?$_Callable_obj@V<lambda175>@?A0xe9eda812@@$0A@@tr1@std@@X@tr1@std@@@0@PEAV?$_Impl_no_alloc0@U?$_Callable_obj@V<lambda175>@?A0xe9eda812@@$0A@@tr1@std@@X@tr1@0@@Z 0000000180010d6c f i UnityBuildCore.cpp.obj
 0001:0000fd6c       ??$_Dest_val@V?$allocator@V?$_Impl_no_alloc0@U?$_Callable_obj@V<lambda106>@?A0xe9eda812@@$0A@@tr1@std@@X@tr1@std@@@std@@V?$_Impl_no_alloc0@U?$_Callable_obj@V<lambda106>@?A0xe9eda812@@$0A@@tr1@std@@X@tr1@2@@std@@YAXAEAV?$allocator@V?$_Impl_no_alloc0@U?$_Callable_obj@V<lambda106>@?A0xe9eda812@@$0A@@tr1@std@@X@tr1@std@@@0@PEAV?$_Impl_no_alloc0@U?$_Callable_obj@V<lambda106>@?A0xe9eda812@@$0A@@tr1@std@@X@tr1@0@@Z 0000000180010d6c f i UnityBuildCore.cpp.obj
 0001:0000fd6c       ??$_Dest_val@V?$allocator@V?$_Impl_no_alloc0@U?$_Callable_obj@V<lambda76>@?A0xe9eda812@@$0A@@tr1@std@@X@tr1@std@@@std@@V?$_Impl_no_alloc0@U?$_Callable_obj@V<lambda76>@?A0xe9eda812@@$0A@@tr1@std@@X@tr1@2@@std@@YAXAEAV?$allocator@V?$_Impl_no_alloc0@U?$_Callable_obj@V<lambda76>@?A0xe9eda812@@$0A@@tr1@std@@X@tr1@std@@@0@PEAV?$_Impl_no_alloc0@U?$_Callable_obj@V<lambda76>@?A0xe9eda812@@$0A@@tr1@std@@X@tr1@0@@Z 0000000180010d6c f i UnityBuildCore.cpp.obj
 0001:0000fd6c       ??$_Dest_val@V?$allocator@V?$_Impl_no_alloc0@U?$_Callable_obj@V<lambda333>@?A0xe9eda812@@$0A@@tr1@std@@X@tr1@std@@@std@@V?$_Impl_no_alloc0@U?$_Callable_obj@V<lambda333>@?A0xe9eda812@@$0A@@tr1@std@@X@tr1@2@@std@@YAXAEAV?$allocator@V?$_Impl_no_alloc0@U?$_Callable_obj@V<lambda333>@?A0xe9eda812@@$0A@@tr1@std@@X@tr1@std@@@0@PEAV?$_Impl_no_alloc0@U?$_Callable_obj@V<lambda333>@?A0xe9eda812@@$0A@@tr1@std@@X@tr1@0@@Z 0000000180010d6c f i UnityBuildCore.cpp.obj
 0001:0000fd6c       ??$_Dest_val@V?$allocator@V?$_Impl_no_alloc0@U?$_Callable_obj@V<lambda276>@?A0xe9eda812@@$0A@@tr1@std@@X@tr1@std@@@std@@V?$_Impl_no_alloc0@U?$_Callable_obj@V<lambda276>@?A0xe9eda812@@$0A@@tr1@std@@X@tr1@2@@std@@YAXAEAV?$allocator@V?$_Impl_no_alloc0@U?$_Callable_obj@V<lambda276>@?A0xe9eda812@@$0A@@tr1@std@@X@tr1@std@@@0@PEAV?$_Impl_no_alloc0@U?$_Callable_obj@V<lambda276>@?A0xe9eda812@@$0A@@tr1@std@@X@tr1@0@@Z 0000000180010d6c f i UnityBuildCore.cpp.obj
 0001:0000fd6c       ??$_Dest_val@V?$allocator@V?$_Impl_no_alloc0@U?$_Callable_obj@V<lambda187>@?A0xe9eda812@@$0A@@tr1@std@@X@tr1@std@@@std@@V?$_Impl_no_alloc0@U?$_Callable_obj@V<lambda187>@?A0xe9eda812@@$0A@@tr1@std@@X@tr1@2@@std@@YAXAEAV?$allocator@V?$_Impl_no_alloc0@U?$_Callable_obj@V<lambda187>@?A0xe9eda812@@$0A@@tr1@std@@X@tr1@std@@@0@PEAV?$_Impl_no_alloc0@U?$_Callable_obj@V<lambda187>@?A0xe9eda812@@$0A@@tr1@std@@X@tr1@0@@Z 0000000180010d6c f i UnityBuildCore.cpp.obj
 0001:0000fd6c       ??$_Dest_val@V?$allocator@V?$_Impl_no_alloc0@U?$_Callable_obj@V<lambda188>@?A0xe9eda812@@$0A@@tr1@std@@X@tr1@std@@@std@@V?$_Impl_no_alloc0@U?$_Callable_obj@V<lambda188>@?A0xe9eda812@@$0A@@tr1@std@@X@tr1@2@@std@@YAXAEAV?$allocator@V?$_Impl_no_alloc0@U?$_Callable_obj@V<lambda188>@?A0xe9eda812@@$0A@@tr1@std@@X@tr1@std@@@0@PEAV?$_Impl_no_alloc0@U?$_Callable_obj@V<lambda188>@?A0xe9eda812@@$0A@@tr1@std@@X@tr1@0@@Z 0000000180010d6c f i UnityBuildCore.cpp.obj
 0001:0000fd6c       ??$_Dest_val@V?$allocator@V?$_Impl_no_alloc0@U?$_Callable_obj@V<lambda129>@?A0xe9eda812@@$0A@@tr1@std@@X@tr1@std@@@std@@V?$_Impl_no_alloc0@U?$_Callable_obj@V<lambda129>@?A0xe9eda812@@$0A@@tr1@std@@X@tr1@2@@std@@YAXAEAV?$allocator@V?$_Impl_no_alloc0@U?$_Callable_obj@V<lambda129>@?A0xe9eda812@@$0A@@tr1@std@@X@tr1@std@@@0@PEAV?$_Impl_no_alloc0@U?$_Callable_obj@V<lambda129>@?A0xe9eda812@@$0A@@tr1@std@@X@tr1@0@@Z 0000000180010d6c f i UnityBuildCore.cpp.obj
 0001:0000fd6c       ??$_Dest_val@V?$allocator@V?$_Impl_no_alloc0@U?$_Callable_obj@V<lambda162>@?A0xe9eda812@@$0A@@tr1@std@@X@tr1@std@@@std@@V?$_Impl_no_alloc0@U?$_Callable_obj@V<lambda162>@?A0xe9eda812@@$0A@@tr1@std@@X@tr1@2@@std@@YAXAEAV?$allocator@V?$_Impl_no_alloc0@U?$_Callable_obj@V<lambda162>@?A0xe9eda812@@$0A@@tr1@std@@X@tr1@std@@@0@PEAV?$_Impl_no_alloc0@U?$_Callable_obj@V<lambda162>@?A0xe9eda812@@$0A@@tr1@std@@X@tr1@0@@Z 0000000180010d6c f i UnityBuildCore.cpp.obj
 0001:0000fd6c       ??$_Dest_val@V?$allocator@V?$_Impl_no_alloc0@U?$_Callable_obj@V<lambda20>@?A0xe9eda812@@$0A@@tr1@std@@X@tr1@std@@@std@@V?$_Impl_no_alloc0@U?$_Callable_obj@V<lambda20>@?A0xe9eda812@@$0A@@tr1@std@@X@tr1@2@@std@@YAXAEAV?$allocator@V?$_Impl_no_alloc0@U?$_Callable_obj@V<lambda20>@?A0xe9eda812@@$0A@@tr1@std@@X@tr1@std@@@0@PEAV?$_Impl_no_alloc0@U?$_Callable_obj@V<lambda20>@?A0xe9eda812@@$0A@@tr1@std@@X@tr1@0@@Z 0000000180010d6c f i UnityBuildCore.cpp.obj
 0001:0000fd6c       ??$_Dest_val@V?$allocator@V?$_Impl_no_alloc0@U?$_Callable_obj@V<lambda354>@?A0xe9eda812@@$0A@@tr1@std@@X@tr1@std@@@std@@V?$_Impl_no_alloc0@U?$_Callable_obj@V<lambda354>@?A0xe9eda812@@$0A@@tr1@std@@X@tr1@2@@std@@YAXAEAV?$allocator@V?$_Impl_no_alloc0@U?$_Callable_obj@V<lambda354>@?A0xe9eda812@@$0A@@tr1@std@@X@tr1@std@@@0@PEAV?$_Impl_no_alloc0@U?$_Callable_obj@V<lambda354>@?A0xe9eda812@@$0A@@tr1@std@@X@tr1@0@@Z 0000000180010d6c f i UnityBuildCore.cpp.obj
 0001:0000fd6c       ??$_Dest_val@V?$allocator@V?$_Impl_no_alloc0@U?$_Callable_obj@V<lambda167>@?A0xe9eda812@@$0A@@tr1@std@@X@tr1@std@@@std@@V?$_Impl_no_alloc0@U?$_Callable_obj@V<lambda167>@?A0xe9eda812@@$0A@@tr1@std@@X@tr1@2@@std@@YAXAEAV?$allocator@V?$_Impl_no_alloc0@U?$_Callable_obj@V<lambda167>@?A0xe9eda812@@$0A@@tr1@std@@X@tr1@std@@@0@PEAV?$_Impl_no_alloc0@U?$_Callable_obj@V<lambda167>@?A0xe9eda812@@$0A@@tr1@std@@X@tr1@0@@Z 0000000180010d6c f i UnityBuildCore.cpp.obj
 0001:0000fd6c       ??$_Dest_val@V?$allocator@V?$_Impl_no_alloc0@U?$_Callable_obj@V<lambda228>@?A0xe9eda812@@$0A@@tr1@std@@X@tr1@std@@@std@@V?$_Impl_no_alloc0@U?$_Callable_obj@V<lambda228>@?A0xe9eda812@@$0A@@tr1@std@@X@tr1@2@@std@@YAXAEAV?$allocator@V?$_Impl_no_alloc0@U?$_Callable_obj@V<lambda228>@?A0xe9eda812@@$0A@@tr1@std@@X@tr1@std@@@0@PEAV?$_Impl_no_alloc0@U?$_Callable_obj@V<lambda228>@?A0xe9eda812@@$0A@@tr1@std@@X@tr1@0@@Z 0000000180010d6c f i UnityBuildCore.cpp.obj
 0001:0000fd6c       ??$_Dest_val@V?$allocator@V?$_Impl_no_alloc0@U?$_Callable_obj@V<lambda322>@?A0xe9eda812@@$0A@@tr1@std@@X@tr1@std@@@std@@V?$_Impl_no_alloc0@U?$_Callable_obj@V<lambda322>@?A0xe9eda812@@$0A@@tr1@std@@X@tr1@2@@std@@YAXAEAV?$allocator@V?$_Impl_no_alloc0@U?$_Callable_obj@V<lambda322>@?A0xe9eda812@@$0A@@tr1@std@@X@tr1@std@@@0@PEAV?$_Impl_no_alloc0@U?$_Callable_obj@V<lambda322>@?A0xe9eda812@@$0A@@tr1@std@@X@tr1@0@@Z 0000000180010d6c f i UnityBuildCore.cpp.obj
 0001:0000fd6c       ??$_Dest_val@V?$allocator@V?$_Impl_no_alloc0@U?$_Callable_obj@V<lambda205>@?A0xe9eda812@@$0A@@tr1@std@@X@tr1@std@@@std@@V?$_Impl_no_alloc0@U?$_Callable_obj@V<lambda205>@?A0xe9eda812@@$0A@@tr1@std@@X@tr1@2@@std@@YAXAEAV?$allocator@V?$_Impl_no_alloc0@U?$_Callable_obj@V<lambda205>@?A0xe9eda812@@$0A@@tr1@std@@X@tr1@std@@@0@PEAV?$_Impl_no_alloc0@U?$_Callable_obj@V<lambda205>@?A0xe9eda812@@$0A@@tr1@std@@X@tr1@0@@Z 0000000180010d6c f i UnityBuildCore.cpp.obj
 0001:0000fd6c       ??$_Dest_val@V?$allocator@V?$_Impl_no_alloc0@U?$_Callable_obj@V<lambda290>@?A0xe9eda812@@$0A@@tr1@std@@X@tr1@std@@@std@@V?$_Impl_no_alloc0@U?$_Callable_obj@V<lambda290>@?A0xe9eda812@@$0A@@tr1@std@@X@tr1@2@@std@@YAXAEAV?$allocator@V?$_Impl_no_alloc0@U?$_Callable_obj@V<lambda290>@?A0xe9eda812@@$0A@@tr1@std@@X@tr1@std@@@0@PEAV?$_Impl_no_alloc0@U?$_Callable_obj@V<lambda290>@?A0xe9eda812@@$0A@@tr1@std@@X@tr1@0@@Z 0000000180010d6c f i UnityBuildCore.cpp.obj
 0001:0000fd6c       ??$_Dest_val@V?$allocator@V?$_Impl_no_alloc0@U?$_Callable_obj@V<lambda259>@?A0xe9eda812@@$0A@@tr1@std@@X@tr1@std@@@std@@V?$_Impl_no_alloc0@U?$_Callable_obj@V<lambda259>@?A0xe9eda812@@$0A@@tr1@std@@X@tr1@2@@std@@YAXAEAV?$allocator@V?$_Impl_no_alloc0@U?$_Callable_obj@V<lambda259>@?A0xe9eda812@@$0A@@tr1@std@@X@tr1@std@@@0@PEAV?$_Impl_no_alloc0@U?$_Callable_obj@V<lambda259>@?A0xe9eda812@@$0A@@tr1@std@@X@tr1@0@@Z 0000000180010d6c f i UnityBuildCore.cpp.obj
 0001:0000fd6c       ??$_Dest_val@V?$allocator@V?$_Impl_no_alloc0@U?$_Callable_obj@V<lambda117>@?A0xe9eda812@@$0A@@tr1@std@@X@tr1@std@@@std@@V?$_Impl_no_alloc0@U?$_Callable_obj@V<lambda117>@?A0xe9eda812@@$0A@@tr1@std@@X@tr1@2@@std@@YAXAEAV?$allocator@V?$_Impl_no_alloc0@U?$_Callable_obj@V<lambda117>@?A0xe9eda812@@$0A@@tr1@std@@X@tr1@std@@@0@PEAV?$_Impl_no_alloc0@U?$_Callable_obj@V<lambda117>@?A0xe9eda812@@$0A@@tr1@std@@X@tr1@0@@Z 0000000180010d6c f i UnityBuildCore.cpp.obj
 0001:0000fd6c       ??$_Dest_val@V?$allocator@V?$_Impl_no_alloc0@U?$_Callable_obj@V<lambda81>@?A0xe9eda812@@$0A@@tr1@std@@X@tr1@std@@@std@@V?$_Impl_no_alloc0@U?$_Callable_obj@V<lambda81>@?A0xe9eda812@@$0A@@tr1@std@@X@tr1@2@@std@@YAXAEAV?$allocator@V?$_Impl_no_alloc0@U?$_Callable_obj@V<lambda81>@?A0xe9eda812@@$0A@@tr1@std@@X@tr1@std@@@0@PEAV?$_Impl_no_alloc0@U?$_Callable_obj@V<lambda81>@?A0xe9eda812@@$0A@@tr1@std@@X@tr1@0@@Z 0000000180010d6c f i UnityBuildCore.cpp.obj
 0001:0000fd6c       ??$_Dest_val@V?$allocator@V?$_Impl_no_alloc0@U?$_Callable_obj@V<lambda325>@?A0xe9eda812@@$0A@@tr1@std@@X@tr1@std@@@std@@V?$_Impl_no_alloc0@U?$_Callable_obj@V<lambda325>@?A0xe9eda812@@$0A@@tr1@std@@X@tr1@2@@std@@YAXAEAV?$allocator@V?$_Impl_no_alloc0@U?$_Callable_obj@V<lambda325>@?A0xe9eda812@@$0A@@tr1@std@@X@tr1@std@@@0@PEAV?$_Impl_no_alloc0@U?$_Callable_obj@V<lambda325>@?A0xe9eda812@@$0A@@tr1@std@@X@tr1@0@@Z 0000000180010d6c f i UnityBuildCore.cpp.obj
 0001:0000fd6c       ??$_Dest_val@V?$allocator@V?$_Impl_no_alloc0@U?$_Callable_obj@V<lambda12>@?A0xe9eda812@@$0A@@tr1@std@@X@tr1@std@@@std@@V?$_Impl_no_alloc0@U?$_Callable_obj@V<lambda12>@?A0xe9eda812@@$0A@@tr1@std@@X@tr1@2@@std@@YAXAEAV?$allocator@V?$_Impl_no_alloc0@U?$_Callable_obj@V<lambda12>@?A0xe9eda812@@$0A@@tr1@std@@X@tr1@std@@@0@PEAV?$_Impl_no_alloc0@U?$_Callable_obj@V<lambda12>@?A0xe9eda812@@$0A@@tr1@std@@X@tr1@0@@Z 0000000180010d6c f i UnityBuildCore.cpp.obj
 0001:0000fd6c       ??$_Dest_val@V?$allocator@V?$_Impl_no_alloc0@U?$_Callable_obj@V<lambda191>@?A0xe9eda812@@$0A@@tr1@std@@X@tr1@std@@@std@@V?$_Impl_no_alloc0@U?$_Callable_obj@V<lambda191>@?A0xe9eda812@@$0A@@tr1@std@@X@tr1@2@@std@@YAXAEAV?$allocator@V?$_Impl_no_alloc0@U?$_Callable_obj@V<lambda191>@?A0xe9eda812@@$0A@@tr1@std@@X@tr1@std@@@0@PEAV?$_Impl_no_alloc0@U?$_Callable_obj@V<lambda191>@?A0xe9eda812@@$0A@@tr1@std@@X@tr1@0@@Z 0000000180010d6c f i UnityBuildCore.cpp.obj
 0001:0000fd6c       ??$_Dest_val@V?$allocator@V?$_Impl_no_alloc0@U?$_Callable_obj@V<lambda303>@?A0xe9eda812@@$0A@@tr1@std@@X@tr1@std@@@std@@V?$_Impl_no_alloc0@U?$_Callable_obj@V<lambda303>@?A0xe9eda812@@$0A@@tr1@std@@X@tr1@2@@std@@YAXAEAV?$allocator@V?$_Impl_no_alloc0@U?$_Callable_obj@V<lambda303>@?A0xe9eda812@@$0A@@tr1@std@@X@tr1@std@@@0@PEAV?$_Impl_no_alloc0@U?$_Callable_obj@V<lambda303>@?A0xe9eda812@@$0A@@tr1@std@@X@tr1@0@@Z 0000000180010d6c f i UnityBuildCore.cpp.obj
 0001:0000fd6c       ??$_Dest_val@V?$allocator@V?$_Impl_no_alloc0@U?$_Callable_obj@V<lambda230>@?A0xe9eda812@@$0A@@tr1@std@@X@tr1@std@@@std@@V?$_Impl_no_alloc0@U?$_Callable_obj@V<lambda230>@?A0xe9eda812@@$0A@@tr1@std@@X@tr1@2@@std@@YAXAEAV?$allocator@V?$_Impl_no_alloc0@U?$_Callable_obj@V<lambda230>@?A0xe9eda812@@$0A@@tr1@std@@X@tr1@std@@@0@PEAV?$_Impl_no_alloc0@U?$_Callable_obj@V<lambda230>@?A0xe9eda812@@$0A@@tr1@std@@X@tr1@0@@Z 0000000180010d6c f i UnityBuildCore.cpp.obj
 0001:0000fd6c       ??$_Dest_val@V?$allocator@V?$_Impl_no_alloc0@U?$_Callable_obj@V<lambda68>@?A0xe9eda812@@$0A@@tr1@std@@X@tr1@std@@@std@@V?$_Impl_no_alloc0@U?$_Callable_obj@V<lambda68>@?A0xe9eda812@@$0A@@tr1@std@@X@tr1@2@@std@@YAXAEAV?$allocator@V?$_Impl_no_alloc0@U?$_Callable_obj@V<lambda68>@?A0xe9eda812@@$0A@@tr1@std@@X@tr1@std@@@0@PEAV?$_Impl_no_alloc0@U?$_Callable_obj@V<lambda68>@?A0xe9eda812@@$0A@@tr1@std@@X@tr1@0@@Z 0000000180010d6c f i UnityBuildCore.cpp.obj
 0001:0000fd6c       ??$_Dest_val@V?$allocator@V?$_Impl_no_alloc0@U?$_Callable_obj@V<lambda314>@?A0xe9eda812@@$0A@@tr1@std@@X@tr1@std@@@std@@V?$_Impl_no_alloc0@U?$_Callable_obj@V<lambda314>@?A0xe9eda812@@$0A@@tr1@std@@X@tr1@2@@std@@YAXAEAV?$allocator@V?$_Impl_no_alloc0@U?$_Callable_obj@V<lambda314>@?A0xe9eda812@@$0A@@tr1@std@@X@tr1@std@@@0@PEAV?$_Impl_no_alloc0@U?$_Callable_obj@V<lambda314>@?A0xe9eda812@@$0A@@tr1@std@@X@tr1@0@@Z 0000000180010d6c f i UnityBuildCore.cpp.obj
 0001:0000fd6c       ??$_Dest_val@V?$allocator@V?$_Impl_no_alloc0@U?$_Callable_obj@V<lambda107>@?A0xe9eda812@@$0A@@tr1@std@@X@tr1@std@@@std@@V?$_Impl_no_alloc0@U?$_Callable_obj@V<lambda107>@?A0xe9eda812@@$0A@@tr1@std@@X@tr1@2@@std@@YAXAEAV?$allocator@V?$_Impl_no_alloc0@U?$_Callable_obj@V<lambda107>@?A0xe9eda812@@$0A@@tr1@std@@X@tr1@std@@@0@PEAV?$_Impl_no_alloc0@U?$_Callable_obj@V<lambda107>@?A0xe9eda812@@$0A@@tr1@std@@X@tr1@0@@Z 0000000180010d6c f i UnityBuildCore.cpp.obj
 0001:0000fd6c       ??$_Dest_val@V?$allocator@V?$_Impl_no_alloc0@U?$_Callable_obj@V<lambda299>@?A0xe9eda812@@$0A@@tr1@std@@X@tr1@std@@@std@@V?$_Impl_no_alloc0@U?$_Callable_obj@V<lambda299>@?A0xe9eda812@@$0A@@tr1@std@@X@tr1@2@@std@@YAXAEAV?$allocator@V?$_Impl_no_alloc0@U?$_Callable_obj@V<lambda299>@?A0xe9eda812@@$0A@@tr1@std@@X@tr1@std@@@0@PEAV?$_Impl_no_alloc0@U?$_Callable_obj@V<lambda299>@?A0xe9eda812@@$0A@@tr1@std@@X@tr1@0@@Z 0000000180010d6c f i UnityBuildCore.cpp.obj
 0001:0000fd6c       ??$_Dest_val@V?$allocator@V?$_Impl_no_alloc0@U?$_Callable_obj@V<lambda311>@?A0xe9eda812@@$0A@@tr1@std@@X@tr1@std@@@std@@V?$_Impl_no_alloc0@U?$_Callable_obj@V<lambda311>@?A0xe9eda812@@$0A@@tr1@std@@X@tr1@2@@std@@YAXAEAV?$allocator@V?$_Impl_no_alloc0@U?$_Callable_obj@V<lambda311>@?A0xe9eda812@@$0A@@tr1@std@@X@tr1@std@@@0@PEAV?$_Impl_no_alloc0@U?$_Callable_obj@V<lambda311>@?A0xe9eda812@@$0A@@tr1@std@@X@tr1@0@@Z 0000000180010d6c f i UnityBuildCore.cpp.obj
 0001:0000fd6c       ??$_Dest_val@V?$allocator@V?$_Impl_no_alloc0@U?$_Callable_obj@V<lambda155>@?A0xe9eda812@@$0A@@tr1@std@@X@tr1@std@@@std@@V?$_Impl_no_alloc0@U?$_Callable_obj@V<lambda155>@?A0xe9eda812@@$0A@@tr1@std@@X@tr1@2@@std@@YAXAEAV?$allocator@V?$_Impl_no_alloc0@U?$_Callable_obj@V<lambda155>@?A0xe9eda812@@$0A@@tr1@std@@X@tr1@std@@@0@PEAV?$_Impl_no_alloc0@U?$_Callable_obj@V<lambda155>@?A0xe9eda812@@$0A@@tr1@std@@X@tr1@0@@Z 0000000180010d6c f i UnityBuildCore.cpp.obj
 0001:0000fd6c       ??$_Dest_val@V?$allocator@V?$_Impl_no_alloc0@U?$_Callable_obj@V<lambda206>@?A0xe9eda812@@$0A@@tr1@std@@X@tr1@std@@@std@@V?$_Impl_no_alloc0@U?$_Callable_obj@V<lambda206>@?A0xe9eda812@@$0A@@tr1@std@@X@tr1@2@@std@@YAXAEAV?$allocator@V?$_Impl_no_alloc0@U?$_Callable_obj@V<lambda206>@?A0xe9eda812@@$0A@@tr1@std@@X@tr1@std@@@0@PEAV?$_Impl_no_alloc0@U?$_Callable_obj@V<lambda206>@?A0xe9eda812@@$0A@@tr1@std@@X@tr1@0@@Z 0000000180010d6c f i UnityBuildCore.cpp.obj
 0001:0000fd6c       ??$_Dest_val@V?$allocator@V?$_Impl_no_alloc0@U?$_Callable_obj@V<lambda279>@?A0xe9eda812@@$0A@@tr1@std@@X@tr1@std@@@std@@V?$_Impl_no_alloc0@U?$_Callable_obj@V<lambda279>@?A0xe9eda812@@$0A@@tr1@std@@X@tr1@2@@std@@YAXAEAV?$allocator@V?$_Impl_no_alloc0@U?$_Callable_obj@V<lambda279>@?A0xe9eda812@@$0A@@tr1@std@@X@tr1@std@@@0@PEAV?$_Impl_no_alloc0@U?$_Callable_obj@V<lambda279>@?A0xe9eda812@@$0A@@tr1@std@@X@tr1@0@@Z 0000000180010d6c f i UnityBuildCore.cpp.obj
 0001:0000fd6c       ??$_Dest_val@V?$allocator@V?$_Impl_no_alloc0@U?$_Callable_obj@V<lambda193>@?A0xe9eda812@@$0A@@tr1@std@@X@tr1@std@@@std@@V?$_Impl_no_alloc0@U?$_Callable_obj@V<lambda193>@?A0xe9eda812@@$0A@@tr1@std@@X@tr1@2@@std@@YAXAEAV?$allocator@V?$_Impl_no_alloc0@U?$_Callable_obj@V<lambda193>@?A0xe9eda812@@$0A@@tr1@std@@X@tr1@std@@@0@PEAV?$_Impl_no_alloc0@U?$_Callable_obj@V<lambda193>@?A0xe9eda812@@$0A@@tr1@std@@X@tr1@0@@Z 0000000180010d6c f i UnityBuildCore.cpp.obj
 0001:0000fd6c       ??$_Dest_val@V?$allocator@V?$_Impl_no_alloc0@U?$_Callable_obj@V<lambda316>@?A0xe9eda812@@$0A@@tr1@std@@X@tr1@std@@@std@@V?$_Impl_no_alloc0@U?$_Callable_obj@V<lambda316>@?A0xe9eda812@@$0A@@tr1@std@@X@tr1@2@@std@@YAXAEAV?$allocator@V?$_Impl_no_alloc0@U?$_Callable_obj@V<lambda316>@?A0xe9eda812@@$0A@@tr1@std@@X@tr1@std@@@0@PEAV?$_Impl_no_alloc0@U?$_Callable_obj@V<lambda316>@?A0xe9eda812@@$0A@@tr1@std@@X@tr1@0@@Z 0000000180010d6c f i UnityBuildCore.cpp.obj
 0001:0000fd6c       ??$_Dest_val@V?$allocator@V?$_Impl_no_alloc0@U?$_Callable_obj@V<lambda284>@?A0xe9eda812@@$0A@@tr1@std@@X@tr1@std@@@std@@V?$_Impl_no_alloc0@U?$_Callable_obj@V<lambda284>@?A0xe9eda812@@$0A@@tr1@std@@X@tr1@2@@std@@YAXAEAV?$allocator@V?$_Impl_no_alloc0@U?$_Callable_obj@V<lambda284>@?A0xe9eda812@@$0A@@tr1@std@@X@tr1@std@@@0@PEAV?$_Impl_no_alloc0@U?$_Callable_obj@V<lambda284>@?A0xe9eda812@@$0A@@tr1@std@@X@tr1@0@@Z 0000000180010d6c f i UnityBuildCore.cpp.obj
 0001:0000fd6c       ??$_Dest_val@V?$allocator@V?$_Impl_no_alloc0@U?$_Callable_obj@V<lambda267>@?A0xe9eda812@@$0A@@tr1@std@@X@tr1@std@@@std@@V?$_Impl_no_alloc0@U?$_Callable_obj@V<lambda267>@?A0xe9eda812@@$0A@@tr1@std@@X@tr1@2@@std@@YAXAEAV?$allocator@V?$_Impl_no_alloc0@U?$_Callable_obj@V<lambda267>@?A0xe9eda812@@$0A@@tr1@std@@X@tr1@std@@@0@PEAV?$_Impl_no_alloc0@U?$_Callable_obj@V<lambda267>@?A0xe9eda812@@$0A@@tr1@std@@X@tr1@0@@Z 0000000180010d6c f i UnityBuildCore.cpp.obj
 0001:0000fd6c       ??$_Dest_val@V?$allocator@V?$_Impl_no_alloc0@U?$_Callable_obj@V<lambda274>@?A0xe9eda812@@$0A@@tr1@std@@X@tr1@std@@@std@@V?$_Impl_no_alloc0@U?$_Callable_obj@V<lambda274>@?A0xe9eda812@@$0A@@tr1@std@@X@tr1@2@@std@@YAXAEAV?$allocator@V?$_Impl_no_alloc0@U?$_Callable_obj@V<lambda274>@?A0xe9eda812@@$0A@@tr1@std@@X@tr1@std@@@0@PEAV?$_Impl_no_alloc0@U?$_Callable_obj@V<lambda274>@?A0xe9eda812@@$0A@@tr1@std@@X@tr1@0@@Z 0000000180010d6c f i UnityBuildCore.cpp.obj
 0001:0000fd6c       ??$_Dest_val@V?$allocator@V?$_Impl_no_alloc0@U?$_Callable_obj@V<lambda53>@?A0xe9eda812@@$0A@@tr1@std@@X@tr1@std@@@std@@V?$_Impl_no_alloc0@U?$_Callable_obj@V<lambda53>@?A0xe9eda812@@$0A@@tr1@std@@X@tr1@2@@std@@YAXAEAV?$allocator@V?$_Impl_no_alloc0@U?$_Callable_obj@V<lambda53>@?A0xe9eda812@@$0A@@tr1@std@@X@tr1@std@@@0@PEAV?$_Impl_no_alloc0@U?$_Callable_obj@V<lambda53>@?A0xe9eda812@@$0A@@tr1@std@@X@tr1@0@@Z 0000000180010d6c f i UnityBuildCore.cpp.obj
 0001:0000fd6c       ??$_Dest_val@V?$allocator@V?$_Impl_no_alloc0@U?$_Callable_obj@V<lambda48>@?A0xe9eda812@@$0A@@tr1@std@@X@tr1@std@@@std@@V?$_Impl_no_alloc0@U?$_Callable_obj@V<lambda48>@?A0xe9eda812@@$0A@@tr1@std@@X@tr1@2@@std@@YAXAEAV?$allocator@V?$_Impl_no_alloc0@U?$_Callable_obj@V<lambda48>@?A0xe9eda812@@$0A@@tr1@std@@X@tr1@std@@@0@PEAV?$_Impl_no_alloc0@U?$_Callable_obj@V<lambda48>@?A0xe9eda812@@$0A@@tr1@std@@X@tr1@0@@Z 0000000180010d6c f i UnityBuildCore.cpp.obj
 0001:0000fd6c       ??$_Dest_val@V?$allocator@V?$_Impl_no_alloc0@U?$_Callable_obj@V<lambda317>@?A0xe9eda812@@$0A@@tr1@std@@X@tr1@std@@@std@@V?$_Impl_no_alloc0@U?$_Callable_obj@V<lambda317>@?A0xe9eda812@@$0A@@tr1@std@@X@tr1@2@@std@@YAXAEAV?$allocator@V?$_Impl_no_alloc0@U?$_Callable_obj@V<lambda317>@?A0xe9eda812@@$0A@@tr1@std@@X@tr1@std@@@0@PEAV?$_Impl_no_alloc0@U?$_Callable_obj@V<lambda317>@?A0xe9eda812@@$0A@@tr1@std@@X@tr1@0@@Z 0000000180010d6c f i UnityBuildCore.cpp.obj
 0001:0000fd6c       ??$_Dest_val@V?$allocator@V?$_Impl_no_alloc0@U?$_Callable_obj@V<lambda52>@?A0xe9eda812@@$0A@@tr1@std@@X@tr1@std@@@std@@V?$_Impl_no_alloc0@U?$_Callable_obj@V<lambda52>@?A0xe9eda812@@$0A@@tr1@std@@X@tr1@2@@std@@YAXAEAV?$allocator@V?$_Impl_no_alloc0@U?$_Callable_obj@V<lambda52>@?A0xe9eda812@@$0A@@tr1@std@@X@tr1@std@@@0@PEAV?$_Impl_no_alloc0@U?$_Callable_obj@V<lambda52>@?A0xe9eda812@@$0A@@tr1@std@@X@tr1@0@@Z 0000000180010d6c f i UnityBuildCore.cpp.obj
 0001:0000fd6c       ??$_Dest_val@V?$allocator@V?$_Impl_no_alloc0@U?$_Callable_obj@V<lambda183>@?A0xe9eda812@@$0A@@tr1@std@@X@tr1@std@@@std@@V?$_Impl_no_alloc0@U?$_Callable_obj@V<lambda183>@?A0xe9eda812@@$0A@@tr1@std@@X@tr1@2@@std@@YAXAEAV?$allocator@V?$_Impl_no_alloc0@U?$_Callable_obj@V<lambda183>@?A0xe9eda812@@$0A@@tr1@std@@X@tr1@std@@@0@PEAV?$_Impl_no_alloc0@U?$_Callable_obj@V<lambda183>@?A0xe9eda812@@$0A@@tr1@std@@X@tr1@0@@Z 0000000180010d6c f i UnityBuildCore.cpp.obj
 0001:0000fd6c       ??$_Dest_val@V?$allocator@V?$_Impl_no_alloc0@U?$_Callable_obj@V<lambda186>@?A0xe9eda812@@$0A@@tr1@std@@X@tr1@std@@@std@@V?$_Impl_no_alloc0@U?$_Callable_obj@V<lambda186>@?A0xe9eda812@@$0A@@tr1@std@@X@tr1@2@@std@@YAXAEAV?$allocator@V?$_Impl_no_alloc0@U?$_Callable_obj@V<lambda186>@?A0xe9eda812@@$0A@@tr1@std@@X@tr1@std@@@0@PEAV?$_Impl_no_alloc0@U?$_Callable_obj@V<lambda186>@?A0xe9eda812@@$0A@@tr1@std@@X@tr1@0@@Z 0000000180010d6c f i UnityBuildCore.cpp.obj
 0001:0000fd6c       ??$_Dest_val@V?$allocator@V?$_Impl_no_alloc0@U?$_Callable_obj@V<lambda36>@?A0xe9eda812@@$0A@@tr1@std@@X@tr1@std@@@std@@V?$_Impl_no_alloc0@U?$_Callable_obj@V<lambda36>@?A0xe9eda812@@$0A@@tr1@std@@X@tr1@2@@std@@YAXAEAV?$allocator@V?$_Impl_no_alloc0@U?$_Callable_obj@V<lambda36>@?A0xe9eda812@@$0A@@tr1@std@@X@tr1@std@@@0@PEAV?$_Impl_no_alloc0@U?$_Callable_obj@V<lambda36>@?A0xe9eda812@@$0A@@tr1@std@@X@tr1@0@@Z 0000000180010d6c f i UnityBuildCore.cpp.obj
 0001:0000fd6c       ??$_Dest_val@V?$allocator@V?$_Impl_no_alloc0@U?$_Callable_obj@V<lambda218>@?A0xe9eda812@@$0A@@tr1@std@@X@tr1@std@@@std@@V?$_Impl_no_alloc0@U?$_Callable_obj@V<lambda218>@?A0xe9eda812@@$0A@@tr1@std@@X@tr1@2@@std@@YAXAEAV?$allocator@V?$_Impl_no_alloc0@U?$_Callable_obj@V<lambda218>@?A0xe9eda812@@$0A@@tr1@std@@X@tr1@std@@@0@PEAV?$_Impl_no_alloc0@U?$_Callable_obj@V<lambda218>@?A0xe9eda812@@$0A@@tr1@std@@X@tr1@0@@Z 0000000180010d6c f i UnityBuildCore.cpp.obj
 0001:0000fd6c       ??$_Dest_val@V?$allocator@V?$_Impl_no_alloc0@U?$_Callable_obj@V<lambda286>@?A0xe9eda812@@$0A@@tr1@std@@X@tr1@std@@@std@@V?$_Impl_no_alloc0@U?$_Callable_obj@V<lambda286>@?A0xe9eda812@@$0A@@tr1@std@@X@tr1@2@@std@@YAXAEAV?$allocator@V?$_Impl_no_alloc0@U?$_Callable_obj@V<lambda286>@?A0xe9eda812@@$0A@@tr1@std@@X@tr1@std@@@0@PEAV?$_Impl_no_alloc0@U?$_Callable_obj@V<lambda286>@?A0xe9eda812@@$0A@@tr1@std@@X@tr1@0@@Z 0000000180010d6c f i UnityBuildCore.cpp.obj
 0001:0000fd6c       ??$_Dest_val@V?$allocator@V?$_Impl_no_alloc0@U?$_Callable_obj@V<lambda225>@?A0xe9eda812@@$0A@@tr1@std@@X@tr1@std@@@std@@V?$_Impl_no_alloc0@U?$_Callable_obj@V<lambda225>@?A0xe9eda812@@$0A@@tr1@std@@X@tr1@2@@std@@YAXAEAV?$allocator@V?$_Impl_no_alloc0@U?$_Callable_obj@V<lambda225>@?A0xe9eda812@@$0A@@tr1@std@@X@tr1@std@@@0@PEAV?$_Impl_no_alloc0@U?$_Callable_obj@V<lambda225>@?A0xe9eda812@@$0A@@tr1@std@@X@tr1@0@@Z 0000000180010d6c f i UnityBuildCore.cpp.obj
 0001:0000fd6c       ??$_Dest_val@V?$allocator@V?$_Impl_no_alloc0@U?$_Callable_obj@V<lambda318>@?A0xe9eda812@@$0A@@tr1@std@@X@tr1@std@@@std@@V?$_Impl_no_alloc0@U?$_Callable_obj@V<lambda318>@?A0xe9eda812@@$0A@@tr1@std@@X@tr1@2@@std@@YAXAEAV?$allocator@V?$_Impl_no_alloc0@U?$_Callable_obj@V<lambda318>@?A0xe9eda812@@$0A@@tr1@std@@X@tr1@std@@@0@PEAV?$_Impl_no_alloc0@U?$_Callable_obj@V<lambda318>@?A0xe9eda812@@$0A@@tr1@std@@X@tr1@0@@Z 0000000180010d6c f i UnityBuildCore.cpp.obj
 0001:0000fd6c       ??$_Dest_val@V?$allocator@V?$_Impl_no_alloc0@U?$_Callable_obj@V<lambda289>@?A0xe9eda812@@$0A@@tr1@std@@X@tr1@std@@@std@@V?$_Impl_no_alloc0@U?$_Callable_obj@V<lambda289>@?A0xe9eda812@@$0A@@tr1@std@@X@tr1@2@@std@@YAXAEAV?$allocator@V?$_Impl_no_alloc0@U?$_Callable_obj@V<lambda289>@?A0xe9eda812@@$0A@@tr1@std@@X@tr1@std@@@0@PEAV?$_Impl_no_alloc0@U?$_Callable_obj@V<lambda289>@?A0xe9eda812@@$0A@@tr1@std@@X@tr1@0@@Z 0000000180010d6c f i UnityBuildCore.cpp.obj
 0001:0000fd6c       ??$_Dest_val@V?$allocator@V?$_Impl_no_alloc0@U?$_Callable_obj@V<lambda17>@?A0xe9eda812@@$0A@@tr1@std@@X@tr1@std@@@std@@V?$_Impl_no_alloc0@U?$_Callable_obj@V<lambda17>@?A0xe9eda812@@$0A@@tr1@std@@X@tr1@2@@std@@YAXAEAV?$allocator@V?$_Impl_no_alloc0@U?$_Callable_obj@V<lambda17>@?A0xe9eda812@@$0A@@tr1@std@@X@tr1@std@@@0@PEAV?$_Impl_no_alloc0@U?$_Callable_obj@V<lambda17>@?A0xe9eda812@@$0A@@tr1@std@@X@tr1@0@@Z 0000000180010d6c f i UnityBuildCore.cpp.obj
 0001:0000fd6c       ??$_Dest_val@V?$allocator@V?$_Impl_no_alloc0@U?$_Callable_obj@V<lambda30>@?A0xe9eda812@@$0A@@tr1@std@@X@tr1@std@@@std@@V?$_Impl_no_alloc0@U?$_Callable_obj@V<lambda30>@?A0xe9eda812@@$0A@@tr1@std@@X@tr1@2@@std@@YAXAEAV?$allocator@V?$_Impl_no_alloc0@U?$_Callable_obj@V<lambda30>@?A0xe9eda812@@$0A@@tr1@std@@X@tr1@std@@@0@PEAV?$_Impl_no_alloc0@U?$_Callable_obj@V<lambda30>@?A0xe9eda812@@$0A@@tr1@std@@X@tr1@0@@Z 0000000180010d6c f i UnityBuildCore.cpp.obj
 0001:0000fd6c       ??$_Dest_val@V?$allocator@V?$_Impl_no_alloc0@U?$_Callable_obj@V<lambda19>@?A0xe9eda812@@$0A@@tr1@std@@X@tr1@std@@@std@@V?$_Impl_no_alloc0@U?$_Callable_obj@V<lambda19>@?A0xe9eda812@@$0A@@tr1@std@@X@tr1@2@@std@@YAXAEAV?$allocator@V?$_Impl_no_alloc0@U?$_Callable_obj@V<lambda19>@?A0xe9eda812@@$0A@@tr1@std@@X@tr1@std@@@0@PEAV?$_Impl_no_alloc0@U?$_Callable_obj@V<lambda19>@?A0xe9eda812@@$0A@@tr1@std@@X@tr1@0@@Z 0000000180010d6c f i UnityBuildCore.cpp.obj
 0001:0000fd6c       ??$_Dest_val@V?$allocator@V?$_Impl_no_alloc0@U?$_Callable_obj@V<lambda356>@?A0xe9eda812@@$0A@@tr1@std@@X@tr1@std@@@std@@V?$_Impl_no_alloc0@U?$_Callable_obj@V<lambda356>@?A0xe9eda812@@$0A@@tr1@std@@X@tr1@2@@std@@YAXAEAV?$allocator@V?$_Impl_no_alloc0@U?$_Callable_obj@V<lambda356>@?A0xe9eda812@@$0A@@tr1@std@@X@tr1@std@@@0@PEAV?$_Impl_no_alloc0@U?$_Callable_obj@V<lambda356>@?A0xe9eda812@@$0A@@tr1@std@@X@tr1@0@@Z 0000000180010d6c f i UnityBuildCore.cpp.obj
 0001:0000fd6c       ??$_Dest_val@V?$allocator@V?$_Impl_no_alloc0@U?$_Callable_obj@V<lambda269>@?A0xe9eda812@@$0A@@tr1@std@@X@tr1@std@@@std@@V?$_Impl_no_alloc0@U?$_Callable_obj@V<lambda269>@?A0xe9eda812@@$0A@@tr1@std@@X@tr1@2@@std@@YAXAEAV?$allocator@V?$_Impl_no_alloc0@U?$_Callable_obj@V<lambda269>@?A0xe9eda812@@$0A@@tr1@std@@X@tr1@std@@@0@PEAV?$_Impl_no_alloc0@U?$_Callable_obj@V<lambda269>@?A0xe9eda812@@$0A@@tr1@std@@X@tr1@0@@Z 0000000180010d6c f i UnityBuildCore.cpp.obj
 0001:0000fd6c       ??$_Dest_val@V?$allocator@V?$_Impl_no_alloc0@U?$_Callable_obj@V<lambda177>@?A0xe9eda812@@$0A@@tr1@std@@X@tr1@std@@@std@@V?$_Impl_no_alloc0@U?$_Callable_obj@V<lambda177>@?A0xe9eda812@@$0A@@tr1@std@@X@tr1@2@@std@@YAXAEAV?$allocator@V?$_Impl_no_alloc0@U?$_Callable_obj@V<lambda177>@?A0xe9eda812@@$0A@@tr1@std@@X@tr1@std@@@0@PEAV?$_Impl_no_alloc0@U?$_Callable_obj@V<lambda177>@?A0xe9eda812@@$0A@@tr1@std@@X@tr1@0@@Z 0000000180010d6c f i UnityBuildCore.cpp.obj
 0001:0000fd6c       ??$_Dest_val@V?$allocator@V?$_Impl_no_alloc0@U?$_Callable_obj@V<lambda236>@?A0xe9eda812@@$0A@@tr1@std@@X@tr1@std@@@std@@V?$_Impl_no_alloc0@U?$_Callable_obj@V<lambda236>@?A0xe9eda812@@$0A@@tr1@std@@X@tr1@2@@std@@YAXAEAV?$allocator@V?$_Impl_no_alloc0@U?$_Callable_obj@V<lambda236>@?A0xe9eda812@@$0A@@tr1@std@@X@tr1@std@@@0@PEAV?$_Impl_no_alloc0@U?$_Callable_obj@V<lambda236>@?A0xe9eda812@@$0A@@tr1@std@@X@tr1@0@@Z 0000000180010d6c f i UnityBuildCore.cpp.obj
 0001:0000fd6c       ??$_Dest_val@V?$allocator@V?$_Impl_no_alloc0@U?$_Callable_obj@V<lambda24>@?A0xe9eda812@@$0A@@tr1@std@@X@tr1@std@@@std@@V?$_Impl_no_alloc0@U?$_Callable_obj@V<lambda24>@?A0xe9eda812@@$0A@@tr1@std@@X@tr1@2@@std@@YAXAEAV?$allocator@V?$_Impl_no_alloc0@U?$_Callable_obj@V<lambda24>@?A0xe9eda812@@$0A@@tr1@std@@X@tr1@std@@@0@PEAV?$_Impl_no_alloc0@U?$_Callable_obj@V<lambda24>@?A0xe9eda812@@$0A@@tr1@std@@X@tr1@0@@Z 0000000180010d6c f i UnityBuildCore.cpp.obj
 0001:0000fd6c       ??$_Dest_val@V?$allocator@V?$_Impl_no_alloc0@U?$_Callable_obj@V<lambda74>@?A0xe9eda812@@$0A@@tr1@std@@X@tr1@std@@@std@@V?$_Impl_no_alloc0@U?$_Callable_obj@V<lambda74>@?A0xe9eda812@@$0A@@tr1@std@@X@tr1@2@@std@@YAXAEAV?$allocator@V?$_Impl_no_alloc0@U?$_Callable_obj@V<lambda74>@?A0xe9eda812@@$0A@@tr1@std@@X@tr1@std@@@0@PEAV?$_Impl_no_alloc0@U?$_Callable_obj@V<lambda74>@?A0xe9eda812@@$0A@@tr1@std@@X@tr1@0@@Z 0000000180010d6c f i UnityBuildCore.cpp.obj
 0001:0000fd6c       ??$_Dest_val@V?$allocator@V?$_Impl_no_alloc0@U?$_Callable_obj@V<lambda300>@?A0xe9eda812@@$0A@@tr1@std@@X@tr1@std@@@std@@V?$_Impl_no_alloc0@U?$_Callable_obj@V<lambda300>@?A0xe9eda812@@$0A@@tr1@std@@X@tr1@2@@std@@YAXAEAV?$allocator@V?$_Impl_no_alloc0@U?$_Callable_obj@V<lambda300>@?A0xe9eda812@@$0A@@tr1@std@@X@tr1@std@@@0@PEAV?$_Impl_no_alloc0@U?$_Callable_obj@V<lambda300>@?A0xe9eda812@@$0A@@tr1@std@@X@tr1@0@@Z 0000000180010d6c f i UnityBuildCore.cpp.obj
 0001:0000fd6c       ??$_Dest_val@V?$allocator@V?$_Impl_no_alloc0@U?$_Callable_obj@V<lambda178>@?A0xe9eda812@@$0A@@tr1@std@@X@tr1@std@@@std@@V?$_Impl_no_alloc0@U?$_Callable_obj@V<lambda178>@?A0xe9eda812@@$0A@@tr1@std@@X@tr1@2@@std@@YAXAEAV?$allocator@V?$_Impl_no_alloc0@U?$_Callable_obj@V<lambda178>@?A0xe9eda812@@$0A@@tr1@std@@X@tr1@std@@@0@PEAV?$_Impl_no_alloc0@U?$_Callable_obj@V<lambda178>@?A0xe9eda812@@$0A@@tr1@std@@X@tr1@0@@Z 0000000180010d6c f i UnityBuildCore.cpp.obj
 0001:0000fd6c       ??$_Dest_val@V?$allocator@V?$_Impl_no_alloc0@U?$_Callable_obj@V<lambda216>@?A0xe9eda812@@$0A@@tr1@std@@X@tr1@std@@@std@@V?$_Impl_no_alloc0@U?$_Callable_obj@V<lambda216>@?A0xe9eda812@@$0A@@tr1@std@@X@tr1@2@@std@@YAXAEAV?$allocator@V?$_Impl_no_alloc0@U?$_Callable_obj@V<lambda216>@?A0xe9eda812@@$0A@@tr1@std@@X@tr1@std@@@0@PEAV?$_Impl_no_alloc0@U?$_Callable_obj@V<lambda216>@?A0xe9eda812@@$0A@@tr1@std@@X@tr1@0@@Z 0000000180010d6c f i UnityBuildCore.cpp.obj
 0001:0000fd6c       ??$_Dest_val@V?$allocator@V?$_Impl_no_alloc0@U?$_Callable_obj@V<lambda312>@?A0xe9eda812@@$0A@@tr1@std@@X@tr1@std@@@std@@V?$_Impl_no_alloc0@U?$_Callable_obj@V<lambda312>@?A0xe9eda812@@$0A@@tr1@std@@X@tr1@2@@std@@YAXAEAV?$allocator@V?$_Impl_no_alloc0@U?$_Callable_obj@V<lambda312>@?A0xe9eda812@@$0A@@tr1@std@@X@tr1@std@@@0@PEAV?$_Impl_no_alloc0@U?$_Callable_obj@V<lambda312>@?A0xe9eda812@@$0A@@tr1@std@@X@tr1@0@@Z 0000000180010d6c f i UnityBuildCore.cpp.obj
 0001:0000fd6c       ??$_Dest_val@V?$allocator@V?$_Impl_no_alloc0@U?$_Callable_obj@V<lambda69>@?A0xe9eda812@@$0A@@tr1@std@@X@tr1@std@@@std@@V?$_Impl_no_alloc0@U?$_Callable_obj@V<lambda69>@?A0xe9eda812@@$0A@@tr1@std@@X@tr1@2@@std@@YAXAEAV?$allocator@V?$_Impl_no_alloc0@U?$_Callable_obj@V<lambda69>@?A0xe9eda812@@$0A@@tr1@std@@X@tr1@std@@@0@PEAV?$_Impl_no_alloc0@U?$_Callable_obj@V<lambda69>@?A0xe9eda812@@$0A@@tr1@std@@X@tr1@0@@Z 0000000180010d6c f i UnityBuildCore.cpp.obj
 0001:0000fd6c       ??$_Dest_val@V?$allocator@V?$_Impl_no_alloc0@U?$_Callable_obj@V<lambda291>@?A0xe9eda812@@$0A@@tr1@std@@X@tr1@std@@@std@@V?$_Impl_no_alloc0@U?$_Callable_obj@V<lambda291>@?A0xe9eda812@@$0A@@tr1@std@@X@tr1@2@@std@@YAXAEAV?$allocator@V?$_Impl_no_alloc0@U?$_Callable_obj@V<lambda291>@?A0xe9eda812@@$0A@@tr1@std@@X@tr1@std@@@0@PEAV?$_Impl_no_alloc0@U?$_Callable_obj@V<lambda291>@?A0xe9eda812@@$0A@@tr1@std@@X@tr1@0@@Z 0000000180010d6c f i UnityBuildCore.cpp.obj
 0001:0000fd6c       ??$_Dest_val@V?$allocator@V?$_Impl_no_alloc0@U?$_Callable_obj@V<lambda285>@?A0xe9eda812@@$0A@@tr1@std@@X@tr1@std@@@std@@V?$_Impl_no_alloc0@U?$_Callable_obj@V<lambda285>@?A0xe9eda812@@$0A@@tr1@std@@X@tr1@2@@std@@YAXAEAV?$allocator@V?$_Impl_no_alloc0@U?$_Callable_obj@V<lambda285>@?A0xe9eda812@@$0A@@tr1@std@@X@tr1@std@@@0@PEAV?$_Impl_no_alloc0@U?$_Callable_obj@V<lambda285>@?A0xe9eda812@@$0A@@tr1@std@@X@tr1@0@@Z 0000000180010d6c f i UnityBuildCore.cpp.obj
 0001:0000fd6c       ??$_Dest_val@V?$allocator@V?$_Impl_no_alloc0@U?$_Callable_obj@V<lambda255>@?A0xe9eda812@@$0A@@tr1@std@@X@tr1@std@@@std@@V?$_Impl_no_alloc0@U?$_Callable_obj@V<lambda255>@?A0xe9eda812@@$0A@@tr1@std@@X@tr1@2@@std@@YAXAEAV?$allocator@V?$_Impl_no_alloc0@U?$_Callable_obj@V<lambda255>@?A0xe9eda812@@$0A@@tr1@std@@X@tr1@std@@@0@PEAV?$_Impl_no_alloc0@U?$_Callable_obj@V<lambda255>@?A0xe9eda812@@$0A@@tr1@std@@X@tr1@0@@Z 0000000180010d6c f i UnityBuildCore.cpp.obj
 0001:0000fd6c       ??$_Dest_val@V?$allocator@V?$_Impl_no_alloc0@U?$_Callable_obj@V<lambda338>@?A0xe9eda812@@$0A@@tr1@std@@X@tr1@std@@@std@@V?$_Impl_no_alloc0@U?$_Callable_obj@V<lambda338>@?A0xe9eda812@@$0A@@tr1@std@@X@tr1@2@@std@@YAXAEAV?$allocator@V?$_Impl_no_alloc0@U?$_Callable_obj@V<lambda338>@?A0xe9eda812@@$0A@@tr1@std@@X@tr1@std@@@0@PEAV?$_Impl_no_alloc0@U?$_Callable_obj@V<lambda338>@?A0xe9eda812@@$0A@@tr1@std@@X@tr1@0@@Z 0000000180010d6c f i UnityBuildCore.cpp.obj
 0001:0000fd6c       ??$_Dest_val@V?$allocator@V?$_Impl_no_alloc0@U?$_Callable_obj@V<lambda219>@?A0xe9eda812@@$0A@@tr1@std@@X@tr1@std@@@std@@V?$_Impl_no_alloc0@U?$_Callable_obj@V<lambda219>@?A0xe9eda812@@$0A@@tr1@std@@X@tr1@2@@std@@YAXAEAV?$allocator@V?$_Impl_no_alloc0@U?$_Callable_obj@V<lambda219>@?A0xe9eda812@@$0A@@tr1@std@@X@tr1@std@@@0@PEAV?$_Impl_no_alloc0@U?$_Callable_obj@V<lambda219>@?A0xe9eda812@@$0A@@tr1@std@@X@tr1@0@@Z 0000000180010d6c f i UnityBuildCore.cpp.obj
 0001:0000fd6c       ??$_Dest_val@V?$allocator@V?$_Impl_no_alloc0@U?$_Callable_obj@V<lambda32>@?A0xe9eda812@@$0A@@tr1@std@@X@tr1@std@@@std@@V?$_Impl_no_alloc0@U?$_Callable_obj@V<lambda32>@?A0xe9eda812@@$0A@@tr1@std@@X@tr1@2@@std@@YAXAEAV?$allocator@V?$_Impl_no_alloc0@U?$_Callable_obj@V<lambda32>@?A0xe9eda812@@$0A@@tr1@std@@X@tr1@std@@@0@PEAV?$_Impl_no_alloc0@U?$_Callable_obj@V<lambda32>@?A0xe9eda812@@$0A@@tr1@std@@X@tr1@0@@Z 0000000180010d6c f i UnityBuildCore.cpp.obj
 0001:0000fd6c       ??$_Dest_val@V?$allocator@V?$_Impl_no_alloc0@U?$_Callable_obj@V<lambda133>@?A0xe9eda812@@$0A@@tr1@std@@X@tr1@std@@@std@@V?$_Impl_no_alloc0@U?$_Callable_obj@V<lambda133>@?A0xe9eda812@@$0A@@tr1@std@@X@tr1@2@@std@@YAXAEAV?$allocator@V?$_Impl_no_alloc0@U?$_Callable_obj@V<lambda133>@?A0xe9eda812@@$0A@@tr1@std@@X@tr1@std@@@0@PEAV?$_Impl_no_alloc0@U?$_Callable_obj@V<lambda133>@?A0xe9eda812@@$0A@@tr1@std@@X@tr1@0@@Z 0000000180010d6c f i UnityBuildCore.cpp.obj
 0001:0000fd6c       ??$_Dest_val@V?$allocator@V?$_Impl_no_alloc0@U?$_Callable_obj@V<lambda223>@?A0xe9eda812@@$0A@@tr1@std@@X@tr1@std@@@std@@V?$_Impl_no_alloc0@U?$_Callable_obj@V<lambda223>@?A0xe9eda812@@$0A@@tr1@std@@X@tr1@2@@std@@YAXAEAV?$allocator@V?$_Impl_no_alloc0@U?$_Callable_obj@V<lambda223>@?A0xe9eda812@@$0A@@tr1@std@@X@tr1@std@@@0@PEAV?$_Impl_no_alloc0@U?$_Callable_obj@V<lambda223>@?A0xe9eda812@@$0A@@tr1@std@@X@tr1@0@@Z 0000000180010d6c f i UnityBuildCore.cpp.obj
 0001:0000fd6c       ??$_Dest_val@V?$allocator@V?$_Impl_no_alloc0@U?$_Callable_obj@V<lambda111>@?A0xe9eda812@@$0A@@tr1@std@@X@tr1@std@@@std@@V?$_Impl_no_alloc0@U?$_Callable_obj@V<lambda111>@?A0xe9eda812@@$0A@@tr1@std@@X@tr1@2@@std@@YAXAEAV?$allocator@V?$_Impl_no_alloc0@U?$_Callable_obj@V<lambda111>@?A0xe9eda812@@$0A@@tr1@std@@X@tr1@std@@@0@PEAV?$_Impl_no_alloc0@U?$_Callable_obj@V<lambda111>@?A0xe9eda812@@$0A@@tr1@std@@X@tr1@0@@Z 0000000180010d6c f i UnityBuildCore.cpp.obj
 0001:0000fd6c       ??$_Dest_val@V?$allocator@V?$_Impl_no_alloc0@U?$_Callable_obj@V<lambda59>@?A0xe9eda812@@$0A@@tr1@std@@X@tr1@std@@@std@@V?$_Impl_no_alloc0@U?$_Callable_obj@V<lambda59>@?A0xe9eda812@@$0A@@tr1@std@@X@tr1@2@@std@@YAXAEAV?$allocator@V?$_Impl_no_alloc0@U?$_Callable_obj@V<lambda59>@?A0xe9eda812@@$0A@@tr1@std@@X@tr1@std@@@0@PEAV?$_Impl_no_alloc0@U?$_Callable_obj@V<lambda59>@?A0xe9eda812@@$0A@@tr1@std@@X@tr1@0@@Z 0000000180010d6c f i UnityBuildCore.cpp.obj
 0001:0000fd6c       ??$_Dest_val@V?$allocator@V?$_Impl_no_alloc0@U?$_Callable_obj@V<lambda33>@?A0xe9eda812@@$0A@@tr1@std@@X@tr1@std@@@std@@V?$_Impl_no_alloc0@U?$_Callable_obj@V<lambda33>@?A0xe9eda812@@$0A@@tr1@std@@X@tr1@2@@std@@YAXAEAV?$allocator@V?$_Impl_no_alloc0@U?$_Callable_obj@V<lambda33>@?A0xe9eda812@@$0A@@tr1@std@@X@tr1@std@@@0@PEAV?$_Impl_no_alloc0@U?$_Callable_obj@V<lambda33>@?A0xe9eda812@@$0A@@tr1@std@@X@tr1@0@@Z 0000000180010d6c f i UnityBuildCore.cpp.obj
 0001:0000fd6c       ??$_Dest_val@V?$allocator@V?$_Impl_no_alloc0@U?$_Callable_obj@V<lambda98>@?A0xe9eda812@@$0A@@tr1@std@@X@tr1@std@@@std@@V?$_Impl_no_alloc0@U?$_Callable_obj@V<lambda98>@?A0xe9eda812@@$0A@@tr1@std@@X@tr1@2@@std@@YAXAEAV?$allocator@V?$_Impl_no_alloc0@U?$_Callable_obj@V<lambda98>@?A0xe9eda812@@$0A@@tr1@std@@X@tr1@std@@@0@PEAV?$_Impl_no_alloc0@U?$_Callable_obj@V<lambda98>@?A0xe9eda812@@$0A@@tr1@std@@X@tr1@0@@Z 0000000180010d6c f i UnityBuildCore.cpp.obj
 0001:0000fd6c       ??$_Dest_val@V?$allocator@V?$_Impl_no_alloc0@U?$_Callable_obj@V<lambda199>@?A0xe9eda812@@$0A@@tr1@std@@X@tr1@std@@@std@@V?$_Impl_no_alloc0@U?$_Callable_obj@V<lambda199>@?A0xe9eda812@@$0A@@tr1@std@@X@tr1@2@@std@@YAXAEAV?$allocator@V?$_Impl_no_alloc0@U?$_Callable_obj@V<lambda199>@?A0xe9eda812@@$0A@@tr1@std@@X@tr1@std@@@0@PEAV?$_Impl_no_alloc0@U?$_Callable_obj@V<lambda199>@?A0xe9eda812@@$0A@@tr1@std@@X@tr1@0@@Z 0000000180010d6c f i UnityBuildCore.cpp.obj
 0001:0000fd6c       ??$_Dest_val@V?$allocator@V?$_Impl_no_alloc0@U?$_Callable_obj@V<lambda119>@?A0xe9eda812@@$0A@@tr1@std@@X@tr1@std@@@std@@V?$_Impl_no_alloc0@U?$_Callable_obj@V<lambda119>@?A0xe9eda812@@$0A@@tr1@std@@X@tr1@2@@std@@YAXAEAV?$allocator@V?$_Impl_no_alloc0@U?$_Callable_obj@V<lambda119>@?A0xe9eda812@@$0A@@tr1@std@@X@tr1@std@@@0@PEAV?$_Impl_no_alloc0@U?$_Callable_obj@V<lambda119>@?A0xe9eda812@@$0A@@tr1@std@@X@tr1@0@@Z 0000000180010d6c f i UnityBuildCore.cpp.obj
 0001:0000fd6c       ??$_Dest_val@V?$allocator@V?$_Impl_no_alloc0@U?$_Callable_obj@V<lambda189>@?A0xe9eda812@@$0A@@tr1@std@@X@tr1@std@@@std@@V?$_Impl_no_alloc0@U?$_Callable_obj@V<lambda189>@?A0xe9eda812@@$0A@@tr1@std@@X@tr1@2@@std@@YAXAEAV?$allocator@V?$_Impl_no_alloc0@U?$_Callable_obj@V<lambda189>@?A0xe9eda812@@$0A@@tr1@std@@X@tr1@std@@@0@PEAV?$_Impl_no_alloc0@U?$_Callable_obj@V<lambda189>@?A0xe9eda812@@$0A@@tr1@std@@X@tr1@0@@Z 0000000180010d6c f i UnityBuildCore.cpp.obj
 0001:0000fd6c       ??$_Dest_val@V?$allocator@V?$_Impl_no_alloc0@U?$_Callable_obj@V<lambda84>@?A0xe9eda812@@$0A@@tr1@std@@X@tr1@std@@@std@@V?$_Impl_no_alloc0@U?$_Callable_obj@V<lambda84>@?A0xe9eda812@@$0A@@tr1@std@@X@tr1@2@@std@@YAXAEAV?$allocator@V?$_Impl_no_alloc0@U?$_Callable_obj@V<lambda84>@?A0xe9eda812@@$0A@@tr1@std@@X@tr1@std@@@0@PEAV?$_Impl_no_alloc0@U?$_Callable_obj@V<lambda84>@?A0xe9eda812@@$0A@@tr1@std@@X@tr1@0@@Z 0000000180010d6c f i UnityBuildCore.cpp.obj
 0001:0000fd6c       ??$_Dest_val@V?$allocator@V?$_Impl_no_alloc0@U?$_Callable_obj@V<lambda28>@?A0xe9eda812@@$0A@@tr1@std@@X@tr1@std@@@std@@V?$_Impl_no_alloc0@U?$_Callable_obj@V<lambda28>@?A0xe9eda812@@$0A@@tr1@std@@X@tr1@2@@std@@YAXAEAV?$allocator@V?$_Impl_no_alloc0@U?$_Callable_obj@V<lambda28>@?A0xe9eda812@@$0A@@tr1@std@@X@tr1@std@@@0@PEAV?$_Impl_no_alloc0@U?$_Callable_obj@V<lambda28>@?A0xe9eda812@@$0A@@tr1@std@@X@tr1@0@@Z 0000000180010d6c f i UnityBuildCore.cpp.obj
 0001:0000fd6c       ??$_Dest_val@V?$allocator@V?$_Impl_no_alloc0@U?$_Callable_obj@V<lambda40>@?A0xe9eda812@@$0A@@tr1@std@@X@tr1@std@@@std@@V?$_Impl_no_alloc0@U?$_Callable_obj@V<lambda40>@?A0xe9eda812@@$0A@@tr1@std@@X@tr1@2@@std@@YAXAEAV?$allocator@V?$_Impl_no_alloc0@U?$_Callable_obj@V<lambda40>@?A0xe9eda812@@$0A@@tr1@std@@X@tr1@std@@@0@PEAV?$_Impl_no_alloc0@U?$_Callable_obj@V<lambda40>@?A0xe9eda812@@$0A@@tr1@std@@X@tr1@0@@Z 0000000180010d6c f i UnityBuildCore.cpp.obj
 0001:0000fd6c       ??$_Dest_val@V?$allocator@V?$_Impl_no_alloc0@U?$_Callable_obj@V<lambda327>@?A0xe9eda812@@$0A@@tr1@std@@X@tr1@std@@@std@@V?$_Impl_no_alloc0@U?$_Callable_obj@V<lambda327>@?A0xe9eda812@@$0A@@tr1@std@@X@tr1@2@@std@@YAXAEAV?$allocator@V?$_Impl_no_alloc0@U?$_Callable_obj@V<lambda327>@?A0xe9eda812@@$0A@@tr1@std@@X@tr1@std@@@0@PEAV?$_Impl_no_alloc0@U?$_Callable_obj@V<lambda327>@?A0xe9eda812@@$0A@@tr1@std@@X@tr1@0@@Z 0000000180010d6c f i UnityBuildCore.cpp.obj
 0001:0000fd6c       ??$_Dest_val@V?$allocator@V?$_Impl_no_alloc0@U?$_Callable_obj@V<lambda277>@?A0xe9eda812@@$0A@@tr1@std@@X@tr1@std@@@std@@V?$_Impl_no_alloc0@U?$_Callable_obj@V<lambda277>@?A0xe9eda812@@$0A@@tr1@std@@X@tr1@2@@std@@YAXAEAV?$allocator@V?$_Impl_no_alloc0@U?$_Callable_obj@V<lambda277>@?A0xe9eda812@@$0A@@tr1@std@@X@tr1@std@@@0@PEAV?$_Impl_no_alloc0@U?$_Callable_obj@V<lambda277>@?A0xe9eda812@@$0A@@tr1@std@@X@tr1@0@@Z 0000000180010d6c f i UnityBuildCore.cpp.obj
 0001:0000fd6c       ??$_Dest_val@V?$allocator@V?$_Impl_no_alloc0@U?$_Callable_obj@V<lambda65>@?A0xe9eda812@@$0A@@tr1@std@@X@tr1@std@@@std@@V?$_Impl_no_alloc0@U?$_Callable_obj@V<lambda65>@?A0xe9eda812@@$0A@@tr1@std@@X@tr1@2@@std@@YAXAEAV?$allocator@V?$_Impl_no_alloc0@U?$_Callable_obj@V<lambda65>@?A0xe9eda812@@$0A@@tr1@std@@X@tr1@std@@@0@PEAV?$_Impl_no_alloc0@U?$_Callable_obj@V<lambda65>@?A0xe9eda812@@$0A@@tr1@std@@X@tr1@0@@Z 0000000180010d6c f i UnityBuildCore.cpp.obj
 0001:0000fd6c       ??$_Dest_val@V?$allocator@V?$_Impl_no_alloc0@U?$_Callable_obj@V<lambda196>@?A0xe9eda812@@$0A@@tr1@std@@X@tr1@std@@@std@@V?$_Impl_no_alloc0@U?$_Callable_obj@V<lambda196>@?A0xe9eda812@@$0A@@tr1@std@@X@tr1@2@@std@@YAXAEAV?$allocator@V?$_Impl_no_alloc0@U?$_Callable_obj@V<lambda196>@?A0xe9eda812@@$0A@@tr1@std@@X@tr1@std@@@0@PEAV?$_Impl_no_alloc0@U?$_Callable_obj@V<lambda196>@?A0xe9eda812@@$0A@@tr1@std@@X@tr1@0@@Z 0000000180010d6c f i UnityBuildCore.cpp.obj
 0001:0000fd6c       ??$_Dest_val@V?$allocator@V?$_Impl_no_alloc0@U?$_Callable_obj@V<lambda288>@?A0xe9eda812@@$0A@@tr1@std@@X@tr1@std@@@std@@V?$_Impl_no_alloc0@U?$_Callable_obj@V<lambda288>@?A0xe9eda812@@$0A@@tr1@std@@X@tr1@2@@std@@YAXAEAV?$allocator@V?$_Impl_no_alloc0@U?$_Callable_obj@V<lambda288>@?A0xe9eda812@@$0A@@tr1@std@@X@tr1@std@@@0@PEAV?$_Impl_no_alloc0@U?$_Callable_obj@V<lambda288>@?A0xe9eda812@@$0A@@tr1@std@@X@tr1@0@@Z 0000000180010d6c f i UnityBuildCore.cpp.obj
 0001:0000fd6c       ??$_Dest_val@V?$allocator@V?$_Impl_no_alloc0@U?$_Callable_obj@V<lambda359>@?A0xe9eda812@@$0A@@tr1@std@@X@tr1@std@@@std@@V?$_Impl_no_alloc0@U?$_Callable_obj@V<lambda359>@?A0xe9eda812@@$0A@@tr1@std@@X@tr1@2@@std@@YAXAEAV?$allocator@V?$_Impl_no_alloc0@U?$_Callable_obj@V<lambda359>@?A0xe9eda812@@$0A@@tr1@std@@X@tr1@std@@@0@PEAV?$_Impl_no_alloc0@U?$_Callable_obj@V<lambda359>@?A0xe9eda812@@$0A@@tr1@std@@X@tr1@0@@Z 0000000180010d6c f i UnityBuildCore.cpp.obj
 0001:0000fd6c       ??$_Dest_val@V?$allocator@V?$_Impl_no_alloc0@U?$_Callable_obj@V<lambda222>@?A0xe9eda812@@$0A@@tr1@std@@X@tr1@std@@@std@@V?$_Impl_no_alloc0@U?$_Callable_obj@V<lambda222>@?A0xe9eda812@@$0A@@tr1@std@@X@tr1@2@@std@@YAXAEAV?$allocator@V?$_Impl_no_alloc0@U?$_Callable_obj@V<lambda222>@?A0xe9eda812@@$0A@@tr1@std@@X@tr1@std@@@0@PEAV?$_Impl_no_alloc0@U?$_Callable_obj@V<lambda222>@?A0xe9eda812@@$0A@@tr1@std@@X@tr1@0@@Z 0000000180010d6c f i UnityBuildCore.cpp.obj
 0001:0000fd6c       ??$_Dest_val@V?$allocator@V?$_Impl_no_alloc0@U?$_Callable_obj@V<lambda265>@?A0xe9eda812@@$0A@@tr1@std@@X@tr1@std@@@std@@V?$_Impl_no_alloc0@U?$_Callable_obj@V<lambda265>@?A0xe9eda812@@$0A@@tr1@std@@X@tr1@2@@std@@YAXAEAV?$allocator@V?$_Impl_no_alloc0@U?$_Callable_obj@V<lambda265>@?A0xe9eda812@@$0A@@tr1@std@@X@tr1@std@@@0@PEAV?$_Impl_no_alloc0@U?$_Callable_obj@V<lambda265>@?A0xe9eda812@@$0A@@tr1@std@@X@tr1@0@@Z 0000000180010d6c f i UnityBuildCore.cpp.obj
 0001:0000fd6c       ??$_Dest_val@V?$allocator@V?$_Impl_no_alloc0@U?$_Callable_obj@V<lambda336>@?A0xe9eda812@@$0A@@tr1@std@@X@tr1@std@@@std@@V?$_Impl_no_alloc0@U?$_Callable_obj@V<lambda336>@?A0xe9eda812@@$0A@@tr1@std@@X@tr1@2@@std@@YAXAEAV?$allocator@V?$_Impl_no_alloc0@U?$_Callable_obj@V<lambda336>@?A0xe9eda812@@$0A@@tr1@std@@X@tr1@std@@@0@PEAV?$_Impl_no_alloc0@U?$_Callable_obj@V<lambda336>@?A0xe9eda812@@$0A@@tr1@std@@X@tr1@0@@Z 0000000180010d6c f i UnityBuildCore.cpp.obj
 0001:0000fd6c       ??$_Dest_val@V?$allocator@V?$_Impl_no_alloc0@U?$_Callable_obj@V<lambda213>@?A0xe9eda812@@$0A@@tr1@std@@X@tr1@std@@@std@@V?$_Impl_no_alloc0@U?$_Callable_obj@V<lambda213>@?A0xe9eda812@@$0A@@tr1@std@@X@tr1@2@@std@@YAXAEAV?$allocator@V?$_Impl_no_alloc0@U?$_Callable_obj@V<lambda213>@?A0xe9eda812@@$0A@@tr1@std@@X@tr1@std@@@0@PEAV?$_Impl_no_alloc0@U?$_Callable_obj@V<lambda213>@?A0xe9eda812@@$0A@@tr1@std@@X@tr1@0@@Z 0000000180010d6c f i UnityBuildCore.cpp.obj
 0001:0000fd6c       ??$_Dest_val@V?$allocator@V?$_Impl_no_alloc0@U?$_Callable_obj@V<lambda185>@?A0xe9eda812@@$0A@@tr1@std@@X@tr1@std@@@std@@V?$_Impl_no_alloc0@U?$_Callable_obj@V<lambda185>@?A0xe9eda812@@$0A@@tr1@std@@X@tr1@2@@std@@YAXAEAV?$allocator@V?$_Impl_no_alloc0@U?$_Callable_obj@V<lambda185>@?A0xe9eda812@@$0A@@tr1@std@@X@tr1@std@@@0@PEAV?$_Impl_no_alloc0@U?$_Callable_obj@V<lambda185>@?A0xe9eda812@@$0A@@tr1@std@@X@tr1@0@@Z 0000000180010d6c f i UnityBuildCore.cpp.obj
 0001:0000fd6c       ??$_Dest_val@V?$allocator@V?$_Impl_no_alloc0@U?$_Callable_obj@V<lambda232>@?A0xe9eda812@@$0A@@tr1@std@@X@tr1@std@@@std@@V?$_Impl_no_alloc0@U?$_Callable_obj@V<lambda232>@?A0xe9eda812@@$0A@@tr1@std@@X@tr1@2@@std@@YAXAEAV?$allocator@V?$_Impl_no_alloc0@U?$_Callable_obj@V<lambda232>@?A0xe9eda812@@$0A@@tr1@std@@X@tr1@std@@@0@PEAV?$_Impl_no_alloc0@U?$_Callable_obj@V<lambda232>@?A0xe9eda812@@$0A@@tr1@std@@X@tr1@0@@Z 0000000180010d6c f i UnityBuildCore.cpp.obj
 0001:0000fd6c       ??$_Dest_val@V?$allocator@V?$_Impl_no_alloc0@U?$_Callable_obj@V<lambda346>@?A0xe9eda812@@$0A@@tr1@std@@X@tr1@std@@@std@@V?$_Impl_no_alloc0@U?$_Callable_obj@V<lambda346>@?A0xe9eda812@@$0A@@tr1@std@@X@tr1@2@@std@@YAXAEAV?$allocator@V?$_Impl_no_alloc0@U?$_Callable_obj@V<lambda346>@?A0xe9eda812@@$0A@@tr1@std@@X@tr1@std@@@0@PEAV?$_Impl_no_alloc0@U?$_Callable_obj@V<lambda346>@?A0xe9eda812@@$0A@@tr1@std@@X@tr1@0@@Z 0000000180010d6c f i UnityBuildCore.cpp.obj
 0001:0000fd6c       ??$_Dest_val@V?$allocator@V?$_Impl_no_alloc0@U?$_Callable_obj@V<lambda72>@?A0xe9eda812@@$0A@@tr1@std@@X@tr1@std@@@std@@V?$_Impl_no_alloc0@U?$_Callable_obj@V<lambda72>@?A0xe9eda812@@$0A@@tr1@std@@X@tr1@2@@std@@YAXAEAV?$allocator@V?$_Impl_no_alloc0@U?$_Callable_obj@V<lambda72>@?A0xe9eda812@@$0A@@tr1@std@@X@tr1@std@@@0@PEAV?$_Impl_no_alloc0@U?$_Callable_obj@V<lambda72>@?A0xe9eda812@@$0A@@tr1@std@@X@tr1@0@@Z 0000000180010d6c f i UnityBuildCore.cpp.obj
 0001:0000fd6c       ??$_Dest_val@V?$allocator@V?$_Impl_no_alloc0@U?$_Callable_obj@V<lambda328>@?A0xe9eda812@@$0A@@tr1@std@@X@tr1@std@@@std@@V?$_Impl_no_alloc0@U?$_Callable_obj@V<lambda328>@?A0xe9eda812@@$0A@@tr1@std@@X@tr1@2@@std@@YAXAEAV?$allocator@V?$_Impl_no_alloc0@U?$_Callable_obj@V<lambda328>@?A0xe9eda812@@$0A@@tr1@std@@X@tr1@std@@@0@PEAV?$_Impl_no_alloc0@U?$_Callable_obj@V<lambda328>@?A0xe9eda812@@$0A@@tr1@std@@X@tr1@0@@Z 0000000180010d6c f i UnityBuildCore.cpp.obj
 0001:0000fd6c       ??$_Dest_val@V?$allocator@V?$_Impl_no_alloc0@U?$_Callable_obj@V<lambda324>@?A0xe9eda812@@$0A@@tr1@std@@X@tr1@std@@@std@@V?$_Impl_no_alloc0@U?$_Callable_obj@V<lambda324>@?A0xe9eda812@@$0A@@tr1@std@@X@tr1@2@@std@@YAXAEAV?$allocator@V?$_Impl_no_alloc0@U?$_Callable_obj@V<lambda324>@?A0xe9eda812@@$0A@@tr1@std@@X@tr1@std@@@0@PEAV?$_Impl_no_alloc0@U?$_Callable_obj@V<lambda324>@?A0xe9eda812@@$0A@@tr1@std@@X@tr1@0@@Z 0000000180010d6c f i UnityBuildCore.cpp.obj
 0001:0000fd6c       ??$_Dest_val@V?$allocator@V?$_Impl_no_alloc0@U?$_Callable_obj@V<lambda302>@?A0xe9eda812@@$0A@@tr1@std@@X@tr1@std@@@std@@V?$_Impl_no_alloc0@U?$_Callable_obj@V<lambda302>@?A0xe9eda812@@$0A@@tr1@std@@X@tr1@2@@std@@YAXAEAV?$allocator@V?$_Impl_no_alloc0@U?$_Callable_obj@V<lambda302>@?A0xe9eda812@@$0A@@tr1@std@@X@tr1@std@@@0@PEAV?$_Impl_no_alloc0@U?$_Callable_obj@V<lambda302>@?A0xe9eda812@@$0A@@tr1@std@@X@tr1@0@@Z 0000000180010d6c f i UnityBuildCore.cpp.obj
 0001:0000fd6c       ??$_Dest_val@V?$allocator@V?$_Impl_no_alloc0@U?$_Callable_obj@V<lambda330>@?A0xe9eda812@@$0A@@tr1@std@@X@tr1@std@@@std@@V?$_Impl_no_alloc0@U?$_Callable_obj@V<lambda330>@?A0xe9eda812@@$0A@@tr1@std@@X@tr1@2@@std@@YAXAEAV?$allocator@V?$_Impl_no_alloc0@U?$_Callable_obj@V<lambda330>@?A0xe9eda812@@$0A@@tr1@std@@X@tr1@std@@@0@PEAV?$_Impl_no_alloc0@U?$_Callable_obj@V<lambda330>@?A0xe9eda812@@$0A@@tr1@std@@X@tr1@0@@Z 0000000180010d6c f i UnityBuildCore.cpp.obj
 0001:0000fd6c       ??$_Dest_val@V?$allocator@V?$_Impl_no_alloc0@U?$_Callable_obj@V<lambda211>@?A0xe9eda812@@$0A@@tr1@std@@X@tr1@std@@@std@@V?$_Impl_no_alloc0@U?$_Callable_obj@V<lambda211>@?A0xe9eda812@@$0A@@tr1@std@@X@tr1@2@@std@@YAXAEAV?$allocator@V?$_Impl_no_alloc0@U?$_Callable_obj@V<lambda211>@?A0xe9eda812@@$0A@@tr1@std@@X@tr1@std@@@0@PEAV?$_Impl_no_alloc0@U?$_Callable_obj@V<lambda211>@?A0xe9eda812@@$0A@@tr1@std@@X@tr1@0@@Z 0000000180010d6c f i UnityBuildCore.cpp.obj
 0001:0000fd6c       ??$_Dest_val@V?$allocator@V?$_Impl_no_alloc0@U?$_Callable_obj@V<lambda273>@?A0xe9eda812@@$0A@@tr1@std@@X@tr1@std@@@std@@V?$_Impl_no_alloc0@U?$_Callable_obj@V<lambda273>@?A0xe9eda812@@$0A@@tr1@std@@X@tr1@2@@std@@YAXAEAV?$allocator@V?$_Impl_no_alloc0@U?$_Callable_obj@V<lambda273>@?A0xe9eda812@@$0A@@tr1@std@@X@tr1@std@@@0@PEAV?$_Impl_no_alloc0@U?$_Callable_obj@V<lambda273>@?A0xe9eda812@@$0A@@tr1@std@@X@tr1@0@@Z 0000000180010d6c f i UnityBuildCore.cpp.obj
 0001:0000fd6c       ??$_Dest_val@V?$allocator@V?$_Impl_no_alloc0@U?$_Callable_obj@V<lambda320>@?A0xe9eda812@@$0A@@tr1@std@@X@tr1@std@@@std@@V?$_Impl_no_alloc0@U?$_Callable_obj@V<lambda320>@?A0xe9eda812@@$0A@@tr1@std@@X@tr1@2@@std@@YAXAEAV?$allocator@V?$_Impl_no_alloc0@U?$_Callable_obj@V<lambda320>@?A0xe9eda812@@$0A@@tr1@std@@X@tr1@std@@@0@PEAV?$_Impl_no_alloc0@U?$_Callable_obj@V<lambda320>@?A0xe9eda812@@$0A@@tr1@std@@X@tr1@0@@Z 0000000180010d6c f i UnityBuildCore.cpp.obj
 0001:0000fd6c       ??$_Dest_val@V?$allocator@V?$_Impl_no_alloc0@U?$_Callable_obj@V<lambda194>@?A0xe9eda812@@$0A@@tr1@std@@X@tr1@std@@@std@@V?$_Impl_no_alloc0@U?$_Callable_obj@V<lambda194>@?A0xe9eda812@@$0A@@tr1@std@@X@tr1@2@@std@@YAXAEAV?$allocator@V?$_Impl_no_alloc0@U?$_Callable_obj@V<lambda194>@?A0xe9eda812@@$0A@@tr1@std@@X@tr1@std@@@0@PEAV?$_Impl_no_alloc0@U?$_Callable_obj@V<lambda194>@?A0xe9eda812@@$0A@@tr1@std@@X@tr1@0@@Z 0000000180010d6c f i UnityBuildCore.cpp.obj
 0001:0000fd6c       ??$_Dest_val@V?$allocator@V?$_Impl_no_alloc0@U?$_Callable_obj@V<lambda323>@?A0xe9eda812@@$0A@@tr1@std@@X@tr1@std@@@std@@V?$_Impl_no_alloc0@U?$_Callable_obj@V<lambda323>@?A0xe9eda812@@$0A@@tr1@std@@X@tr1@2@@std@@YAXAEAV?$allocator@V?$_Impl_no_alloc0@U?$_Callable_obj@V<lambda323>@?A0xe9eda812@@$0A@@tr1@std@@X@tr1@std@@@0@PEAV?$_Impl_no_alloc0@U?$_Callable_obj@V<lambda323>@?A0xe9eda812@@$0A@@tr1@std@@X@tr1@0@@Z 0000000180010d6c f i UnityBuildCore.cpp.obj
 0001:0000fd6c       ??$_Dest_val@V?$allocator@V?$_Impl_no_alloc0@U?$_Callable_obj@V<lambda66>@?A0xe9eda812@@$0A@@tr1@std@@X@tr1@std@@@std@@V?$_Impl_no_alloc0@U?$_Callable_obj@V<lambda66>@?A0xe9eda812@@$0A@@tr1@std@@X@tr1@2@@std@@YAXAEAV?$allocator@V?$_Impl_no_alloc0@U?$_Callable_obj@V<lambda66>@?A0xe9eda812@@$0A@@tr1@std@@X@tr1@std@@@0@PEAV?$_Impl_no_alloc0@U?$_Callable_obj@V<lambda66>@?A0xe9eda812@@$0A@@tr1@std@@X@tr1@0@@Z 0000000180010d6c f i UnityBuildCore.cpp.obj
 0001:0000fd6c       ??$_Dest_val@V?$allocator@V?$_Impl_no_alloc0@U?$_Callable_obj@V<lambda278>@?A0xe9eda812@@$0A@@tr1@std@@X@tr1@std@@@std@@V?$_Impl_no_alloc0@U?$_Callable_obj@V<lambda278>@?A0xe9eda812@@$0A@@tr1@std@@X@tr1@2@@std@@YAXAEAV?$allocator@V?$_Impl_no_alloc0@U?$_Callable_obj@V<lambda278>@?A0xe9eda812@@$0A@@tr1@std@@X@tr1@std@@@0@PEAV?$_Impl_no_alloc0@U?$_Callable_obj@V<lambda278>@?A0xe9eda812@@$0A@@tr1@std@@X@tr1@0@@Z 0000000180010d6c f i UnityBuildCore.cpp.obj
 0001:0000fd6c       ??$_Dest_val@V?$allocator@V?$_Impl_no_alloc0@U?$_Callable_obj@V<lambda163>@?A0xe9eda812@@$0A@@tr1@std@@X@tr1@std@@@std@@V?$_Impl_no_alloc0@U?$_Callable_obj@V<lambda163>@?A0xe9eda812@@$0A@@tr1@std@@X@tr1@2@@std@@YAXAEAV?$allocator@V?$_Impl_no_alloc0@U?$_Callable_obj@V<lambda163>@?A0xe9eda812@@$0A@@tr1@std@@X@tr1@std@@@0@PEAV?$_Impl_no_alloc0@U?$_Callable_obj@V<lambda163>@?A0xe9eda812@@$0A@@tr1@std@@X@tr1@0@@Z 0000000180010d6c f i UnityBuildCore.cpp.obj
 0001:0000fd6c       ??$_Dest_val@V?$allocator@V?$_Impl_no_alloc0@U?$_Callable_obj@V<lambda241>@?A0xe9eda812@@$0A@@tr1@std@@X@tr1@std@@@std@@V?$_Impl_no_alloc0@U?$_Callable_obj@V<lambda241>@?A0xe9eda812@@$0A@@tr1@std@@X@tr1@2@@std@@YAXAEAV?$allocator@V?$_Impl_no_alloc0@U?$_Callable_obj@V<lambda241>@?A0xe9eda812@@$0A@@tr1@std@@X@tr1@std@@@0@PEAV?$_Impl_no_alloc0@U?$_Callable_obj@V<lambda241>@?A0xe9eda812@@$0A@@tr1@std@@X@tr1@0@@Z 0000000180010d6c f i UnityBuildCore.cpp.obj
 0001:0000fd6c       ??$_Dest_val@V?$allocator@V?$_Impl_no_alloc0@U?$_Callable_obj@V<lambda93>@?A0xe9eda812@@$0A@@tr1@std@@X@tr1@std@@@std@@V?$_Impl_no_alloc0@U?$_Callable_obj@V<lambda93>@?A0xe9eda812@@$0A@@tr1@std@@X@tr1@2@@std@@YAXAEAV?$allocator@V?$_Impl_no_alloc0@U?$_Callable_obj@V<lambda93>@?A0xe9eda812@@$0A@@tr1@std@@X@tr1@std@@@0@PEAV?$_Impl_no_alloc0@U?$_Callable_obj@V<lambda93>@?A0xe9eda812@@$0A@@tr1@std@@X@tr1@0@@Z 0000000180010d6c f i UnityBuildCore.cpp.obj
 0001:0000fd6c       ??$_Dest_val@V?$allocator@V?$_Impl_no_alloc0@U?$_Callable_obj@V<lambda280>@?A0xe9eda812@@$0A@@tr1@std@@X@tr1@std@@@std@@V?$_Impl_no_alloc0@U?$_Callable_obj@V<lambda280>@?A0xe9eda812@@$0A@@tr1@std@@X@tr1@2@@std@@YAXAEAV?$allocator@V?$_Impl_no_alloc0@U?$_Callable_obj@V<lambda280>@?A0xe9eda812@@$0A@@tr1@std@@X@tr1@std@@@0@PEAV?$_Impl_no_alloc0@U?$_Callable_obj@V<lambda280>@?A0xe9eda812@@$0A@@tr1@std@@X@tr1@0@@Z 0000000180010d6c f i UnityBuildCore.cpp.obj
 0001:0000fd6c       ??$_Dest_val@V?$allocator@V?$_Impl_no_alloc0@U?$_Callable_obj@V<lambda148>@?A0xe9eda812@@$0A@@tr1@std@@X@tr1@std@@@std@@V?$_Impl_no_alloc0@U?$_Callable_obj@V<lambda148>@?A0xe9eda812@@$0A@@tr1@std@@X@tr1@2@@std@@YAXAEAV?$allocator@V?$_Impl_no_alloc0@U?$_Callable_obj@V<lambda148>@?A0xe9eda812@@$0A@@tr1@std@@X@tr1@std@@@0@PEAV?$_Impl_no_alloc0@U?$_Callable_obj@V<lambda148>@?A0xe9eda812@@$0A@@tr1@std@@X@tr1@0@@Z 0000000180010d6c f i UnityBuildCore.cpp.obj
 0001:0000fd6c       ??$_Dest_val@V?$allocator@V?$_Impl_no_alloc0@U?$_Callable_obj@V<lambda165>@?A0xe9eda812@@$0A@@tr1@std@@X@tr1@std@@@std@@V?$_Impl_no_alloc0@U?$_Callable_obj@V<lambda165>@?A0xe9eda812@@$0A@@tr1@std@@X@tr1@2@@std@@YAXAEAV?$allocator@V?$_Impl_no_alloc0@U?$_Callable_obj@V<lambda165>@?A0xe9eda812@@$0A@@tr1@std@@X@tr1@std@@@0@PEAV?$_Impl_no_alloc0@U?$_Callable_obj@V<lambda165>@?A0xe9eda812@@$0A@@tr1@std@@X@tr1@0@@Z 0000000180010d6c f i UnityBuildCore.cpp.obj
 0001:0000fd6c       ??$_Dest_val@V?$allocator@V?$_Impl_no_alloc0@U?$_Callable_obj@V<lambda208>@?A0xe9eda812@@$0A@@tr1@std@@X@tr1@std@@@std@@V?$_Impl_no_alloc0@U?$_Callable_obj@V<lambda208>@?A0xe9eda812@@$0A@@tr1@std@@X@tr1@2@@std@@YAXAEAV?$allocator@V?$_Impl_no_alloc0@U?$_Callable_obj@V<lambda208>@?A0xe9eda812@@$0A@@tr1@std@@X@tr1@std@@@0@PEAV?$_Impl_no_alloc0@U?$_Callable_obj@V<lambda208>@?A0xe9eda812@@$0A@@tr1@std@@X@tr1@0@@Z 0000000180010d6c f i UnityBuildCore.cpp.obj
 0001:0000fd78       ??0?$basic_streambuf@_WU?$char_traits@_W@std@@@std@@IEAA@XZ 0000000180010d78 f i UnityBuildCore.cpp.obj
 0001:0000fe6c       ??$_Uninitialized_copy0@PEBDPEA_W@std@@YAPEA_WPEBD0PEA_WU_Nonscalar_ptr_iterator_tag@0@@Z 0000000180010e6c f i UnityBuildCore.cpp.obj
 0001:0000fe9c       ??9@YA_NAEBVUTF8String@@0@Z 0000000180010e9c f   UnityBuildCore.cpp.obj
 0001:0000feb4       ?Remove@TList@@QEAA_JPEAX@Z 0000000180010eb4 f   UnityBuildCore.cpp.obj
 0001:0000fee4       ??1TMemoryStream@@UEAA@XZ  0000000180010ee4 f   UnityBuildCore.cpp.obj
 0001:0000ff18       ?CloseKey@TRegistry@@QEAAXXZ 0000000180010f18 f   UnityBuildCore.cpp.obj
 0001:0000ff50       ??1TCustomCommandData@@UEAA@XZ 0000000180010f50 f i UnityBuildCore.cpp.obj
 0001:0000ff8c       ?SetNumber@TRights@@QEAAXG@Z 0000000180010f8c f   UnityBuildCore.cpp.obj
 0001:0000ffd0       ?SetRightUndef@TRights@@QEAAXW4TRight@1@W4TState@1@@Z 0000000180010fd0 f   UnityBuildCore.cpp.obj
 0001:00010034       ?Default@TRemoteProperties@@QEAAXXZ 0000000180011034 f   UnityBuildCore.cpp.obj
 0001:00010088       ?Stop@TFileOperationProgressType@@QEAAXXZ 0000000180011088 f   UnityBuildCore.cpp.obj
 0001:000100c0       ?SetDone@TFileOperationProgressType@@QEAAXXZ 00000001800110c0 f   UnityBuildCore.cpp.obj
 0001:000100f4       ?Suspend@TFileOperationProgressType@@QEAAXXZ 00000001800110f4 f   UnityBuildCore.cpp.obj
 0001:00010154       ?Resume@TFileOperationProgressType@@QEAAXXZ 0000000180011154 f   UnityBuildCore.cpp.obj
 0001:000101fc       ?Progress@TFileOperationProgressType@@QEAAXXZ 00000001800111fc f   UnityBuildCore.cpp.obj
 0001:0001022c       ?ThrottleToCPSLimit@TFileOperationProgressType@@QEAAX_J@Z 000000018001122c f   UnityBuildCore.cpp.obj
 0001:00010260       ?CPS@TFileOperationProgressType@@QEBA_KXZ 0000000180011260 f   UnityBuildCore.cpp.obj
 0001:00010298       ?TimeExpected@TFileOperationProgressType@@QEBA?AVTDateTime@@XZ 0000000180011298 f   UnityBuildCore.cpp.obj
 0001:00010318       ??1TSimpleThread@@UEAA@XZ  0000000180011318 f   UnityBuildCore.cpp.obj
 0001:00010370       ??0TSignalThread@@IEAA@W4TObjectClassId@@_N@Z 0000000180011370 f   UnityBuildCore.cpp.obj
 0001:00010394       ?is@TSignalThread@@UEBA_NW4TObjectClassId@@@Z 0000000180011394 f i UnityBuildCore.cpp.obj
 0001:000103ac       ??1TSignalThread@@MEAA@XZ  00000001800113ac f   UnityBuildCore.cpp.obj
 0001:00010400       ?ItemPause@TTerminalQueue@@IEAA_NPEAVTQueueItem@@_N@Z 0000000180011400 f   UnityBuildCore.cpp.obj
 0001:000104a8       ??0TTerminalItem@@QEAA@PEAVTTerminalQueue@@@Z 00000001800114a8 f   UnityBuildCore.cpp.obj
 0001:000104fc       ?is@TTerminalItem@@UEBA_NW4TObjectClassId@@@Z 00000001800114fc f i UnityBuildCore.cpp.obj
 0001:0001051c       ??1TTerminalItem@@UEAA@XZ  000000018001151c f   UnityBuildCore.cpp.obj
 0001:00010574       ??_ETQueueItem@@MEAAPEAXI@Z 0000000180011574 f i UnityBuildCore.cpp.obj
 0001:00010574       ??_GTQueueItem@@MEAAPEAXI@Z 0000000180011574 f i UnityBuildCore.cpp.obj
 0001:000105a4       ?Pause@TQueueItemProxy@@QEAA_NXZ 00000001800115a4 f   UnityBuildCore.cpp.obj
 0001:000105b4       ?Resume@TQueueItemProxy@@QEAA_NXZ 00000001800115b4 f   UnityBuildCore.cpp.obj
 0001:000105c4       ?CloseLogFile@TSessionLog@@IEAAXXZ 00000001800115c4 f   UnityBuildCore.cpp.obj
 0001:000105c4       ?CloseLogFile@TActionLog@@IEAAXXZ 00000001800115c4 f   UnityBuildCore.cpp.obj
 0001:0001060c       ??0TCustomCommandData@@QEAA@XZ 000000018001160c f   UnityBuildCore.cpp.obj
 0001:00010628       ??_GTCustomCommandData@@UEAAPEAXI@Z 0000000180011628 f i UnityBuildCore.cpp.obj
 0001:00010628       ??_ETCustomCommandData@@UEAAPEAXI@Z 0000000180011628 f i UnityBuildCore.cpp.obj
 0001:00010680       ?FTPPostMessage@TFTPFileSystem@@IEAA_N_K0_J@Z 0000000180011680 f   UnityBuildCore.cpp.obj
 0001:00010734       ?ProcessMessage@TFTPFileSystem@@IEAA_NXZ 0000000180011734 f   UnityBuildCore.cpp.obj
 0001:000107f0       ?DiscardMessages@TFTPFileSystem@@IEAAXXZ 00000001800117f0 f   UnityBuildCore.cpp.obj
 0001:0001080c       ?AddInt64@TSFTPPacket@@QEAAX_J@Z 000000018001180c f i UnityBuildCore.cpp.obj
 0001:000108e4       ??1?$basic_string@DU?$char_traits@D@std@@V?$allocator@D@2@@std@@QEAA@XZ 00000001800118e4 f i UnityBuildCore.cpp.obj
 0001:00010914       ??1?$basic_string@_WU?$char_traits@_W@std@@V?$allocator@_W@2@@std@@QEAA@XZ 0000000180011914 f i UnityBuildCore.cpp.obj
 0001:00010944       ??1?$MemoryBuffer@_W$0BPE@U?$custom_nballocator_t@_W@@@internal@fmt@@UEAA@XZ 0000000180011944 f i UnityBuildCore.cpp.obj
 0001:0001097c       ??1UTF16ToUTF8@internal@fmt@@QEAA@XZ 000000018001197c f i fmt:format.cc.obj
 0001:0001097c       ??1?$MemoryBuffer@D$0BPE@U?$custom_nballocator_t@D@@@internal@fmt@@UEAA@XZ 000000018001197c f i UnityBuildCore.cpp.obj
 0001:000109b4       ?flush@?$basic_ostream@_WU?$char_traits@_W@std@@@std@@QEAAAEAV12@XZ 00000001800119b4 f i UnityBuildCore.cpp.obj
 0001:00010a24       ??1?$vector@VTRemoteToken@@Vallocator@rde@@U?$standard_vector_storage@VTRemoteToken@@Vallocator@rde@@@3@@rde@@QEAA@XZ 0000000180011a24 f i UnityBuildCore.cpp.obj
 0001:00010a24       ??1?$vector@UTOption@TOptions@@Vallocator@rde@@U?$standard_vector_storage@UTOption@TOptions@@Vallocator@rde@@@4@@rde@@QEAA@XZ 0000000180011a24 f i UnityBuildCore.cpp.obj
 0001:00010a6c       ??1?$vector@UTMask@TFileMasks@@Vallocator@rde@@U?$standard_vector_storage@UTMask@TFileMasks@@Vallocator@rde@@@4@@rde@@QEAA@XZ 0000000180011a6c f i UnityBuildCore.cpp.obj
 0001:00010ab4       ??1?$unique_ptr@VTCriticalSection@@U?$default_delete@VTCriticalSection@@@std@@@std@@QEAA@XZ 0000000180011ab4 f i UnityBuildCore.cpp.obj
 0001:00010ad8       ??1?$scope_guard@V<lambda120>@?A0xe9eda812@@@detail@Sysutils@@QEAA@XZ 0000000180011ad8 f i UnityBuildCore.cpp.obj
 0001:00010b00       ??1?$scope_guard@V<lambda203>@?A0xe9eda812@@@detail@Sysutils@@QEAA@XZ 0000000180011b00 f i UnityBuildCore.cpp.obj
 0001:00010b4c       ??1?$scope_guard@V<lambda264>@?A0xe9eda812@@@detail@Sysutils@@QEAA@XZ 0000000180011b4c f i UnityBuildCore.cpp.obj
 0001:00010b4c       ??1?$scope_guard@V<lambda212>@?A0xe9eda812@@@detail@Sysutils@@QEAA@XZ 0000000180011b4c f i UnityBuildCore.cpp.obj
 0001:00010b64       ??1?$scope_guard@V<lambda256>@?A0xe9eda812@@@detail@Sysutils@@QEAA@XZ 0000000180011b64 f i UnityBuildCore.cpp.obj
 0001:00010bb8       ??1?$scope_guard@V<lambda295>@?A0xe9eda812@@@detail@Sysutils@@QEAA@XZ 0000000180011bb8 f i UnityBuildCore.cpp.obj
 0001:00010bf0       ??1?$vector@_NVallocator@rde@@U?$standard_vector_storage@_NVallocator@rde@@@2@@rde@@QEAA@XZ 0000000180011bf0 f i UnityBuildCore.cpp.obj
 0001:00010bf0       ??1?$vector@W4TKex@@Vallocator@rde@@U?$standard_vector_storage@W4TKex@@Vallocator@rde@@@3@@rde@@QEAA@XZ 0000000180011bf0 f i UnityBuildCore.cpp.obj
 0001:00010bf0       ??1?$vector@W4TGssLib@@Vallocator@rde@@U?$standard_vector_storage@W4TGssLib@@Vallocator@rde@@@3@@rde@@QEAA@XZ 0000000180011bf0 f i UnityBuildCore.cpp.obj
 0001:00010bf0       ??1?$vector@EVallocator@rde@@U?$standard_vector_storage@EVallocator@rde@@@2@@rde@@QEAA@XZ 0000000180011bf0 f i UnityBuildCore.cpp.obj
 0001:00010bf0       ??1?$vector@PEAXVallocator@rde@@U?$standard_vector_storage@PEAXVallocator@rde@@@2@@rde@@QEAA@XZ 0000000180011bf0 f i UnityBuildCore.cpp.obj
 0001:00010bf0       ??1?$vector@_JVallocator@rde@@U?$standard_vector_storage@_JVallocator@rde@@@2@@rde@@QEAA@XZ 0000000180011bf0 f i UnityBuildCore.cpp.obj
 0001:00010bf0       ??1?$vector@DVallocator@rde@@U?$standard_vector_storage@DVallocator@rde@@@2@@rde@@QEAA@XZ 0000000180011bf0 f i UnityBuildCore.cpp.obj
 0001:00010bf0       ??1?$vector@_KVallocator@rde@@U?$standard_vector_storage@_KVallocator@rde@@@2@@rde@@QEAA@XZ 0000000180011bf0 f i UnityBuildCore.cpp.obj
 0001:00010bf0       ??1?$vector@UTListDataEntry@@Vallocator@rde@@U?$standard_vector_storage@UTListDataEntry@@Vallocator@rde@@@3@@rde@@QEAA@XZ 0000000180011bf0 f i UnityBuildFilezilla.cpp.obj
 0001:00010bf0       ??1?$vector@W4TCipher@@Vallocator@rde@@U?$standard_vector_storage@W4TCipher@@Vallocator@rde@@@3@@rde@@QEAA@XZ 0000000180011bf0 f i UnityBuildCore.cpp.obj
 0001:00010bf0       ??1?$vector@PEAVXMLElement@tinyxml2@@Vallocator@rde@@U?$standard_vector_storage@PEAVXMLElement@tinyxml2@@Vallocator@rde@@@4@@rde@@QEAA@XZ 0000000180011bf0 f i UnityBuildMain.cpp.obj
 0001:00010c08       ??_G?$MemoryBuffer@_W$0BPE@U?$custom_nballocator_t@_W@@@internal@fmt@@UEAAPEAXI@Z 0000000180011c08 f i UnityBuildCore.cpp.obj
 0001:00010c08       ??_E?$MemoryBuffer@_W$0BPE@U?$custom_nballocator_t@_W@@@internal@fmt@@UEAAPEAXI@Z 0000000180011c08 f i UnityBuildCore.cpp.obj
 0001:00010c5c       ??_G?$MemoryBuffer@D$0BPE@U?$custom_nballocator_t@D@@@internal@fmt@@UEAAPEAXI@Z 0000000180011c5c f i UnityBuildCore.cpp.obj
 0001:00010c5c       ??_E?$MemoryBuffer@D$0BPE@U?$custom_nballocator_t@D@@@internal@fmt@@UEAAPEAXI@Z 0000000180011c5c f i UnityBuildCore.cpp.obj
 0001:00010cb0       ??1t_cap@TFTPServerCapabilities@@QEAA@XZ 0000000180011cb0 f i UnityBuildCore.cpp.obj
 0001:00010ce0       ?copy@?$vector@_JVallocator@rde@@U?$standard_vector_storage@_JVallocator@rde@@@2@@rde@@QEAAXAEBV12@@Z 0000000180011ce0 f i UnityBuildCore.cpp.obj
 0001:00010d4c       ??0sentry@?$basic_ostream@_WU?$char_traits@_W@std@@@std@@QEAA@AEAV12@@Z 0000000180011d4c f i UnityBuildCore.cpp.obj
 0001:00010dc4       ?_Osfx@?$basic_ostream@_WU?$char_traits@_W@std@@@std@@QEAAXXZ 0000000180011dc4 f i UnityBuildCore.cpp.obj
 0001:00010dec       ?insert@?$vector@_KVallocator@rde@@U?$standard_vector_storage@_KVallocator@rde@@@2@@rde@@QEAAX_K0AEB_K@Z 0000000180011dec f i UnityBuildCore.cpp.obj
 0001:00010f28       ?GetBuffer@?$CMSimpleStringT@_W@@QEAAPEA_WXZ 0000000180011f28 f i UnityBuildCore.cpp.obj
 0001:00010f4c       ??0?$CMStringT@_WV?$NBChTraitsCRT@_W@@@@QEAA@PEB_WH@Z 0000000180011f4c f i UnityBuildCore.cpp.obj
 0001:00010f64       ??0?$CMStringT@DV?$NBChTraitsCRT@D@@@@QEAA@AEBV0@@Z 0000000180011f64 f i UnityBuildCore.cpp.obj
 0001:00010f64       ??0?$CMStringT@_WV?$NBChTraitsCRT@_W@@@@QEAA@AEBV0@@Z 0000000180011f64 f i UnityBuildCore.cpp.obj
 0001:00010f64       ??0?$CMStringT@EV?$NBChTraitsCRT@E@@@@QEAA@AEBV0@@Z 0000000180011f64 f i UnityBuildCore.cpp.obj
 0001:00010f7c       ?Delete@?$CMStringT@_WV?$NBChTraitsCRT@_W@@@@QEAAHHH@Z 0000000180011f7c f i UnityBuildCore.cpp.obj
 0001:00011024       ?Mid@?$CMStringT@_WV?$NBChTraitsCRT@_W@@@@QEBA?AV1@HH@Z 0000000180012024 f i UnityBuildCore.cpp.obj
 0001:00011094       ?Mid@?$CMStringT@_WV?$NBChTraitsCRT@_W@@@@QEBA?AV1@H@Z 0000000180012094 f i UnityBuildCore.cpp.obj
 0001:000110bc       ??0?$CMStringT@EV?$NBChTraitsCRT@E@@@@QEAA@XZ 00000001800120bc f i UnityBuildCore.cpp.obj
 0001:000110bc       ??0?$CMStringT@DV?$NBChTraitsCRT@D@@@@QEAA@XZ 00000001800120bc f i UnityBuildCore.cpp.obj
 0001:000110bc       ??0?$CMStringT@_WV?$NBChTraitsCRT@_W@@@@QEAA@XZ 00000001800120bc f i UnityBuildCore.cpp.obj
 0001:000110d4       ??1?$CMStringT@EV?$NBChTraitsCRT@E@@@@QEAA@XZ 00000001800120d4 f i UnityBuildCore.cpp.obj
 0001:000110d4       ??1?$CMStringT@_WV?$NBChTraitsCRT@_W@@@@QEAA@XZ 00000001800120d4 f i UnityBuildCore.cpp.obj
 0001:000110d4       ??1?$CMStringT@DV?$NBChTraitsCRT@D@@@@QEAA@XZ 00000001800120d4 f i UnityBuildCore.cpp.obj
 0001:000110dc       ?Mid@?$CMStringT@EV?$NBChTraitsCRT@E@@@@QEBA?AV1@HH@Z 00000001800120dc f i UnityBuildCore.cpp.obj
 0001:000110dc       ?Mid@?$CMStringT@DV?$NBChTraitsCRT@D@@@@QEBA?AV1@HH@Z 00000001800120dc f i UnityBuildCore.cpp.obj
 0001:00011148       ?Mid@?$CMStringT@DV?$NBChTraitsCRT@D@@@@QEBA?AV1@H@Z 0000000180012148 f i UnityBuildCore.cpp.obj
 0001:00011170       ?grow@?$MemoryBuffer@_W$0BPE@U?$custom_nballocator_t@_W@@@internal@fmt@@MEAAX_K@Z 0000000180012170 f i UnityBuildCore.cpp.obj
 0001:00011230       ?grow@?$MemoryBuffer@D$0BPE@U?$custom_nballocator_t@D@@@internal@fmt@@MEAAX_K@Z 0000000180012230 f i UnityBuildCore.cpp.obj
 0001:000112e8       ??0?$CMStringT@DV?$NBChTraitsCRT@D@@@@QEAA@PEBDH@Z 00000001800122e8 f i UnityBuildCore.cpp.obj
 0001:000112e8       ??0?$CMStringT@EV?$NBChTraitsCRT@E@@@@QEAA@PEBDH@Z 00000001800122e8 f i UnityBuildCore.cpp.obj
 0001:00011300       ?visit@?$ArgVisitor@VPrecisionHandler@internal@fmt@@H@fmt@@QEAAHAEBUArg@internal@2@@Z 0000000180012300 f i UnityBuildCore.cpp.obj
 0001:000115b8       ?visit@?$ArgVisitor@V?$ArgConverter@C@internal@fmt@@X@fmt@@QEAAXAEBUArg@internal@2@@Z 00000001800125b8 f i UnityBuildCore.cpp.obj
 0001:000116b8       ?visit@?$ArgVisitor@V?$ArgConverter@F@internal@fmt@@X@fmt@@QEAAXAEBUArg@internal@2@@Z 00000001800126b8 f i UnityBuildCore.cpp.obj
 0001:000117f4       ?visit@?$ArgVisitor@V?$ArgConverter@_J@internal@fmt@@X@fmt@@QEAAXAEBUArg@internal@2@@Z 00000001800127f4 f i UnityBuildCore.cpp.obj
 0001:000117f4       ?visit@?$ArgVisitor@V?$ArgConverter@_K@internal@fmt@@X@fmt@@QEAAXAEBUArg@internal@2@@Z 00000001800127f4 f i UnityBuildCore.cpp.obj
 0001:00011964       ?visit@?$ArgVisitor@V?$ArgConverter@J@internal@fmt@@X@fmt@@QEAAXAEBUArg@internal@2@@Z 0000000180012964 f i UnityBuildCore.cpp.obj
 0001:00011aa4       ?visit@?$ArgVisitor@V?$ArgConverter@X@internal@fmt@@X@fmt@@QEAAXAEBUArg@internal@2@@Z 0000000180012aa4 f i UnityBuildCore.cpp.obj
 0001:00011c4c       ?insert@?$vector@DVallocator@rde@@U?$standard_vector_storage@DVallocator@rde@@@2@@rde@@QEAAX_K0AEBD@Z 0000000180012c4c f i UnityBuildCore.cpp.obj
 0001:00011c4c       ?insert@?$vector@EVallocator@rde@@U?$standard_vector_storage@EVallocator@rde@@@2@@rde@@QEAAX_K0AEBE@Z 0000000180012c4c f i UnityBuildCore.cpp.obj
 0001:00011c4c       ?insert@?$vector@_NVallocator@rde@@U?$standard_vector_storage@_NVallocator@rde@@@2@@rde@@QEAAX_K0AEB_N@Z 0000000180012c4c f i UnityBuildCore.cpp.obj
 0001:00011d74       ?PrepareWrite@?$CMSimpleStringT@_W@@AEAAPEA_WH@Z 0000000180012d74 f i UnityBuildCore.cpp.obj
 0001:00011da4       ?GetBuffer@?$CMSimpleStringT@E@@QEAAPEADXZ 0000000180012da4 f i UnityBuildCore.cpp.obj
 0001:00011da4       ?GetBuffer@?$CMSimpleStringT@D@@QEAAPEADXZ 0000000180012da4 f i UnityBuildCore.cpp.obj
 0001:00011dc8       ?PrepareWrite@?$CMSimpleStringT@D@@AEAAPEADH@Z 0000000180012dc8 f i UnityBuildCore.cpp.obj
 0001:00011dc8       ?PrepareWrite@?$CMSimpleStringT@E@@AEAAPEADH@Z 0000000180012dc8 f i UnityBuildCore.cpp.obj
 0001:00011df8       ?fill_padding@?$BasicWriter@D@fmt@@CAPEADPEADI_K_W@Z 0000000180012df8 f i UnityBuildCore.cpp.obj
 0001:00011e68       ?fill_padding@?$BasicWriter@_W@fmt@@CAPEA_WPEA_WI_K_W@Z 0000000180012e68 f i UnityBuildCore.cpp.obj
 0001:00011eb8       ??$_Reset0o@V?$_Impl_no_alloc0@U?$_Callable_obj@V<lambda33>@?A0xe9eda812@@$0A@@tr1@std@@X@tr1@std@@V<lambda33>@?A0xe9eda812@@V?$allocator@V?$_Function_impl0@X@tr1@std@@@3@@?$_Function_impl0@X@tr1@std@@IEAAXV<lambda33>@?A0xe9eda812@@V?$allocator@V?$_Function_impl0@X@tr1@std@@@2@@Z 0000000180012eb8 f i UnityBuildCore.cpp.obj
 0001:00011f44       ??$_Reset0o@V?$_Impl_no_alloc0@U?$_Callable_obj@V<lambda66>@?A0xe9eda812@@$0A@@tr1@std@@X@tr1@std@@V<lambda66>@?A0xe9eda812@@V?$allocator@V?$_Function_impl0@X@tr1@std@@@3@@?$_Function_impl0@X@tr1@std@@IEAAXV<lambda66>@?A0xe9eda812@@V?$allocator@V?$_Function_impl0@X@tr1@std@@@2@@Z 0000000180012f44 f i UnityBuildCore.cpp.obj
 0001:00011fc8       ??$_Reset0o@V?$_Impl_no_alloc0@U?$_Callable_obj@V<lambda67>@?A0xe9eda812@@$0A@@tr1@std@@X@tr1@std@@V<lambda67>@?A0xe9eda812@@V?$allocator@V?$_Function_impl0@X@tr1@std@@@3@@?$_Function_impl0@X@tr1@std@@IEAAXV<lambda67>@?A0xe9eda812@@V?$allocator@V?$_Function_impl0@X@tr1@std@@@2@@Z 0000000180012fc8 f i UnityBuildCore.cpp.obj
 0001:00012054       ??$_Reset0o@V?$_Impl_no_alloc0@U?$_Callable_obj@V<lambda68>@?A0xe9eda812@@$0A@@tr1@std@@X@tr1@std@@V<lambda68>@?A0xe9eda812@@V?$allocator@V?$_Function_impl0@X@tr1@std@@@3@@?$_Function_impl0@X@tr1@std@@IEAAXV<lambda68>@?A0xe9eda812@@V?$allocator@V?$_Function_impl0@X@tr1@std@@@2@@Z 0000000180013054 f i UnityBuildCore.cpp.obj
 0001:000120d8       ??$_Reset0o@V?$_Impl_no_alloc0@U?$_Callable_obj@V<lambda69>@?A0xe9eda812@@$0A@@tr1@std@@X@tr1@std@@V<lambda69>@?A0xe9eda812@@V?$allocator@V?$_Function_impl0@X@tr1@std@@@3@@?$_Function_impl0@X@tr1@std@@IEAAXV<lambda69>@?A0xe9eda812@@V?$allocator@V?$_Function_impl0@X@tr1@std@@@2@@Z 00000001800130d8 f i UnityBuildCore.cpp.obj
 0001:00012164       ??$_Reset0o@V?$_Impl_no_alloc0@U?$_Callable_obj@V<lambda70>@?A0xe9eda812@@$0A@@tr1@std@@X@tr1@std@@V<lambda70>@?A0xe9eda812@@V?$allocator@V?$_Function_impl0@X@tr1@std@@@3@@?$_Function_impl0@X@tr1@std@@IEAAXV<lambda70>@?A0xe9eda812@@V?$allocator@V?$_Function_impl0@X@tr1@std@@@2@@Z 0000000180013164 f i UnityBuildCore.cpp.obj
 0001:000121f0       ??$_Reset0o@V?$_Impl_no_alloc0@U?$_Callable_obj@V<lambda72>@?A0xe9eda812@@$0A@@tr1@std@@X@tr1@std@@V<lambda72>@?A0xe9eda812@@V?$allocator@V?$_Function_impl0@X@tr1@std@@@3@@?$_Function_impl0@X@tr1@std@@IEAAXV<lambda72>@?A0xe9eda812@@V?$allocator@V?$_Function_impl0@X@tr1@std@@@2@@Z 00000001800131f0 f i UnityBuildCore.cpp.obj
 0001:00012274       ??$_Reset0o@V?$_Impl_no_alloc0@U?$_Callable_obj@V<lambda76>@?A0xe9eda812@@$0A@@tr1@std@@X@tr1@std@@V<lambda76>@?A0xe9eda812@@V?$allocator@V?$_Function_impl0@X@tr1@std@@@3@@?$_Function_impl0@X@tr1@std@@IEAAXV<lambda76>@?A0xe9eda812@@V?$allocator@V?$_Function_impl0@X@tr1@std@@@2@@Z 0000000180013274 f i UnityBuildCore.cpp.obj
 0001:000122f8       ??$_Reset0o@V?$_Impl_no_alloc0@U?$_Callable_obj@V<lambda85>@?A0xe9eda812@@$0A@@tr1@std@@X@tr1@std@@V<lambda85>@?A0xe9eda812@@V?$allocator@V?$_Function_impl0@X@tr1@std@@@3@@?$_Function_impl0@X@tr1@std@@IEAAXV<lambda85>@?A0xe9eda812@@V?$allocator@V?$_Function_impl0@X@tr1@std@@@2@@Z 00000001800132f8 f i UnityBuildCore.cpp.obj
 0001:0001237c       ??$_Reset0o@V?$_Impl_no_alloc0@U?$_Callable_obj@V<lambda108>@?A0xe9eda812@@$0A@@tr1@std@@X@tr1@std@@V<lambda108>@?A0xe9eda812@@V?$allocator@V?$_Function_impl0@X@tr1@std@@@3@@?$_Function_impl0@X@tr1@std@@IEAAXV<lambda108>@?A0xe9eda812@@V?$allocator@V?$_Function_impl0@X@tr1@std@@@2@@Z 000000018001337c f i UnityBuildCore.cpp.obj
 0001:00012408       ??$_Reset0o@V?$_Impl_no_alloc0@U?$_Callable_obj@V<lambda185>@?A0xe9eda812@@$0A@@tr1@std@@X@tr1@std@@V<lambda185>@?A0xe9eda812@@V?$allocator@V?$_Function_impl0@X@tr1@std@@@3@@?$_Function_impl0@X@tr1@std@@IEAAXV<lambda185>@?A0xe9eda812@@V?$allocator@V?$_Function_impl0@X@tr1@std@@@2@@Z 0000000180013408 f i UnityBuildCore.cpp.obj
 0001:0001248c       ??$_Reset0o@V?$_Impl_no_alloc0@U?$_Callable_obj@V<lambda188>@?A0xe9eda812@@$0A@@tr1@std@@X@tr1@std@@V<lambda188>@?A0xe9eda812@@V?$allocator@V?$_Function_impl0@X@tr1@std@@@3@@?$_Function_impl0@X@tr1@std@@IEAAXV<lambda188>@?A0xe9eda812@@V?$allocator@V?$_Function_impl0@X@tr1@std@@@2@@Z 000000018001348c f i UnityBuildCore.cpp.obj
 0001:00012510       ??$_Reset0o@V?$_Impl_no_alloc0@U?$_Callable_obj@V<lambda189>@?A0xe9eda812@@$0A@@tr1@std@@X@tr1@std@@V<lambda189>@?A0xe9eda812@@V?$allocator@V?$_Function_impl0@X@tr1@std@@@3@@?$_Function_impl0@X@tr1@std@@IEAAXV<lambda189>@?A0xe9eda812@@V?$allocator@V?$_Function_impl0@X@tr1@std@@@2@@Z 0000000180013510 f i UnityBuildCore.cpp.obj
 0001:00012594       ??$_Reset0o@V?$_Impl_no_alloc0@U?$_Callable_obj@V<lambda191>@?A0xe9eda812@@$0A@@tr1@std@@X@tr1@std@@V<lambda191>@?A0xe9eda812@@V?$allocator@V?$_Function_impl0@X@tr1@std@@@3@@?$_Function_impl0@X@tr1@std@@IEAAXV<lambda191>@?A0xe9eda812@@V?$allocator@V?$_Function_impl0@X@tr1@std@@@2@@Z 0000000180013594 f i UnityBuildCore.cpp.obj
 0001:00012620       ??$_Reset0o@V?$_Impl_no_alloc0@U?$_Callable_obj@V<lambda195>@?A0xe9eda812@@$0A@@tr1@std@@X@tr1@std@@V<lambda195>@?A0xe9eda812@@V?$allocator@V?$_Function_impl0@X@tr1@std@@@3@@?$_Function_impl0@X@tr1@std@@IEAAXV<lambda195>@?A0xe9eda812@@V?$allocator@V?$_Function_impl0@X@tr1@std@@@2@@Z 0000000180013620 f i UnityBuildCore.cpp.obj
 0001:000126a4       ??$_Reset0o@V?$_Impl_no_alloc0@U?$_Callable_obj@V<lambda199>@?A0xe9eda812@@$0A@@tr1@std@@X@tr1@std@@V<lambda199>@?A0xe9eda812@@V?$allocator@V?$_Function_impl0@X@tr1@std@@@3@@?$_Function_impl0@X@tr1@std@@IEAAXV<lambda199>@?A0xe9eda812@@V?$allocator@V?$_Function_impl0@X@tr1@std@@@2@@Z 00000001800136a4 f i UnityBuildCore.cpp.obj
 0001:00012728       ??$_Reset0o@V?$_Impl_no_alloc0@U?$_Callable_obj@V<lambda206>@?A0xe9eda812@@$0A@@tr1@std@@X@tr1@std@@V<lambda206>@?A0xe9eda812@@V?$allocator@V?$_Function_impl0@X@tr1@std@@@3@@?$_Function_impl0@X@tr1@std@@IEAAXV<lambda206>@?A0xe9eda812@@V?$allocator@V?$_Function_impl0@X@tr1@std@@@2@@Z 0000000180013728 f i UnityBuildCore.cpp.obj
 0001:000127b4       ??$_Reset0o@V?$_Impl_no_alloc0@U?$_Callable_obj@V<lambda214>@?A0xe9eda812@@$0A@@tr1@std@@X@tr1@std@@V<lambda214>@?A0xe9eda812@@V?$allocator@V?$_Function_impl0@X@tr1@std@@@3@@?$_Function_impl0@X@tr1@std@@IEAAXV<lambda214>@?A0xe9eda812@@V?$allocator@V?$_Function_impl0@X@tr1@std@@@2@@Z 00000001800137b4 f i UnityBuildCore.cpp.obj
 0001:00012840       ??$_Reset0o@V?$_Impl_no_alloc0@U?$_Callable_obj@V<lambda219>@?A0xe9eda812@@$0A@@tr1@std@@X@tr1@std@@V<lambda219>@?A0xe9eda812@@V?$allocator@V?$_Function_impl0@X@tr1@std@@@3@@?$_Function_impl0@X@tr1@std@@IEAAXV<lambda219>@?A0xe9eda812@@V?$allocator@V?$_Function_impl0@X@tr1@std@@@2@@Z 0000000180013840 f i UnityBuildCore.cpp.obj
 0001:000128c4       ??$_Reset0o@V?$_Impl_no_alloc0@U?$_Callable_obj@V<lambda220>@?A0xe9eda812@@$0A@@tr1@std@@X@tr1@std@@V<lambda220>@?A0xe9eda812@@V?$allocator@V?$_Function_impl0@X@tr1@std@@@3@@?$_Function_impl0@X@tr1@std@@IEAAXV<lambda220>@?A0xe9eda812@@V?$allocator@V?$_Function_impl0@X@tr1@std@@@2@@Z 00000001800138c4 f i UnityBuildCore.cpp.obj
 0001:00012950       ??$_Reset0o@V?$_Impl_no_alloc0@U?$_Callable_obj@V<lambda224>@?A0xe9eda812@@$0A@@tr1@std@@X@tr1@std@@V<lambda224>@?A0xe9eda812@@V?$allocator@V?$_Function_impl0@X@tr1@std@@@3@@?$_Function_impl0@X@tr1@std@@IEAAXV<lambda224>@?A0xe9eda812@@V?$allocator@V?$_Function_impl0@X@tr1@std@@@2@@Z 0000000180013950 f i UnityBuildCore.cpp.obj
 0001:000129d4       ??$_Reset0o@V?$_Impl_no_alloc0@U?$_Callable_obj@V<lambda225>@?A0xe9eda812@@$0A@@tr1@std@@X@tr1@std@@V<lambda225>@?A0xe9eda812@@V?$allocator@V?$_Function_impl0@X@tr1@std@@@3@@?$_Function_impl0@X@tr1@std@@IEAAXV<lambda225>@?A0xe9eda812@@V?$allocator@V?$_Function_impl0@X@tr1@std@@@2@@Z 00000001800139d4 f i UnityBuildCore.cpp.obj
 0001:00012a60       ??$_Reset0o@V?$_Impl_no_alloc0@U?$_Callable_obj@V<lambda231>@?A0xe9eda812@@$0A@@tr1@std@@X@tr1@std@@V<lambda231>@?A0xe9eda812@@V?$allocator@V?$_Function_impl0@X@tr1@std@@@3@@?$_Function_impl0@X@tr1@std@@IEAAXV<lambda231>@?A0xe9eda812@@V?$allocator@V?$_Function_impl0@X@tr1@std@@@2@@Z 0000000180013a60 f i UnityBuildCore.cpp.obj
 0001:00012ae4       ??$_Reset0o@V?$_Impl_no_alloc0@U?$_Callable_obj@V<lambda276>@?A0xe9eda812@@$0A@@tr1@std@@X@tr1@std@@V<lambda276>@?A0xe9eda812@@V?$allocator@V?$_Function_impl0@X@tr1@std@@@3@@?$_Function_impl0@X@tr1@std@@IEAAXV<lambda276>@?A0xe9eda812@@V?$allocator@V?$_Function_impl0@X@tr1@std@@@2@@Z 0000000180013ae4 f i UnityBuildCore.cpp.obj
 0001:00012b68       ??$_Reset0o@V?$_Impl_no_alloc0@U?$_Callable_obj@V<lambda277>@?A0xe9eda812@@$0A@@tr1@std@@X@tr1@std@@V<lambda277>@?A0xe9eda812@@V?$allocator@V?$_Function_impl0@X@tr1@std@@@3@@?$_Function_impl0@X@tr1@std@@IEAAXV<lambda277>@?A0xe9eda812@@V?$allocator@V?$_Function_impl0@X@tr1@std@@@2@@Z 0000000180013b68 f i UnityBuildCore.cpp.obj
 0001:00012bf4       ??$_Reset0o@V?$_Impl_no_alloc0@U?$_Callable_obj@V<lambda280>@?A0xe9eda812@@$0A@@tr1@std@@X@tr1@std@@V<lambda280>@?A0xe9eda812@@V?$allocator@V?$_Function_impl0@X@tr1@std@@@3@@?$_Function_impl0@X@tr1@std@@IEAAXV<lambda280>@?A0xe9eda812@@V?$allocator@V?$_Function_impl0@X@tr1@std@@@2@@Z 0000000180013bf4 f i UnityBuildCore.cpp.obj
 0001:00012c78       ??$_Reset0o@V?$_Impl_no_alloc0@U?$_Callable_obj@V<lambda281>@?A0xe9eda812@@$0A@@tr1@std@@X@tr1@std@@V<lambda281>@?A0xe9eda812@@V?$allocator@V?$_Function_impl0@X@tr1@std@@@3@@?$_Function_impl0@X@tr1@std@@IEAAXV<lambda281>@?A0xe9eda812@@V?$allocator@V?$_Function_impl0@X@tr1@std@@@2@@Z 0000000180013c78 f i UnityBuildCore.cpp.obj
 0001:00012d04       ??$_Reset0o@V?$_Impl_no_alloc0@U?$_Callable_obj@V<lambda282>@?A0xe9eda812@@$0A@@tr1@std@@X@tr1@std@@V<lambda282>@?A0xe9eda812@@V?$allocator@V?$_Function_impl0@X@tr1@std@@@3@@?$_Function_impl0@X@tr1@std@@IEAAXV<lambda282>@?A0xe9eda812@@V?$allocator@V?$_Function_impl0@X@tr1@std@@@2@@Z 0000000180013d04 f i UnityBuildCore.cpp.obj
 0001:00012d90       ??$_Reset0o@V?$_Impl_no_alloc0@U?$_Callable_obj@V<lambda286>@?A0xe9eda812@@$0A@@tr1@std@@X@tr1@std@@V<lambda286>@?A0xe9eda812@@V?$allocator@V?$_Function_impl0@X@tr1@std@@@3@@?$_Function_impl0@X@tr1@std@@IEAAXV<lambda286>@?A0xe9eda812@@V?$allocator@V?$_Function_impl0@X@tr1@std@@@2@@Z 0000000180013d90 f i UnityBuildCore.cpp.obj
 0001:00012e14       ??$_Reset0o@V?$_Impl_no_alloc0@U?$_Callable_obj@V<lambda291>@?A0xe9eda812@@$0A@@tr1@std@@X@tr1@std@@V<lambda291>@?A0xe9eda812@@V?$allocator@V?$_Function_impl0@X@tr1@std@@@3@@?$_Function_impl0@X@tr1@std@@IEAAXV<lambda291>@?A0xe9eda812@@V?$allocator@V?$_Function_impl0@X@tr1@std@@@2@@Z 0000000180013e14 f i UnityBuildCore.cpp.obj
 0001:00012e98       ??$_Reset0o@V?$_Impl_no_alloc0@U?$_Callable_obj@V<lambda294>@?A0xe9eda812@@$0A@@tr1@std@@X@tr1@std@@V<lambda294>@?A0xe9eda812@@V?$allocator@V?$_Function_impl0@X@tr1@std@@@3@@?$_Function_impl0@X@tr1@std@@IEAAXV<lambda294>@?A0xe9eda812@@V?$allocator@V?$_Function_impl0@X@tr1@std@@@2@@Z 0000000180013e98 f i UnityBuildCore.cpp.obj
 0001:00012f24       ??$_Reset0o@V?$_Impl_no_alloc0@U?$_Callable_obj@V<lambda302>@?A0xe9eda812@@$0A@@tr1@std@@X@tr1@std@@V<lambda302>@?A0xe9eda812@@V?$allocator@V?$_Function_impl0@X@tr1@std@@@3@@?$_Function_impl0@X@tr1@std@@IEAAXV<lambda302>@?A0xe9eda812@@V?$allocator@V?$_Function_impl0@X@tr1@std@@@2@@Z 0000000180013f24 f i UnityBuildCore.cpp.obj
 0001:00012fb0       ??$_Reset0o@V?$_Impl_no_alloc0@U?$_Callable_obj@V<lambda310>@?A0xe9eda812@@$0A@@tr1@std@@X@tr1@std@@V<lambda310>@?A0xe9eda812@@V?$allocator@V?$_Function_impl0@X@tr1@std@@@3@@?$_Function_impl0@X@tr1@std@@IEAAXV<lambda310>@?A0xe9eda812@@V?$allocator@V?$_Function_impl0@X@tr1@std@@@2@@Z 0000000180013fb0 f i UnityBuildCore.cpp.obj
 0001:0001303c       ??$_Reset0o@V?$_Impl_no_alloc0@U?$_Callable_obj@V<lambda313>@?A0xe9eda812@@$0A@@tr1@std@@X@tr1@std@@V<lambda313>@?A0xe9eda812@@V?$allocator@V?$_Function_impl0@X@tr1@std@@@3@@?$_Function_impl0@X@tr1@std@@IEAAXV<lambda313>@?A0xe9eda812@@V?$allocator@V?$_Function_impl0@X@tr1@std@@@2@@Z 000000018001403c f i UnityBuildCore.cpp.obj
 0001:000130c0       ??$_Reset0o@V?$_Impl_no_alloc0@U?$_Callable_obj@V<lambda314>@?A0xe9eda812@@$0A@@tr1@std@@X@tr1@std@@V<lambda314>@?A0xe9eda812@@V?$allocator@V?$_Function_impl0@X@tr1@std@@@3@@?$_Function_impl0@X@tr1@std@@IEAAXV<lambda314>@?A0xe9eda812@@V?$allocator@V?$_Function_impl0@X@tr1@std@@@2@@Z 00000001800140c0 f i UnityBuildCore.cpp.obj
 0001:0001314c       ??$_Reset0o@V?$_Impl_no_alloc0@U?$_Callable_obj@V<lambda318>@?A0xe9eda812@@$0A@@tr1@std@@X@tr1@std@@V<lambda318>@?A0xe9eda812@@V?$allocator@V?$_Function_impl0@X@tr1@std@@@3@@?$_Function_impl0@X@tr1@std@@IEAAXV<lambda318>@?A0xe9eda812@@V?$allocator@V?$_Function_impl0@X@tr1@std@@@2@@Z 000000018001414c f i UnityBuildCore.cpp.obj
 0001:000131d0       ??$_Reset0o@V?$_Impl_no_alloc0@U?$_Callable_obj@V<lambda323>@?A0xe9eda812@@$0A@@tr1@std@@X@tr1@std@@V<lambda323>@?A0xe9eda812@@V?$allocator@V?$_Function_impl0@X@tr1@std@@@3@@?$_Function_impl0@X@tr1@std@@IEAAXV<lambda323>@?A0xe9eda812@@V?$allocator@V?$_Function_impl0@X@tr1@std@@@2@@Z 00000001800141d0 f i UnityBuildCore.cpp.obj
 0001:00013254       ??$_Reset0o@V?$_Impl_no_alloc0@U?$_Callable_obj@V<lambda324>@?A0xe9eda812@@$0A@@tr1@std@@X@tr1@std@@V<lambda324>@?A0xe9eda812@@V?$allocator@V?$_Function_impl0@X@tr1@std@@@3@@?$_Function_impl0@X@tr1@std@@IEAAXV<lambda324>@?A0xe9eda812@@V?$allocator@V?$_Function_impl0@X@tr1@std@@@2@@Z 0000000180014254 f i UnityBuildCore.cpp.obj
 0001:000132e0       ??$_Reset0o@V?$_Impl_no_alloc0@U?$_Callable_obj@V<lambda325>@?A0xe9eda812@@$0A@@tr1@std@@X@tr1@std@@V<lambda325>@?A0xe9eda812@@V?$allocator@V?$_Function_impl0@X@tr1@std@@@3@@?$_Function_impl0@X@tr1@std@@IEAAXV<lambda325>@?A0xe9eda812@@V?$allocator@V?$_Function_impl0@X@tr1@std@@@2@@Z 00000001800142e0 f i UnityBuildCore.cpp.obj
 0001:0001336c       ??$check_sign@D@internal@fmt@@YAXAEAPEBDAEBUArg@01@@Z 000000018001436c f i UnityBuildCore.cpp.obj
 0001:00013414       ??$format@PEBD@fmt@@YA?AV?$basic_string@DU?$char_traits@D@std@@V?$allocator@D@2@@std@@V?$BasicCStringRef@D@0@AEBQEBD@Z 0000000180014414 f i UnityBuildCore.cpp.obj
 0001:00013464       ??$format_decimal@IDVThousandsSep@internal@fmt@@@internal@fmt@@YAXPEADIIVThousandsSep@01@@Z 0000000180014464 f i UnityBuildCore.cpp.obj
 0001:000135a0       ??$write_str@D@?$BasicWriter@D@fmt@@AEAAPEADPEBD_KAEBUAlignSpec@1@@Z 00000001800145a0 f i UnityBuildCore.cpp.obj
 0001:000136ac       ??$write_double@NUFormatSpec@fmt@@@?$BasicWriter@D@fmt@@AEAAXNAEBUFormatSpec@1@@Z 00000001800146ac f i UnityBuildCore.cpp.obj
 0001:000139e8       ??$write_double@OUFormatSpec@fmt@@@?$BasicWriter@D@fmt@@AEAAXOAEBUFormatSpec@1@@Z 00000001800149e8 f i UnityBuildCore.cpp.obj
 0001:00013d28       ??$write_str@_W@?$BasicWriter@_W@fmt@@AEAAPEA_WPEB_W_KAEBUAlignSpec@1@@Z 0000000180014d28 f i UnityBuildCore.cpp.obj
 0001:00013e44       ??$format_decimal@_KDVThousandsSep@internal@fmt@@@internal@fmt@@YAXPEAD_KIVThousandsSep@01@@Z 0000000180014e44 f i UnityBuildCore.cpp.obj
 0001:00013f98       ??$append@D@?$Buffer@D@fmt@@QEAAXPEBD0@Z 0000000180014f98 f i UnityBuildCore.cpp.obj
 0001:00013ffc       ??$append@_W@?$Buffer@_W@fmt@@QEAAXPEB_W0@Z 0000000180014ffc f i UnityBuildCore.cpp.obj
 0001:00014068       ?find@?$ArgMap@D@internal@fmt@@QEBAPEBUArg@23@AEBV?$BasicStringRef@D@3@@Z 0000000180015068 f i UnityBuildCore.cpp.obj
 0001:000140ec       ?_Do_call@?$_Impl_no_alloc0@U?$_Callable_obj@V<lambda33>@?A0xe9eda812@@$0A@@tr1@std@@X@tr1@std@@UEAAXXZ 00000001800150ec f i UnityBuildCore.cpp.obj
 0001:00014120       ?_Delete_this@?$_Impl_no_alloc0@U?$_Callable_obj@V<lambda248>@?A0xe9eda812@@$0A@@tr1@std@@X@tr1@std@@EEAAX_N@Z 0000000180015120 f i UnityBuildCore.cpp.obj
 0001:00014120       ?_Delete_this@?$_Impl_no_alloc0@U?$_Callable_obj@V<lambda214>@?A0xe9eda812@@$0A@@tr1@std@@X@tr1@std@@EEAAX_N@Z 0000000180015120 f i UnityBuildCore.cpp.obj
 0001:00014120       ?_Delete_this@?$_Impl_no_alloc0@U?$_Callable_obj@V<lambda274>@?A0xe9eda812@@$0A@@tr1@std@@X@tr1@std@@EEAAX_N@Z 0000000180015120 f i UnityBuildCore.cpp.obj
 0001:00014120       ?_Delete_this@?$_Impl_no_alloc0@U?$_Callable_obj@V<lambda222>@?A0xe9eda812@@$0A@@tr1@std@@X@tr1@std@@EEAAX_N@Z 0000000180015120 f i UnityBuildCore.cpp.obj
 0001:00014120       ?_Delete_this@?$_Impl_no_alloc0@U?$_Callable_obj@V<lambda267>@?A0xe9eda812@@$0A@@tr1@std@@X@tr1@std@@EEAAX_N@Z 0000000180015120 f i UnityBuildCore.cpp.obj
 0001:00014120       ?_Delete_this@?$_Impl_no_alloc0@U?$_Callable_obj@V<lambda282>@?A0xe9eda812@@$0A@@tr1@std@@X@tr1@std@@EEAAX_N@Z 0000000180015120 f i UnityBuildCore.cpp.obj
 0001:00014120       ?_Delete_this@?$_Impl_no_alloc0@U?$_Callable_obj@V<lambda146>@?A0xe9eda812@@$0A@@tr1@std@@X@tr1@std@@EEAAX_N@Z 0000000180015120 f i UnityBuildCore.cpp.obj
 0001:00014120       ?_Delete_this@?$_Impl_no_alloc0@U?$_Callable_obj@V<lambda95>@?A0xe9eda812@@$0A@@tr1@std@@X@tr1@std@@EEAAX_N@Z 0000000180015120 f i UnityBuildCore.cpp.obj
 0001:00014120       ?_Delete_this@?$_Impl_no_alloc0@U?$_Callable_obj@V<lambda200>@?A0xe9eda812@@$0A@@tr1@std@@X@tr1@std@@EEAAX_N@Z 0000000180015120 f i UnityBuildCore.cpp.obj
 0001:00014120       ?_Delete_this@?$_Impl_no_alloc0@U?$_Callable_obj@V<lambda17>@?A0xe9eda812@@$0A@@tr1@std@@X@tr1@std@@EEAAX_N@Z 0000000180015120 f i UnityBuildCore.cpp.obj
 0001:00014120       ?_Delete_this@?$_Impl_no_alloc0@U?$_Callable_obj@V<lambda163>@?A0xe9eda812@@$0A@@tr1@std@@X@tr1@std@@EEAAX_N@Z 0000000180015120 f i UnityBuildCore.cpp.obj
 0001:00014120       ?_Delete_this@?$_Impl_no_alloc0@U?$_Callable_obj@V<lambda289>@?A0xe9eda812@@$0A@@tr1@std@@X@tr1@std@@EEAAX_N@Z 0000000180015120 f i UnityBuildCore.cpp.obj
 0001:00014120       ?_Delete_this@?$_Impl_no_alloc0@U?$_Callable_obj@V<lambda84>@?A0xe9eda812@@$0A@@tr1@std@@X@tr1@std@@EEAAX_N@Z 0000000180015120 f i UnityBuildCore.cpp.obj
 0001:00014120       ?_Delete_this@?$_Impl_no_alloc0@U?$_Callable_obj@V<lambda223>@?A0xe9eda812@@$0A@@tr1@std@@X@tr1@std@@EEAAX_N@Z 0000000180015120 f i UnityBuildCore.cpp.obj
 0001:00014120       ?_Delete_this@?$_Impl_no_alloc0@U?$_Callable_obj@V<lambda208>@?A0xe9eda812@@$0A@@tr1@std@@X@tr1@std@@EEAAX_N@Z 0000000180015120 f i UnityBuildCore.cpp.obj
 0001:00014120       ?_Delete_this@?$_Impl_no_alloc0@U?$_Callable_obj@V<lambda147>@?A0xe9eda812@@$0A@@tr1@std@@X@tr1@std@@EEAAX_N@Z 0000000180015120 f i UnityBuildCore.cpp.obj
 0001:00014120       ?_Delete_this@?$_Impl_no_alloc0@U?$_Callable_obj@V<lambda269>@?A0xe9eda812@@$0A@@tr1@std@@X@tr1@std@@EEAAX_N@Z 0000000180015120 f i UnityBuildCore.cpp.obj
 0001:00014120       ?_Delete_this@?$_Impl_no_alloc0@U?$_Callable_obj@V<lambda209>@?A0xe9eda812@@$0A@@tr1@std@@X@tr1@std@@EEAAX_N@Z 0000000180015120 f i UnityBuildCore.cpp.obj
 0001:00014120       ?_Delete_this@?$_Impl_no_alloc0@U?$_Callable_obj@V<lambda145>@?A0xe9eda812@@$0A@@tr1@std@@X@tr1@std@@EEAAX_N@Z 0000000180015120 f i UnityBuildCore.cpp.obj
 0001:00014120       ?_Delete_this@?$_Impl_no_alloc0@U?$_Callable_obj@V<lambda12>@?A0xe9eda812@@$0A@@tr1@std@@X@tr1@std@@EEAAX_N@Z 0000000180015120 f i UnityBuildCore.cpp.obj
 0001:00014120       ?_Delete_this@?$_Impl_no_alloc0@U?$_Callable_obj@V<lambda364>@?A0xe9eda812@@$0A@@tr1@std@@X@tr1@std@@EEAAX_N@Z 0000000180015120 f i UnityBuildCore.cpp.obj
 0001:00014120       ?_Delete_this@?$_Impl_no_alloc0@U?$_Callable_obj@V<lambda162>@?A0xe9eda812@@$0A@@tr1@std@@X@tr1@std@@EEAAX_N@Z 0000000180015120 f i UnityBuildCore.cpp.obj
 0001:00014120       ?_Delete_this@?$_Impl_no_alloc0@U?$_Callable_obj@V<lambda337>@?A0xe9eda812@@$0A@@tr1@std@@X@tr1@std@@EEAAX_N@Z 0000000180015120 f i UnityBuildCore.cpp.obj
 0001:00014120       ?_Delete_this@?$_Impl_no_alloc0@U?$_Callable_obj@V<lambda70>@?A0xe9eda812@@$0A@@tr1@std@@X@tr1@std@@EEAAX_N@Z 0000000180015120 f i UnityBuildCore.cpp.obj
 0001:00014120       ?_Delete_this@?$_Impl_no_alloc0@U?$_Callable_obj@V<lambda244>@?A0xe9eda812@@$0A@@tr1@std@@X@tr1@std@@EEAAX_N@Z 0000000180015120 f i UnityBuildCore.cpp.obj
 0001:00014120       ?_Delete_this@?$_Impl_no_alloc0@U?$_Callable_obj@V<lambda196>@?A0xe9eda812@@$0A@@tr1@std@@X@tr1@std@@EEAAX_N@Z 0000000180015120 f i UnityBuildCore.cpp.obj
 0001:00014120       ?_Delete_this@?$_Impl_no_alloc0@U?$_Callable_obj@V<lambda137>@?A0xe9eda812@@$0A@@tr1@std@@X@tr1@std@@EEAAX_N@Z 0000000180015120 f i UnityBuildCore.cpp.obj
 0001:00014120       ?_Delete_this@?$_Impl_no_alloc0@U?$_Callable_obj@V<lambda166>@?A0xe9eda812@@$0A@@tr1@std@@X@tr1@std@@EEAAX_N@Z 0000000180015120 f i UnityBuildCore.cpp.obj
 0001:00014120       ?_Delete_this@?$_Impl_no_alloc0@U?$_Callable_obj@V<lambda142>@?A0xe9eda812@@$0A@@tr1@std@@X@tr1@std@@EEAAX_N@Z 0000000180015120 f i UnityBuildCore.cpp.obj
 0001:00014120       ?_Delete_this@?$_Impl_no_alloc0@U?$_Callable_obj@V<lambda325>@?A0xe9eda812@@$0A@@tr1@std@@X@tr1@std@@EEAAX_N@Z 0000000180015120 f i UnityBuildCore.cpp.obj
 0001:00014120       ?_Delete_this@?$_Impl_no_alloc0@U?$_Callable_obj@V<lambda333>@?A0xe9eda812@@$0A@@tr1@std@@X@tr1@std@@EEAAX_N@Z 0000000180015120 f i UnityBuildCore.cpp.obj
 0001:00014120       ?_Delete_this@?$_Impl_no_alloc0@U?$_Callable_obj@V<lambda241>@?A0xe9eda812@@$0A@@tr1@std@@X@tr1@std@@EEAAX_N@Z 0000000180015120 f i UnityBuildCore.cpp.obj
 0001:00014120       ?_Delete_this@?$_Impl_no_alloc0@U?$_Callable_obj@V<lambda44>@?A0xe9eda812@@$0A@@tr1@std@@X@tr1@std@@EEAAX_N@Z 0000000180015120 f i UnityBuildCore.cpp.obj
 0001:00014120       ?_Delete_this@?$_Impl_no_alloc0@U?$_Callable_obj@V<lambda344>@?A0xe9eda812@@$0A@@tr1@std@@X@tr1@std@@EEAAX_N@Z 0000000180015120 f i UnityBuildCore.cpp.obj
 0001:00014120       ?_Delete_this@?$_Impl_no_alloc0@U?$_Callable_obj@V<lambda352>@?A0xe9eda812@@$0A@@tr1@std@@X@tr1@std@@EEAAX_N@Z 0000000180015120 f i UnityBuildCore.cpp.obj
 0001:00014120       ?_Delete_this@?$_Impl_no_alloc0@U?$_Callable_obj@V<lambda48>@?A0xe9eda812@@$0A@@tr1@std@@X@tr1@std@@EEAAX_N@Z 0000000180015120 f i UnityBuildCore.cpp.obj
 0001:00014120       ?_Delete_this@?$_Impl_no_alloc0@U?$_Callable_obj@V<lambda143>@?A0xe9eda812@@$0A@@tr1@std@@X@tr1@std@@EEAAX_N@Z 0000000180015120 f i UnityBuildCore.cpp.obj
 0001:00014120       ?_Delete_this@?$_Impl_no_alloc0@U?$_Callable_obj@V<lambda79>@?A0xe9eda812@@$0A@@tr1@std@@X@tr1@std@@EEAAX_N@Z 0000000180015120 f i UnityBuildCore.cpp.obj
 0001:00014120       ?_Delete_this@?$_Impl_no_alloc0@U?$_Callable_obj@V<lambda65>@?A0xe9eda812@@$0A@@tr1@std@@X@tr1@std@@EEAAX_N@Z 0000000180015120 f i UnityBuildCore.cpp.obj
 0001:00014120       ?_Delete_this@?$_Impl_no_alloc0@U?$_Callable_obj@V<lambda121>@?A0xe9eda812@@$0A@@tr1@std@@X@tr1@std@@EEAAX_N@Z 0000000180015120 f i UnityBuildCore.cpp.obj
 0001:00014120       ?_Delete_this@?$_Impl_no_alloc0@U?$_Callable_obj@V<lambda199>@?A0xe9eda812@@$0A@@tr1@std@@X@tr1@std@@EEAAX_N@Z 0000000180015120 f i UnityBuildCore.cpp.obj
 0001:00014120       ?_Delete_this@?$_Impl_no_alloc0@U?$_Callable_obj@V<lambda354>@?A0xe9eda812@@$0A@@tr1@std@@X@tr1@std@@EEAAX_N@Z 0000000180015120 f i UnityBuildCore.cpp.obj
 0001:00014120       ?_Delete_this@?$_Impl_no_alloc0@U?$_Callable_obj@V<lambda117>@?A0xe9eda812@@$0A@@tr1@std@@X@tr1@std@@EEAAX_N@Z 0000000180015120 f i UnityBuildCore.cpp.obj
 0001:00014120       ?_Delete_this@?$_Impl_no_alloc0@U?$_Callable_obj@V<lambda284>@?A0xe9eda812@@$0A@@tr1@std@@X@tr1@std@@EEAAX_N@Z 0000000180015120 f i UnityBuildCore.cpp.obj
 0001:00014120       ?_Delete_this@?$_Impl_no_alloc0@U?$_Callable_obj@V<lambda343>@?A0xe9eda812@@$0A@@tr1@std@@X@tr1@std@@EEAAX_N@Z 0000000180015120 f i UnityBuildCore.cpp.obj
 0001:00014120       ?_Delete_this@?$_Impl_no_alloc0@U?$_Callable_obj@V<lambda108>@?A0xe9eda812@@$0A@@tr1@std@@X@tr1@std@@EEAAX_N@Z 0000000180015120 f i UnityBuildCore.cpp.obj
 0001:00014120       ?_Delete_this@?$_Impl_no_alloc0@U?$_Callable_obj@V<lambda30>@?A0xe9eda812@@$0A@@tr1@std@@X@tr1@std@@EEAAX_N@Z 0000000180015120 f i UnityBuildCore.cpp.obj
 0001:00014120       ?_Delete_this@?$_Impl_no_alloc0@U?$_Callable_obj@V<lambda66>@?A0xe9eda812@@$0A@@tr1@std@@X@tr1@std@@EEAAX_N@Z 0000000180015120 f i UnityBuildCore.cpp.obj
 0001:00014120       ?_Delete_this@?$_Impl_no_alloc0@U?$_Callable_obj@V<lambda193>@?A0xe9eda812@@$0A@@tr1@std@@X@tr1@std@@EEAAX_N@Z 0000000180015120 f i UnityBuildCore.cpp.obj
 0001:00014120       ?_Delete_this@?$_Impl_no_alloc0@U?$_Callable_obj@V<lambda320>@?A0xe9eda812@@$0A@@tr1@std@@X@tr1@std@@EEAAX_N@Z 0000000180015120 f i UnityBuildCore.cpp.obj
 0001:00014120       ?_Delete_this@?$_Impl_no_alloc0@U?$_Callable_obj@V<lambda322>@?A0xe9eda812@@$0A@@tr1@std@@X@tr1@std@@EEAAX_N@Z 0000000180015120 f i UnityBuildCore.cpp.obj
 0001:00014120       ?_Delete_this@?$_Impl_no_alloc0@U?$_Callable_obj@V<lambda186>@?A0xe9eda812@@$0A@@tr1@std@@X@tr1@std@@EEAAX_N@Z 0000000180015120 f i UnityBuildCore.cpp.obj
 0001:00014120       ?_Delete_this@?$_Impl_no_alloc0@U?$_Callable_obj@V<lambda71>@?A0xe9eda812@@$0A@@tr1@std@@X@tr1@std@@EEAAX_N@Z 0000000180015120 f i UnityBuildCore.cpp.obj
 0001:00014120       ?_Delete_this@?$_Impl_no_alloc0@U?$_Callable_obj@V<lambda233>@?A0xe9eda812@@$0A@@tr1@std@@X@tr1@std@@EEAAX_N@Z 0000000180015120 f i UnityBuildCore.cpp.obj
 0001:00014120       ?_Delete_this@?$_Impl_no_alloc0@U?$_Callable_obj@V<lambda310>@?A0xe9eda812@@$0A@@tr1@std@@X@tr1@std@@EEAAX_N@Z 0000000180015120 f i UnityBuildCore.cpp.obj
 0001:00014120       ?_Delete_this@?$_Impl_no_alloc0@U?$_Callable_obj@V<lambda356>@?A0xe9eda812@@$0A@@tr1@std@@X@tr1@std@@EEAAX_N@Z 0000000180015120 f i UnityBuildCore.cpp.obj
 0001:00014120       ?_Delete_this@?$_Impl_no_alloc0@U?$_Callable_obj@V<lambda175>@?A0xe9eda812@@$0A@@tr1@std@@X@tr1@std@@EEAAX_N@Z 0000000180015120 f i UnityBuildCore.cpp.obj
 0001:00014120       ?_Delete_this@?$_Impl_no_alloc0@U?$_Callable_obj@V<lambda286>@?A0xe9eda812@@$0A@@tr1@std@@X@tr1@std@@EEAAX_N@Z 0000000180015120 f i UnityBuildCore.cpp.obj
 0001:00014120       ?_Delete_this@?$_Impl_no_alloc0@U?$_Callable_obj@V<lambda204>@?A0xe9eda812@@$0A@@tr1@std@@X@tr1@std@@EEAAX_N@Z 0000000180015120 f i UnityBuildCore.cpp.obj
 0001:00014120       ?_Delete_this@?$_Impl_no_alloc0@U?$_Callable_obj@V<lambda98>@?A0xe9eda812@@$0A@@tr1@std@@X@tr1@std@@EEAAX_N@Z 0000000180015120 f i UnityBuildCore.cpp.obj
 0001:00014120       ?_Delete_this@?$_Impl_no_alloc0@U?$_Callable_obj@V<lambda72>@?A0xe9eda812@@$0A@@tr1@std@@X@tr1@std@@EEAAX_N@Z 0000000180015120 f i UnityBuildCore.cpp.obj
 0001:00014120       ?_Delete_this@?$_Impl_no_alloc0@U?$_Callable_obj@V<lambda50>@?A0xe9eda812@@$0A@@tr1@std@@X@tr1@std@@EEAAX_N@Z 0000000180015120 f i UnityBuildCore.cpp.obj
 0001:00014120       ?_Delete_this@?$_Impl_no_alloc0@U?$_Callable_obj@V<lambda38>@?A0xe9eda812@@$0A@@tr1@std@@X@tr1@std@@EEAAX_N@Z 0000000180015120 f i UnityBuildCore.cpp.obj
 0001:00014120       ?_Delete_this@?$_Impl_no_alloc0@U?$_Callable_obj@V<lambda202>@?A0xe9eda812@@$0A@@tr1@std@@X@tr1@std@@EEAAX_N@Z 0000000180015120 f i UnityBuildCore.cpp.obj
 0001:00014120       ?_Delete_this@?$_Impl_no_alloc0@U?$_Callable_obj@V<lambda238>@?A0xe9eda812@@$0A@@tr1@std@@X@tr1@std@@EEAAX_N@Z 0000000180015120 f i UnityBuildCore.cpp.obj
 0001:00014120       ?_Delete_this@?$_Impl_no_alloc0@U?$_Callable_obj@V<lambda67>@?A0xe9eda812@@$0A@@tr1@std@@X@tr1@std@@EEAAX_N@Z 0000000180015120 f i UnityBuildCore.cpp.obj
 0001:00014120       ?_Delete_this@?$_Impl_no_alloc0@U?$_Callable_obj@V<lambda263>@?A0xe9eda812@@$0A@@tr1@std@@X@tr1@std@@EEAAX_N@Z 0000000180015120 f i UnityBuildCore.cpp.obj
 0001:00014120       ?_Delete_this@?$_Impl_no_alloc0@U?$_Callable_obj@V<lambda308>@?A0xe9eda812@@$0A@@tr1@std@@X@tr1@std@@EEAAX_N@Z 0000000180015120 f i UnityBuildCore.cpp.obj
 0001:00014120       ?_Delete_this@?$_Impl_no_alloc0@U?$_Callable_obj@V<lambda231>@?A0xe9eda812@@$0A@@tr1@std@@X@tr1@std@@EEAAX_N@Z 0000000180015120 f i UnityBuildCore.cpp.obj
 0001:00014120       ?_Delete_this@?$_Impl_no_alloc0@U?$_Callable_obj@V<lambda361>@?A0xe9eda812@@$0A@@tr1@std@@X@tr1@std@@EEAAX_N@Z 0000000180015120 f i UnityBuildCore.cpp.obj
 0001:00014120       ?_Delete_this@?$_Impl_no_alloc0@U?$_Callable_obj@V<lambda227>@?A0xe9eda812@@$0A@@tr1@std@@X@tr1@std@@EEAAX_N@Z 0000000180015120 f i UnityBuildCore.cpp.obj
 0001:00014120       ?_Delete_this@?$_Impl_no_alloc0@U?$_Callable_obj@V<lambda300>@?A0xe9eda812@@$0A@@tr1@std@@X@tr1@std@@EEAAX_N@Z 0000000180015120 f i UnityBuildCore.cpp.obj
 0001:00014120       ?_Delete_this@?$_Impl_no_alloc0@U?$_Callable_obj@V<lambda181>@?A0xe9eda812@@$0A@@tr1@std@@X@tr1@std@@EEAAX_N@Z 0000000180015120 f i UnityBuildCore.cpp.obj
 0001:00014120       ?_Delete_this@?$_Impl_no_alloc0@U?$_Callable_obj@V<lambda106>@?A0xe9eda812@@$0A@@tr1@std@@X@tr1@std@@EEAAX_N@Z 0000000180015120 f i UnityBuildCore.cpp.obj
 0001:00014120       ?_Delete_this@?$_Impl_no_alloc0@U?$_Callable_obj@V<lambda359>@?A0xe9eda812@@$0A@@tr1@std@@X@tr1@std@@EEAAX_N@Z 0000000180015120 f i UnityBuildCore.cpp.obj
 0001:00014120       ?_Delete_this@?$_Impl_no_alloc0@U?$_Callable_obj@V<lambda115>@?A0xe9eda812@@$0A@@tr1@std@@X@tr1@std@@EEAAX_N@Z 0000000180015120 f i UnityBuildCore.cpp.obj
 0001:00014120       ?_Delete_this@?$_Impl_no_alloc0@U?$_Callable_obj@V<lambda111>@?A0xe9eda812@@$0A@@tr1@std@@X@tr1@std@@EEAAX_N@Z 0000000180015120 f i UnityBuildCore.cpp.obj
 0001:00014120       ?_Delete_this@?$_Impl_no_alloc0@U?$_Callable_obj@V<lambda318>@?A0xe9eda812@@$0A@@tr1@std@@X@tr1@std@@EEAAX_N@Z 0000000180015120 f i UnityBuildCore.cpp.obj
 0001:00014120       ?_Delete_this@?$_Impl_no_alloc0@U?$_Callable_obj@V<lambda81>@?A0xe9eda812@@$0A@@tr1@std@@X@tr1@std@@EEAAX_N@Z 0000000180015120 f i UnityBuildCore.cpp.obj
 0001:00014120       ?_Delete_this@?$_Impl_no_alloc0@U?$_Callable_obj@V<lambda294>@?A0xe9eda812@@$0A@@tr1@std@@X@tr1@std@@EEAAX_N@Z 0000000180015120 f i UnityBuildCore.cpp.obj
 0001:00014120       ?_Delete_this@?$_Impl_no_alloc0@U?$_Callable_obj@V<lambda69>@?A0xe9eda812@@$0A@@tr1@std@@X@tr1@std@@EEAAX_N@Z 0000000180015120 f i UnityBuildCore.cpp.obj
 0001:00014120       ?_Delete_this@?$_Impl_no_alloc0@U?$_Callable_obj@V<lambda24>@?A0xe9eda812@@$0A@@tr1@std@@X@tr1@std@@EEAAX_N@Z 0000000180015120 f i UnityBuildCore.cpp.obj
 0001:00014120       ?_Delete_this@?$_Impl_no_alloc0@U?$_Callable_obj@V<lambda311>@?A0xe9eda812@@$0A@@tr1@std@@X@tr1@std@@EEAAX_N@Z 0000000180015120 f i UnityBuildCore.cpp.obj
 0001:00014120       ?_Delete_this@?$_Impl_no_alloc0@U?$_Callable_obj@V<lambda133>@?A0xe9eda812@@$0A@@tr1@std@@X@tr1@std@@EEAAX_N@Z 0000000180015120 f i UnityBuildCore.cpp.obj
 0001:00014120       ?_Delete_this@?$_Impl_no_alloc0@U?$_Callable_obj@V<lambda312>@?A0xe9eda812@@$0A@@tr1@std@@X@tr1@std@@EEAAX_N@Z 0000000180015120 f i UnityBuildCore.cpp.obj
 0001:00014120       ?_Delete_this@?$_Impl_no_alloc0@U?$_Callable_obj@V<lambda304>@?A0xe9eda812@@$0A@@tr1@std@@X@tr1@std@@EEAAX_N@Z 0000000180015120 f i UnityBuildCore.cpp.obj
 0001:00014120       ?_Delete_this@?$_Impl_no_alloc0@U?$_Callable_obj@V<lambda336>@?A0xe9eda812@@$0A@@tr1@std@@X@tr1@std@@EEAAX_N@Z 0000000180015120 f i UnityBuildCore.cpp.obj
 0001:00014120       ?_Delete_this@?$_Impl_no_alloc0@U?$_Callable_obj@V<lambda63>@?A0xe9eda812@@$0A@@tr1@std@@X@tr1@std@@EEAAX_N@Z 0000000180015120 f i UnityBuildCore.cpp.obj
 0001:00014120       ?_Delete_this@?$_Impl_no_alloc0@U?$_Callable_obj@V<lambda46>@?A0xe9eda812@@$0A@@tr1@std@@X@tr1@std@@EEAAX_N@Z 0000000180015120 f i UnityBuildCore.cpp.obj
 0001:00014120       ?_Delete_this@?$_Impl_no_alloc0@U?$_Callable_obj@V<lambda279>@?A0xe9eda812@@$0A@@tr1@std@@X@tr1@std@@EEAAX_N@Z 0000000180015120 f i UnityBuildCore.cpp.obj
 0001:00014120       ?_Delete_this@?$_Impl_no_alloc0@U?$_Callable_obj@V<lambda32>@?A0xe9eda812@@$0A@@tr1@std@@X@tr1@std@@EEAAX_N@Z 0000000180015120 f i UnityBuildCore.cpp.obj
 0001:00014120       ?_Delete_this@?$_Impl_no_alloc0@U?$_Callable_obj@V<lambda135>@?A0xe9eda812@@$0A@@tr1@std@@X@tr1@std@@EEAAX_N@Z 0000000180015120 f i UnityBuildCore.cpp.obj
 0001:00014120       ?_Delete_this@?$_Impl_no_alloc0@U?$_Callable_obj@V<lambda301>@?A0xe9eda812@@$0A@@tr1@std@@X@tr1@std@@EEAAX_N@Z 0000000180015120 f i UnityBuildCore.cpp.obj
 0001:00014120       ?_Delete_this@?$_Impl_no_alloc0@U?$_Callable_obj@V<lambda158>@?A0xe9eda812@@$0A@@tr1@std@@X@tr1@std@@EEAAX_N@Z 0000000180015120 f i UnityBuildCore.cpp.obj
 0001:00014120       ?_Delete_this@?$_Impl_no_alloc0@U?$_Callable_obj@V<lambda194>@?A0xe9eda812@@$0A@@tr1@std@@X@tr1@std@@EEAAX_N@Z 0000000180015120 f i UnityBuildCore.cpp.obj
 0001:00014120       ?_Delete_this@?$_Impl_no_alloc0@U?$_Callable_obj@V<lambda102>@?A0xe9eda812@@$0A@@tr1@std@@X@tr1@std@@EEAAX_N@Z 0000000180015120 f i UnityBuildCore.cpp.obj
 0001:00014120       ?_Delete_this@?$_Impl_no_alloc0@U?$_Callable_obj@V<lambda340>@?A0xe9eda812@@$0A@@tr1@std@@X@tr1@std@@EEAAX_N@Z 0000000180015120 f i UnityBuildCore.cpp.obj
 0001:00014120       ?_Delete_this@?$_Impl_no_alloc0@U?$_Callable_obj@V<lambda165>@?A0xe9eda812@@$0A@@tr1@std@@X@tr1@std@@EEAAX_N@Z 0000000180015120 f i UnityBuildCore.cpp.obj
 0001:00014120       ?_Delete_this@?$_Impl_no_alloc0@U?$_Callable_obj@V<lambda276>@?A0xe9eda812@@$0A@@tr1@std@@X@tr1@std@@EEAAX_N@Z 0000000180015120 f i UnityBuildCore.cpp.obj
 0001:00014120       ?_Delete_this@?$_Impl_no_alloc0@U?$_Callable_obj@V<lambda22>@?A0xe9eda812@@$0A@@tr1@std@@X@tr1@std@@EEAAX_N@Z 0000000180015120 f i UnityBuildCore.cpp.obj
 0001:00014120       ?_Delete_this@?$_Impl_no_alloc0@U?$_Callable_obj@V<lambda55>@?A0xe9eda812@@$0A@@tr1@std@@X@tr1@std@@EEAAX_N@Z 0000000180015120 f i UnityBuildCore.cpp.obj
 0001:00014120       ?_Delete_this@?$_Impl_no_alloc0@U?$_Callable_obj@V<lambda36>@?A0xe9eda812@@$0A@@tr1@std@@X@tr1@std@@EEAAX_N@Z 0000000180015120 f i UnityBuildCore.cpp.obj
 0001:00014120       ?_Delete_this@?$_Impl_no_alloc0@U?$_Callable_obj@V<lambda78>@?A0xe9eda812@@$0A@@tr1@std@@X@tr1@std@@EEAAX_N@Z 0000000180015120 f i UnityBuildCore.cpp.obj
 0001:00014120       ?_Delete_this@?$_Impl_no_alloc0@U?$_Callable_obj@V<lambda243>@?A0xe9eda812@@$0A@@tr1@std@@X@tr1@std@@EEAAX_N@Z 0000000180015120 f i UnityBuildCore.cpp.obj
 0001:00014120       ?_Delete_this@?$_Impl_no_alloc0@U?$_Callable_obj@V<lambda254>@?A0xe9eda812@@$0A@@tr1@std@@X@tr1@std@@EEAAX_N@Z 0000000180015120 f i UnityBuildCore.cpp.obj
 0001:00014120       ?_Delete_this@?$_Impl_no_alloc0@U?$_Callable_obj@V<lambda314>@?A0xe9eda812@@$0A@@tr1@std@@X@tr1@std@@EEAAX_N@Z 0000000180015120 f i UnityBuildCore.cpp.obj
 0001:00014120       ?_Delete_this@?$_Impl_no_alloc0@U?$_Callable_obj@V<lambda338>@?A0xe9eda812@@$0A@@tr1@std@@X@tr1@std@@EEAAX_N@Z 0000000180015120 f i UnityBuildCore.cpp.obj
 0001:00014120       ?_Delete_this@?$_Impl_no_alloc0@U?$_Callable_obj@V<lambda167>@?A0xe9eda812@@$0A@@tr1@std@@X@tr1@std@@EEAAX_N@Z 0000000180015120 f i UnityBuildCore.cpp.obj
 0001:00014120       ?_Delete_this@?$_Impl_no_alloc0@U?$_Callable_obj@V<lambda85>@?A0xe9eda812@@$0A@@tr1@std@@X@tr1@std@@EEAAX_N@Z 0000000180015120 f i UnityBuildCore.cpp.obj
 0001:00014120       ?_Delete_this@?$_Impl_no_alloc0@U?$_Callable_obj@V<lambda93>@?A0xe9eda812@@$0A@@tr1@std@@X@tr1@std@@EEAAX_N@Z 0000000180015120 f i UnityBuildCore.cpp.obj
 0001:00014120       ?_Delete_this@?$_Impl_no_alloc0@U?$_Callable_obj@V<lambda345>@?A0xe9eda812@@$0A@@tr1@std@@X@tr1@std@@EEAAX_N@Z 0000000180015120 f i UnityBuildCore.cpp.obj
 0001:00014120       ?_Delete_this@?$_Impl_no_alloc0@U?$_Callable_obj@V<lambda291>@?A0xe9eda812@@$0A@@tr1@std@@X@tr1@std@@EEAAX_N@Z 0000000180015120 f i UnityBuildCore.cpp.obj
 0001:00014120       ?_Delete_this@?$_Impl_no_alloc0@U?$_Callable_obj@V<lambda332>@?A0xe9eda812@@$0A@@tr1@std@@X@tr1@std@@EEAAX_N@Z 0000000180015120 f i UnityBuildCore.cpp.obj
 0001:00014120       ?_Delete_this@?$_Impl_no_alloc0@U?$_Callable_obj@V<lambda323>@?A0xe9eda812@@$0A@@tr1@std@@X@tr1@std@@EEAAX_N@Z 0000000180015120 f i UnityBuildCore.cpp.obj
 0001:00014120       ?_Delete_this@?$_Impl_no_alloc0@U?$_Callable_obj@V<lambda189>@?A0xe9eda812@@$0A@@tr1@std@@X@tr1@std@@EEAAX_N@Z 0000000180015120 f i UnityBuildCore.cpp.obj
 0001:00014120       ?_Delete_this@?$_Impl_no_alloc0@U?$_Callable_obj@V<lambda306>@?A0xe9eda812@@$0A@@tr1@std@@X@tr1@std@@EEAAX_N@Z 0000000180015120 f i UnityBuildCore.cpp.obj
 0001:00014120       ?_Delete_this@?$_Impl_no_alloc0@U?$_Callable_obj@V<lambda275>@?A0xe9eda812@@$0A@@tr1@std@@X@tr1@std@@EEAAX_N@Z 0000000180015120 f i UnityBuildCore.cpp.obj
 0001:00014120       ?_Delete_this@?$_Impl_no_alloc0@U?$_Callable_obj@V<lambda119>@?A0xe9eda812@@$0A@@tr1@std@@X@tr1@std@@EEAAX_N@Z 0000000180015120 f i UnityBuildCore.cpp.obj
 0001:00014120       ?_Delete_this@?$_Impl_no_alloc0@U?$_Callable_obj@V<lambda42>@?A0xe9eda812@@$0A@@tr1@std@@X@tr1@std@@EEAAX_N@Z 0000000180015120 f i UnityBuildCore.cpp.obj
 0001:00014120       ?_Delete_this@?$_Impl_no_alloc0@U?$_Callable_obj@V<lambda335>@?A0xe9eda812@@$0A@@tr1@std@@X@tr1@std@@EEAAX_N@Z 0000000180015120 f i UnityBuildCore.cpp.obj
 0001:00014120       ?_Delete_this@?$_Impl_no_alloc0@U?$_Callable_obj@V<lambda179>@?A0xe9eda812@@$0A@@tr1@std@@X@tr1@std@@EEAAX_N@Z 0000000180015120 f i UnityBuildCore.cpp.obj
 0001:00014120       ?_Delete_this@?$_Impl_no_alloc0@U?$_Callable_obj@V<lambda293>@?A0xe9eda812@@$0A@@tr1@std@@X@tr1@std@@EEAAX_N@Z 0000000180015120 f i UnityBuildCore.cpp.obj
 0001:00014120       ?_Delete_this@?$_Impl_no_alloc0@U?$_Callable_obj@V<lambda188>@?A0xe9eda812@@$0A@@tr1@std@@X@tr1@std@@EEAAX_N@Z 0000000180015120 f i UnityBuildCore.cpp.obj
 0001:00014120       ?_Delete_this@?$_Impl_no_alloc0@U?$_Callable_obj@V<lambda273>@?A0xe9eda812@@$0A@@tr1@std@@X@tr1@std@@EEAAX_N@Z 0000000180015120 f i UnityBuildCore.cpp.obj
 0001:00014120       ?_Delete_this@?$_Impl_no_alloc0@U?$_Callable_obj@V<lambda164>@?A0xe9eda812@@$0A@@tr1@std@@X@tr1@std@@EEAAX_N@Z 0000000180015120 f i UnityBuildCore.cpp.obj
 0001:00014120       ?_Delete_this@?$_Impl_no_alloc0@U?$_Callable_obj@V<lambda216>@?A0xe9eda812@@$0A@@tr1@std@@X@tr1@std@@EEAAX_N@Z 0000000180015120 f i UnityBuildCore.cpp.obj
 0001:00014120       ?_Delete_this@?$_Impl_no_alloc0@U?$_Callable_obj@V<lambda296>@?A0xe9eda812@@$0A@@tr1@std@@X@tr1@std@@EEAAX_N@Z 0000000180015120 f i UnityBuildCore.cpp.obj
 0001:00014120       ?_Delete_this@?$_Impl_no_alloc0@U?$_Callable_obj@V<lambda234>@?A0xe9eda812@@$0A@@tr1@std@@X@tr1@std@@EEAAX_N@Z 0000000180015120 f i UnityBuildCore.cpp.obj
 0001:00014120       ?_Delete_this@?$_Impl_no_alloc0@U?$_Callable_obj@V<lambda265>@?A0xe9eda812@@$0A@@tr1@std@@X@tr1@std@@EEAAX_N@Z 0000000180015120 f i UnityBuildCore.cpp.obj
 0001:00014120       ?_Delete_this@?$_Impl_no_alloc0@U?$_Callable_obj@V<lambda80>@?A0xe9eda812@@$0A@@tr1@std@@X@tr1@std@@EEAAX_N@Z 0000000180015120 f i UnityBuildCore.cpp.obj
 0001:00014120       ?_Delete_this@?$_Impl_no_alloc0@U?$_Callable_obj@V<lambda278>@?A0xe9eda812@@$0A@@tr1@std@@X@tr1@std@@EEAAX_N@Z 0000000180015120 f i UnityBuildCore.cpp.obj
 0001:00014120       ?_Delete_this@?$_Impl_no_alloc0@U?$_Callable_obj@V<lambda213>@?A0xe9eda812@@$0A@@tr1@std@@X@tr1@std@@EEAAX_N@Z 0000000180015120 f i UnityBuildCore.cpp.obj
 0001:00014120       ?_Delete_this@?$_Impl_no_alloc0@U?$_Callable_obj@V<lambda53>@?A0xe9eda812@@$0A@@tr1@std@@X@tr1@std@@EEAAX_N@Z 0000000180015120 f i UnityBuildCore.cpp.obj
 0001:00014120       ?_Delete_this@?$_Impl_no_alloc0@U?$_Callable_obj@V<lambda255>@?A0xe9eda812@@$0A@@tr1@std@@X@tr1@std@@EEAAX_N@Z 0000000180015120 f i UnityBuildCore.cpp.obj
 0001:00014120       ?_Delete_this@?$_Impl_no_alloc0@U?$_Callable_obj@V<lambda68>@?A0xe9eda812@@$0A@@tr1@std@@X@tr1@std@@EEAAX_N@Z 0000000180015120 f i UnityBuildCore.cpp.obj
 0001:00014120       ?_Delete_this@?$_Impl_no_alloc0@U?$_Callable_obj@V<lambda131>@?A0xe9eda812@@$0A@@tr1@std@@X@tr1@std@@EEAAX_N@Z 0000000180015120 f i UnityBuildCore.cpp.obj
 0001:00014120       ?_Delete_this@?$_Impl_no_alloc0@U?$_Callable_obj@V<lambda217>@?A0xe9eda812@@$0A@@tr1@std@@X@tr1@std@@EEAAX_N@Z 0000000180015120 f i UnityBuildCore.cpp.obj
 0001:00014120       ?_Delete_this@?$_Impl_no_alloc0@U?$_Callable_obj@V<lambda195>@?A0xe9eda812@@$0A@@tr1@std@@X@tr1@std@@EEAAX_N@Z 0000000180015120 f i UnityBuildCore.cpp.obj
 0001:00014120       ?_Delete_this@?$_Impl_no_alloc0@U?$_Callable_obj@V<lambda297>@?A0xe9eda812@@$0A@@tr1@std@@X@tr1@std@@EEAAX_N@Z 0000000180015120 f i UnityBuildCore.cpp.obj
 0001:00014120       ?_Delete_this@?$_Impl_no_alloc0@U?$_Callable_obj@V<lambda19>@?A0xe9eda812@@$0A@@tr1@std@@X@tr1@std@@EEAAX_N@Z 0000000180015120 f i UnityBuildCore.cpp.obj
 0001:00014120       ?_Delete_this@?$_Impl_no_alloc0@U?$_Callable_obj@V<lambda330>@?A0xe9eda812@@$0A@@tr1@std@@X@tr1@std@@EEAAX_N@Z 0000000180015120 f i UnityBuildCore.cpp.obj
 0001:00014120       ?_Delete_this@?$_Impl_no_alloc0@U?$_Callable_obj@V<lambda205>@?A0xe9eda812@@$0A@@tr1@std@@X@tr1@std@@EEAAX_N@Z 0000000180015120 f i UnityBuildCore.cpp.obj
 0001:00014120       ?_Delete_this@?$_Impl_no_alloc0@U?$_Callable_obj@V<lambda228>@?A0xe9eda812@@$0A@@tr1@std@@X@tr1@std@@EEAAX_N@Z 0000000180015120 f i UnityBuildCore.cpp.obj
 0001:00014120       ?_Delete_this@?$_Impl_no_alloc0@U?$_Callable_obj@V<lambda257>@?A0xe9eda812@@$0A@@tr1@std@@X@tr1@std@@EEAAX_N@Z 0000000180015120 f i UnityBuildCore.cpp.obj
 0001:00014120       ?_Delete_this@?$_Impl_no_alloc0@U?$_Callable_obj@V<lambda148>@?A0xe9eda812@@$0A@@tr1@std@@X@tr1@std@@EEAAX_N@Z 0000000180015120 f i UnityBuildCore.cpp.obj
 0001:00014120       ?_Delete_this@?$_Impl_no_alloc0@U?$_Callable_obj@V<lambda339>@?A0xe9eda812@@$0A@@tr1@std@@X@tr1@std@@EEAAX_N@Z 0000000180015120 f i UnityBuildCore.cpp.obj
 0001:00014120       ?_Delete_this@?$_Impl_no_alloc0@U?$_Callable_obj@V<lambda316>@?A0xe9eda812@@$0A@@tr1@std@@X@tr1@std@@EEAAX_N@Z 0000000180015120 f i UnityBuildCore.cpp.obj
 0001:00014120       ?_Delete_this@?$_Impl_no_alloc0@U?$_Callable_obj@V<lambda113>@?A0xe9eda812@@$0A@@tr1@std@@X@tr1@std@@EEAAX_N@Z 0000000180015120 f i UnityBuildCore.cpp.obj
 0001:00014120       ?_Delete_this@?$_Impl_no_alloc0@U?$_Callable_obj@V<lambda250>@?A0xe9eda812@@$0A@@tr1@std@@X@tr1@std@@EEAAX_N@Z 0000000180015120 f i UnityBuildCore.cpp.obj
 0001:00014120       ?_Delete_this@?$_Impl_no_alloc0@U?$_Callable_obj@V<lambda155>@?A0xe9eda812@@$0A@@tr1@std@@X@tr1@std@@EEAAX_N@Z 0000000180015120 f i UnityBuildCore.cpp.obj
 0001:00014120       ?_Delete_this@?$_Impl_no_alloc0@U?$_Callable_obj@V<lambda232>@?A0xe9eda812@@$0A@@tr1@std@@X@tr1@std@@EEAAX_N@Z 0000000180015120 f i UnityBuildCore.cpp.obj
 0001:00014120       ?_Delete_this@?$_Impl_no_alloc0@U?$_Callable_obj@V<lambda328>@?A0xe9eda812@@$0A@@tr1@std@@X@tr1@std@@EEAAX_N@Z 0000000180015120 f i UnityBuildCore.cpp.obj
 0001:00014120       ?_Delete_this@?$_Impl_no_alloc0@U?$_Callable_obj@V<lambda31>@?A0xe9eda812@@$0A@@tr1@std@@X@tr1@std@@EEAAX_N@Z 0000000180015120 f i UnityBuildCore.cpp.obj
 0001:00014120       ?_Delete_this@?$_Impl_no_alloc0@U?$_Callable_obj@V<lambda317>@?A0xe9eda812@@$0A@@tr1@std@@X@tr1@std@@EEAAX_N@Z 0000000180015120 f i UnityBuildCore.cpp.obj
 0001:00014120       ?_Delete_this@?$_Impl_no_alloc0@U?$_Callable_obj@V<lambda366>@?A0xe9eda812@@$0A@@tr1@std@@X@tr1@std@@EEAAX_N@Z 0000000180015120 f i UnityBuildCore.cpp.obj
 0001:00014120       ?_Delete_this@?$_Impl_no_alloc0@U?$_Callable_obj@V<lambda285>@?A0xe9eda812@@$0A@@tr1@std@@X@tr1@std@@EEAAX_N@Z 0000000180015120 f i UnityBuildCore.cpp.obj
 0001:00014120       ?_Delete_this@?$_Impl_no_alloc0@U?$_Callable_obj@V<lambda35>@?A0xe9eda812@@$0A@@tr1@std@@X@tr1@std@@EEAAX_N@Z 0000000180015120 f i UnityBuildCore.cpp.obj
 0001:00014120       ?_Delete_this@?$_Impl_no_alloc0@U?$_Callable_obj@V<lambda82>@?A0xe9eda812@@$0A@@tr1@std@@X@tr1@std@@EEAAX_N@Z 0000000180015120 f i UnityBuildCore.cpp.obj
 0001:00014120       ?_Delete_this@?$_Impl_no_alloc0@U?$_Callable_obj@V<lambda259>@?A0xe9eda812@@$0A@@tr1@std@@X@tr1@std@@EEAAX_N@Z 0000000180015120 f i UnityBuildCore.cpp.obj
 0001:00014120       ?_Delete_this@?$_Impl_no_alloc0@U?$_Callable_obj@V<lambda28>@?A0xe9eda812@@$0A@@tr1@std@@X@tr1@std@@EEAAX_N@Z 0000000180015120 f i UnityBuildCore.cpp.obj
 0001:00014120       ?_Delete_this@?$_Impl_no_alloc0@U?$_Callable_obj@V<lambda20>@?A0xe9eda812@@$0A@@tr1@std@@X@tr1@std@@EEAAX_N@Z 0000000180015120 f i UnityBuildCore.cpp.obj
 0001:00014120       ?_Delete_this@?$_Impl_no_alloc0@U?$_Callable_obj@V<lambda172>@?A0xe9eda812@@$0A@@tr1@std@@X@tr1@std@@EEAAX_N@Z 0000000180015120 f i UnityBuildCore.cpp.obj
 0001:00014120       ?_Delete_this@?$_Impl_no_alloc0@U?$_Callable_obj@V<lambda191>@?A0xe9eda812@@$0A@@tr1@std@@X@tr1@std@@EEAAX_N@Z 0000000180015120 f i UnityBuildCore.cpp.obj
 0001:00014120       ?_Delete_this@?$_Impl_no_alloc0@U?$_Callable_obj@V<lambda185>@?A0xe9eda812@@$0A@@tr1@std@@X@tr1@std@@EEAAX_N@Z 0000000180015120 f i UnityBuildCore.cpp.obj
 0001:00014120       ?_Delete_this@?$_Impl_no_alloc0@U?$_Callable_obj@V<lambda346>@?A0xe9eda812@@$0A@@tr1@std@@X@tr1@std@@EEAAX_N@Z 0000000180015120 f i UnityBuildCore.cpp.obj
 0001:00014120       ?_Delete_this@?$_Impl_no_alloc0@U?$_Callable_obj@V<lambda277>@?A0xe9eda812@@$0A@@tr1@std@@X@tr1@std@@EEAAX_N@Z 0000000180015120 f i UnityBuildCore.cpp.obj
 0001:00014120       ?_Delete_this@?$_Impl_no_alloc0@U?$_Callable_obj@V<lambda26>@?A0xe9eda812@@$0A@@tr1@std@@X@tr1@std@@EEAAX_N@Z 0000000180015120 f i UnityBuildCore.cpp.obj
 0001:00014120       ?_Delete_this@?$_Impl_no_alloc0@U?$_Callable_obj@V<lambda302>@?A0xe9eda812@@$0A@@tr1@std@@X@tr1@std@@EEAAX_N@Z 0000000180015120 f i UnityBuildCore.cpp.obj
 0001:00014120       ?_Delete_this@?$_Impl_no_alloc0@U?$_Callable_obj@V<lambda303>@?A0xe9eda812@@$0A@@tr1@std@@X@tr1@std@@EEAAX_N@Z 0000000180015120 f i UnityBuildCore.cpp.obj
 0001:00014120       ?_Delete_this@?$_Impl_no_alloc0@U?$_Callable_obj@V<lambda99>@?A0xe9eda812@@$0A@@tr1@std@@X@tr1@std@@EEAAX_N@Z 0000000180015120 f i UnityBuildCore.cpp.obj
